
./output/out.elf：     文件格式 elf32-littleriscv
./output/out.elf
体系结构：riscv:rv32，标志 0x00000112：
EXEC_P, HAS_SYMS, D_PAGED
起始地址 0x01000000

Program Header:
    LOAD off    0x00001000 vaddr 0x01000000 paddr 0x01000000 align 2**12
         filesz 0x0000fbd8 memsz 0x0000fbd8 flags r-x
    LOAD off    0x00011000 vaddr 0x10010000 paddr 0x0100fbd8 align 2**12
         filesz 0x000005cc memsz 0x00004474 flags rw-

节：
Idx Name           Size      VMA       LMA       File off  Algn  标志
  0 .text          00000688  01000000  01000000  00001000  2**6  CONTENTS, ALLOC, LOAD, READONLY, CODE
  1 .text1         0000ebd8  01001000  01001000  00002000  2**3  CONTENTS, ALLOC, LOAD, READONLY, CODE
  2 .debug         000389ce  10010000  10010000  000115cc  2**0  CONTENTS, READONLY, DEBUGGING
  3 .data          000005cc  10010000  0100fbd8  00011000  2**3  CONTENTS, ALLOC, LOAD, DATA
  4 .bss           000007ba  100105cc  010101a4  000115cc  2**2  ALLOC
  5 .noretention0  0000346d  10011000  01010bd8  000115cc  2**2  ALLOC
  6 .noretention   00000004  10014470  01014048  000115cc  2**2  ALLOC
  7 .debug_abbrev  0000942a  00000000  00000000  00049f9a  2**0  CONTENTS, READONLY, DEBUGGING
  8 .debug_aranges 000018b8  00000000  00000000  000533c8  2**3  CONTENTS, READONLY, DEBUGGING
  9 .debug_ranges  00002610  00000000  00000000  00054c80  2**0  CONTENTS, READONLY, DEBUGGING
 10 .debug_line    0002586a  00000000  00000000  00057290  2**0  CONTENTS, READONLY, DEBUGGING
 11 .debug_str     0000c785  00000000  00000000  0007cafa  2**0  CONTENTS, READONLY, DEBUGGING
 12 .comment       00000011  00000000  00000000  0008927f  2**0  CONTENTS, READONLY
 13 .debug_frame   00004870  00000000  00000000  00089290  2**2  CONTENTS, READONLY, DEBUGGING
 14 .debug_loc     0000e149  00000000  00000000  0008db00  2**0  CONTENTS, READONLY, DEBUGGING
SYMBOL TABLE:
01000000 l    d  .text	00000000 .text
01001000 l    d  .text1	00000000 .text1
10010000 l    d  .debug	00000000 .debug
10010000 l    d  .data	00000000 .data
100105cc l    d  .bss	00000000 .bss
10011000 l    d  .noretention0	00000000 .noretention0
10014470 l    d  .noretention	00000000 .noretention
00000000 l    d  .debug_abbrev	00000000 .debug_abbrev
00000000 l    d  .debug_aranges	00000000 .debug_aranges
00000000 l    d  .debug_ranges	00000000 .debug_ranges
00000000 l    d  .debug_line	00000000 .debug_line
00000000 l    d  .debug_str	00000000 .debug_str
00000000 l    d  .comment	00000000 .comment
00000000 l    d  .debug_frame	00000000 .debug_frame
00000000 l    d  .debug_loc	00000000 .debug_loc
00000000 l    df *ABS*	00000000 output/obj/startup_rv32.o
0100007e l       .text	00000000 __EN_MIE
01000094 l       .text	00000000 __exit
01000210 l       .text	00000000 isr_table
010001d0 l       .text	00000000 .Interrupt
00000000 l    df *ABS*	00000000 main.c
10011000 l     O .noretention0	00002000 gHeapBuffer
1001000c l     O .data	00000034 IPCHandleCb
01001000 l     F .text1	00000052 bt_init
01001052 l     F .text1	0000001a chip_task_run
0100106c l     F .text1	00000036 chip_init
00000000 l    df *ABS*	00000000 yc_debug.c
100105cc l     O .bss	0000001c g_yc_debug_manager
00000000 l    df *ABS*	00000000 yc_nvic.c
00000000 l    df *ABS*	00000000 yc11xx.c
00000000 l    df *ABS*	00000000 malloc.c
100105e8 l     O .bss	00000004 xFreeBytesRemaining
100105ec l     O .bss	00000004 xMinimumEverFreeBytesRemaining
100105f0 l     O .bss	00000004 xNumberOfSuccessfulAllocations
100105f4 l     O .bss	00000004 xNumberOfSuccessfulFrees
100105f8 l     O .bss	00000008 xStart
10010600 l     O .bss	00000004 pxEnd
01001b66 l     F .text1	0000004c prvInsertBlockIntoFreeList
0100cd20 l     O .text1	0000000e __FUNCTION__.3696
00000000 l    df *ABS*	00000000 software_timer.c
10010604 l     O .bss	00000070 task_func_timeout
10010674 l     O .bss	00000038 task_func_array
100106ac l     O .bss	00000001 timer_num
01001cfc l     F .text1	00000098 swtimer_task
00000000 l    df *ABS*	00000000 yc11xx_bt_interface.c
00000000 l    df *ABS*	00000000 yc11xx_ipc.c
10013038 l     O .noretention0	000000fe ipcReadBuff
10013138 l     O .noretention0	00000028 ipcSendBuff
100106b0 l     O .bss	00000004 ipc_handle_cb_array
01001f86 l     F .text1	00000162 ipcRx
010020e8 l     F .text1	00000162 ipcTx
0100cd70 l     O .text1	0000000d __FUNCTION__.3762
0100cd80 l     O .text1	00000011 __FUNCTION__.3767
0100cd94 l     O .text1	0000000d __FUNCTION__.3772
0100cda4 l     O .text1	00000013 __FUNCTION__.3777
00000000 l    df *ABS*	00000000 yc11xx_audio_adc.c
100106b4 l     O .bss	00000001 g_adc_chksum
00000000 l    df *ABS*	00000000 yc11xx_gpio.c
0100d190 l     O .text1	0000000a __FUNCTION__.2294
0100d19c l     O .text1	00000011 __FUNCTION__.2298
00000000 l    df *ABS*	00000000 yc11xx_iwdg.c
0100d1d8 l     O .text1	0000000d __FUNCTION__.2182
00000000 l    df *ABS*	00000000 yc11xx_qspi0.c
01003b36 l     F .text1	00000054 qspi0_dma_start
01003b8a l     F .text1	0000001e qspi0_dma_wait
01003ba8 l     F .text1	0000003c qspi0_write
01003be4 l     F .text1	00000038 qspi0_read_write
01003c1c l     F .text1	00000016 qspi0_flash_cmd
01003c32 l     F .text1	0000001c qspi0_flash_readstatus1
01003c4e l     F .text1	0000001e qspi0_flash_readstatus2
01003c6c l     F .text1	00000034 qspi0_flash_waitfinish
01003ca0 l     F .text1	00000032 qspi0_flash_writestatus
01003cd2 l     F .text1	0000000c qspi0_flash_writeenable
01003cde l     F .text1	000000a2 _qspi0_flash_write
01003d80 l     F .text1	00000046 _qspi0_flash_erase
01003dc6 l     F .text1	000000de _qspi0_flash_read
00000000 l    df *ABS*	00000000 yc11xx_systick.c
100106b8 l     O .bss	00000004 g_systickIrqCallback
100106bc l     O .bss	00000004 g_systick_unitUs
0100d1e8 l     O .text1	00000004 CSWTCH.10
00000000 l    df *ABS*	00000000 yc11xx_timer.c
0100d214 l     O .text1	00000009 __FUNCTION__.3483
0100d220 l     O .text1	00000008 __FUNCTION__.3490
00000000 l    df *ABS*	00000000 yc11xx_lpm.c
00000000 l    df *ABS*	00000000 yc11xx_pwm.c
00000000 l    df *ABS*	00000000 yc11xx_dev_bt_aap.c
0100d228 l     O .text1	00000012 aap_rsp
0100d23c l     O .text1	00000096 AAP_manufac1
0100d2d4 l     O .text1	00000008 AAP_manufac2
0100d2dc l     O .text1	0000002f AAP_manufac3
0100d30c l     O .text1	00000016 AAP_manufac4
0100d324 l     O .text1	0000000c AAP_AcpAnc1
0100d340 l     O .text1	000000bc AAP_AncRst3
0100d3fc l     O .text1	0000000d AAP_StopAnc4
00000000 l    df *ABS*	00000000 yc11xx_dev_bt_data_trans.c
00000000 l    df *ABS*	00000000 yc11xx_dev_qspi.c
00000000 l    df *ABS*	00000000 yc_dev_bt.c
100106c4 l     O .bss	00000002 gBLEState
100106c8 l     O .bss	00000008 rssi_buffer
100106d0 l     O .bss	00000001 rssi_counter
00000000 l    df *ABS*	00000000 yc_ota.c
100106d4 l     O .bss	00000014 ota_data_structure
01005a02 l     F .text1	0000004c SYS_CodeChange
01005a4e l     F .text1	00000084 OTA_FlashAddr_Init
00000000 l    df *ABS*	00000000 att.c
01005e02 l     F .text1	00000026 ATT_SendErrorRsp
01005e28 l     F .text1	00000020 ATT_WriteCmd
01005e48 l     F .text1	00000046 ATT_ExecuteWriteReq
01005e8e l     F .text1	0000009c ATT_PrepareWriteReq
01005f2a l     F .text1	00000048 ATT_WriteReq
01005f72 l     F .text1	00000180 ATT_ReadReq_ByGroupType
010060f2 l     F .text1	00000056 ATT_ReadBlobReq
01006148 l     F .text1	00000038 ATT_ReadReq
01006180 l     F .text1	0000024e ATT_ReadReq_ByType
010063ce l     F .text1	000000b4 ATT_Find_ByType_Value
01006482 l     F .text1	000000f2 ATT_FindInformationReq
01006574 l     F .text1	0000004e ATT_UpdateMtu
010065c2 l     F .text1	0000005e ATT_ExchangeMtuReq
00000000 l    df *ABS*	00000000 app_queue.c
10013260 l     O .noretention0	00000003 AppQueMgr
10013264 l     O .noretention0	000000a8 AppEventQue
00000000 l    df *ABS*	00000000 app_sleep.c
100106e8 l     O .bss	00000006 remote_control_status
10010044 l     O .data	00000001 sleep_timernum
010068ea l     F .text1	0000004e app_lock_check
01006938 l     F .text1	000000dc app_sleep_task
00000000 l    df *ABS*	00000000 vbat.c
100106ee l     O .bss	00000001 adc_sample_cnt
100106f0 l     O .bss	0000000a adc_value
10010045 l     O .data	00000001 vbat_adc_timernum
100106fc l     O .bss	00000004 power_report_cb
01006ca6 l     F .text1	0000009c batvalue_calculate
01006d42 l     F .text1	00000096 vbat_task
00000000 l    df *ABS*	00000000 keyscan.c
1001330c l     O .noretention0	00000001 key_changed
10013310 l     O .noretention0	0000000d key_report
10010046 l     O .data	00000001 key_report_timernum
10010700 l     O .bss	0000002a keynum_buf
1001072c l     O .bss	00000008 key_cfg
01006e62 l     F .text1	00000088 row_scan
01006eea l     F .text1	000000f8 keyscan_once
01006fe2 l     F .text1	000000b2 key_task
01007094 l     F .text1	00000050 keyscan_row_cfg
010070e4 l     F .text1	00000044 keyscan_col_cfg
00000000 l    df *ABS*	00000000 led.c
10010047 l     O .data	00000001 led_blk_timernum
010072c8 l     F .text1	000000c2 led_task
00000000 l    df *ABS*	00000000 ir_send.c
10010734 l     O .bss	00000001 key_pressed
10010048 l     O .data	00000002 ir_pcnt
1001004a l     O .data	00000002 ir_ncnt
1001004c l     O .data	00000001 clk_div
00000000 l    df *ABS*	00000000 ir_load.c
1001332c l     O .noretention0	00000400 ir_pulse_data
1001372c l     O .noretention0	000000b8 gemini_hand
10010738 l     O .bss	00000006 ir_endcode_param
10010740 l     O .bss	00000008 ir_send_param
10010748 l     O .bss	00000004 ir_ready
1001074c l     O .bss	00000004 pwm_time_pulse
10010750 l     O .bss	00000002 bit0_h_tm
10010752 l     O .bss	00000002 bit0_l_tm
10010754 l     O .bss	00000002 bit1_h_tm
10010756 l     O .bss	00000002 bit1_l_tm
10010758 l     O .bss	00000010 rpt_lead_buf
10010768 l     O .bss	00000008 stop_buf
10010770 l     O .bss	00000008 lead_buf
10010778 l     O .bss	00000001 en_type
10010779 l     O .bss	00000001 user_repeat
1001077c l     O .bss	00000004 brand_rpt_code
10010780 l     O .bss	00000004 cust_code
10010784 l     O .bss	00000004 brand_type
10010788 l     O .bss	00000001 gemini_state
1001078a l     O .bss	00000002 coust_code
010075da l     F .text1	000000b8 ir_without_freq
01007794 l     F .text1	0000003c upt_pwm_time_pulse
010077d0 l     F .text1	00000064 philips_upt_pwm_time_pulse
01007834 l     F .text1	000000d4 FB739A_upt_pwm_time_pulse
01007908 l     F .text1	0000002a rpt_bit_pwm
01007932 l     F .text1	000000b4 IRTI1250C5D7_bit_time
010079e6 l     F .text1	00000096 repeat_bit_time
01007a7c l     F .text1	0000007e philips_bit_time
01007afa l     F .text1	0000007c high_bit_time
01007b76 l     F .text1	00000066 bit_time
01007bdc l     F .text1	000000d0 Zenith_D5_ready
01007cac l     F .text1	000000f6 IRTI1250C5D7_ready
01007da2 l     F .text1	00000086 ir_fb739a_ready
01007e28 l     F .text1	00000126 repeat_bit_data_ready
01007f4e l     F .text1	000000a0 philips_rcmm_bit_data_ready
1001004e l     O .data	00000002 toggle.4276
01007fee l     F .text1	00000142 ir_gemini_ready
01008130 l     F .text1	00000224 high_ir_data_ready
1001078c l     O .bss	00000002 toggle.4290
1001078e l     O .bss	00000002 coust_code.4292
01008354 l     F .text1	000002fa ir_data_ready
00000000 l    df *ABS*	00000000 ir_lib.c
0100d828 l     O .text1	0000000a rpt_TC9012LIAN_9700_BUF
0100d834 l     O .text1	0000000a rpt_lc7461_9000_4500_BUF
0100d840 l     O .text1	0000000a rpt_udp6121_9000_BUF
0100d84c l     O .text1	0000000a rpt_udp6121_8550_BUF
0100d858 l     O .text1	0000000a rpt_GEMINI_8500_BUF
0100d864 l     O .text1	0000000a rpt_SINGH2150_8170_BUF
0100d870 l     O .text1	0000000a rpt_DVB_40BIT_BUF
0100d87c l     O .text1	00000004 CUSTOM_00_00_BUF
0100d880 l     O .text1	00000004 CUSTOM_00_1F_BUF
0100d884 l     O .text1	00000004 CUSTOM_00_02_BUF
0100d888 l     O .text1	00000004 CUSTOM_00_2B_BUF
0100d88c l     O .text1	00000004 CUSTOM_00_30_BUF
0100d890 l     O .text1	00000004 CUSTOM_00_57_BUF
0100d894 l     O .text1	00000004 CUSTOM_00_7F_BUF
0100d898 l     O .text1	00000004 CUSTOM_00_80_BUF
0100d89c l     O .text1	00000004 CUSTOM_00_99_BUF
0100d8a0 l     O .text1	00000004 CUSTOM_00_AF_BUF
0100d8a4 l     O .text1	00000004 CUSTOM_00_BA_BUF
0100d8a8 l     O .text1	00000004 CUSTOM_00_BD_BUF
0100d8ac l     O .text1	00000004 CUSTOM_00_BE_BUF
0100d8b0 l     O .text1	00000004 CUSTOM_00_BF_BUF
0100d8b4 l     O .text1	00000004 CUSTOM_00_DF_BUF
0100d8b8 l     O .text1	00000004 CUSTOM_00_D9_BUF
0100d8bc l     O .text1	00000004 CUSTOM_00_EF_BUF
0100d8c0 l     O .text1	00000004 CUSTOM_00_F6_BUF
0100d8c4 l     O .text1	00000004 CUSTOM_00_F7_BUF
0100d8c8 l     O .text1	00000004 CUSTOM_00_FB_BUF
0100d8cc l     O .text1	00000004 CUSTOM_00_FD_BUF
0100d8d0 l     O .text1	00000004 CUSTOM_00_FF_BUF
0100d8d4 l     O .text1	00000004 CUSTOM_01_00_BUF
0100d8d8 l     O .text1	00000004 CUSTOM_01_01_BUF
0100d8dc l     O .text1	00000004 CUSTOM_01_FE_BUF
0100d8e0 l     O .text1	00000004 CUSTOM_02_00_BUF
0100d8e4 l     O .text1	00000004 CUSTOM_02_BD_BUF
0100d8e8 l     O .text1	00000004 CUSTOM_02_FD_BUF
0100d8ec l     O .text1	00000004 CUSTOM_02_7D_BUF
0100d8f0 l     O .text1	00000004 CUSTOM_02_7F_BUF
0100d8f4 l     O .text1	00000004 CUSTOM_02_FF_BUF
0100d8f8 l     O .text1	00000004 CUSTOM_02_F5_BUF
0100d8fc l     O .text1	00000004 CUSTOM_03_00_BUF
0100d900 l     O .text1	00000004 CUSTOM_03_AC_BUF
0100d904 l     O .text1	00000004 CUSTOM_03_FC_BUF
0100d908 l     O .text1	00000004 CUSTOM_04_00_BUF
0100d90c l     O .text1	00000004 CUSTOM_04_10_BUF
0100d910 l     O .text1	00000004 CUSTOM_04_B9_BUF
0100d914 l     O .text1	00000004 CUSTOM_04_FB_BUF
0100d918 l     O .text1	00000004 CUSTOM_05_00_BUF
0100d91c l     O .text1	00000004 CUSTOM_05_05_BUF
0100d920 l     O .text1	00000004 CUSTOM_06_06_BUF
0100d924 l     O .text1	00000004 CUSTOM_06_FB_BUF
0100d928 l     O .text1	00000004 CUSTOM_06_FE_BUF
0100d92c l     O .text1	00000004 CUSTOM_07_07_BUF
0100d930 l     O .text1	00000004 CUSTOM_08_00_BUF
0100d934 l     O .text1	00000004 CUSTOM_08_08_BUF
0100d938 l     O .text1	00000004 CUSTOM_08_0B_BUF
0100d93c l     O .text1	00000004 CUSTOM_08_13_BUF
0100d940 l     O .text1	00000004 CUSTOM_08_F7_BUF
0100d944 l     O .text1	00000004 CUSTOM_09_F6_BUF
0100d948 l     O .text1	00000004 CUSTOM_0A_35_BUF
0100d94c l     O .text1	00000004 CUSTOM_0A_00_BUF
0100d950 l     O .text1	00000004 CUSTOM_0A_0A_BUF
0100d954 l     O .text1	00000004 CUSTOM_0B_0B_BUF
0100d958 l     O .text1	00000004 CUSTOM_0D_0D_BUF
0100d95c l     O .text1	00000004 CUSTOM_0E_09_BUF
0100d960 l     O .text1	00000004 CUSTOM_0E_0E_BUF
0100d964 l     O .text1	00000004 CUSTOM_0F_00_BUF
0100d968 l     O .text1	00000004 CUSTOM_10_ED_BUF
0100d96c l     O .text1	00000004 CUSTOM_10_EF_BUF
0100d970 l     O .text1	00000004 CUSTOM_10_2D_BUF
0100d974 l     O .text1	00000004 CUSTOM_12_12_BUF
0100d978 l     O .text1	00000004 CUSTOM_12_ED_BUF
0100d97c l     O .text1	00000004 CUSTOM_13_14_BUF
0100d980 l     O .text1	00000004 CUSTOM_14_00_BUF
0100d984 l     O .text1	00000004 CUSTOM_16_29_BUF
0100d988 l     O .text1	00000004 CUSTOM_16_E9_BUF
0100d98c l     O .text1	00000004 CUSTOM_18_18_BUF
0100d990 l     O .text1	00000004 CUSTOM_18_E7_BUF
0100d994 l     O .text1	00000004 CUSTOM_18_E9_BUF
0100d998 l     O .text1	00000004 CUSTOM_1A_00_BUF
0100d99c l     O .text1	00000004 CUSTOM_1B_00_BUF
0100d9a0 l     O .text1	00000004 CUSTOM_1C_E3_BUF
0100d9a4 l     O .text1	00000004 CUSTOM_1E_1E_BUF
0100d9a8 l     O .text1	00000004 CUSTOM_1E_E1_BUF
0100d9ac l     O .text1	00000004 CUSTOM_1F_00_BUF
0100d9b0 l     O .text1	00000004 CUSTOM_20_40_BUF
0100d9b4 l     O .text1	00000004 CUSTOM_20_DF_BUF
0100d9b8 l     O .text1	00000004 CUSTOM_20_FD_BUF
0100d9bc l     O .text1	00000004 CUSTOM_21_DE_BUF
0100d9c0 l     O .text1	00000004 CUSTOM_22_11_BUF
0100d9c4 l     O .text1	00000004 CUSTOM_24_DB_BUF
0100d9c8 l     O .text1	00000004 CUSTOM_29_D6_BUF
0100d9cc l     O .text1	00000004 CUSTOM_2B_D4_BUF
0100d9d0 l     O .text1	00000004 CUSTOM_33_00_BUF
0100d9d4 l     O .text1	00000004 CUSTOM_33_CC_BUF
0100d9d8 l     O .text1	00000004 CUSTOM_35_50_BUF
0100d9dc l     O .text1	00000004 CUSTOM_38_C7_BUF
0100d9e0 l     O .text1	00000004 CUSTOM_3F_C0_BUF
0100d9e4 l     O .text1	00000004 CUSTOM_3F_3F_BUF
0100d9e8 l     O .text1	00000004 CUSTOM_40_02_BUF
0100d9ec l     O .text1	00000004 CUSTOM_40_20_BUF
0100d9f0 l     O .text1	00000004 CUSTOM_40_40_BUF
0100d9f4 l     O .text1	00000004 CUSTOM_40_BF_BUF
0100d9f8 l     O .text1	00000004 CUSTOM_42_BD_BUF
0100d9fc l     O .text1	00000004 CUSTOM_42_FD_BUF
0100da00 l     O .text1	00000004 CUSTOM_43_00_BUF
0100da04 l     O .text1	00000004 CUSTOM_45_16_BUF
0100da08 l     O .text1	00000004 CUSTOM_23_45_BUF
0100da0c l     O .text1	00000004 CUSTOM_45_BC_BUF
0100da10 l     O .text1	00000004 CUSTOM_46_00_BUF
0100da14 l     O .text1	00000004 CUSTOM_47_00_BUF
0100da18 l     O .text1	00000004 CUSTOM_4B_B4_BUF
0100da1c l     O .text1	00000004 CUSTOM_4F_50_BUF
0100da20 l     O .text1	00000004 CUSTOM_50_AD_BUF
0100da24 l     O .text1	00000004 CUSTOM_50_AF_BUF
0100da28 l     O .text1	00000004 CUSTOM_54_00_BUF
0100da2c l     O .text1	00000004 CUSTOM_58_A7_BUF
0100da30 l     O .text1	00000004 CUSTOM_5A_49_BUF
0100da34 l     O .text1	00000004 CUSTOM_60_9F_BUF
0100da38 l     O .text1	00000004 CUSTOM_60_9D_BUF
0100da3c l     O .text1	00000004 CUSTOM_61_63_BUF
0100da40 l     O .text1	00000004 CUSTOM_6A_00_BUF
0100da44 l     O .text1	00000004 CUSTOM_69_F1_BUF
0100da48 l     O .text1	00000004 CUSTOM_71_8E_BUF
0100da4c l     O .text1	00000004 CUSTOM_73_00_BUF
0100da50 l     O .text1	00000004 CUSTOM_76_7B_BUF
0100da54 l     O .text1	00000004 CUSTOM_77_00_BUF
0100da58 l     O .text1	00000004 CUSTOM_77_88_BUF
0100da5c l     O .text1	00000004 CUSTOM_7D_00_BUF
0100da60 l     O .text1	00000004 CUSTOM_7F_00_BUF
0100da64 l     O .text1	00000004 CUSTOM_80_23_BUF
0100da68 l     O .text1	00000004 CUSTOM_80_80_BUF
0100da6c l     O .text1	00000004 CUSTOM_80_57_BUF
0100da70 l     O .text1	00000004 CUSTOM_80_63_BUF
0100da74 l     O .text1	00000004 CUSTOM_80_64_BUF
0100da78 l     O .text1	00000004 CUSTOM_80_6F_BUF
0100da7c l     O .text1	00000004 CUSTOM_80_7F_BUF
0100da80 l     O .text1	00000004 CUSTOM_80_8F_BUF
0100da84 l     O .text1	00000004 CUSTOM_82_F3_BUF
0100da88 l     O .text1	00000004 CUSTOM_83_55_BUF
0100da8c l     O .text1	00000004 CUSTOM_83_F1_BUF
0100da90 l     O .text1	00000004 CUSTOM_83_F7_BUF
0100da94 l     O .text1	00000004 CUSTOM_84_E0_BUF
0100da98 l     O .text1	00000004 CUSTOM_85_46_BUF
0100da9c l     O .text1	00000004 CUSTOM_86_02_BUF
0100daa0 l     O .text1	00000004 CUSTOM_86_05_BUF
0100daa4 l     O .text1	00000004 CUSTOM_86_6B_BUF
0100daa8 l     O .text1	00000004 CUSTOM_87_22_BUF
0100daac l     O .text1	00000004 CUSTOM_87_4E_BUF
0100dab0 l     O .text1	00000004 CUSTOM_88_45_BUF
0100dab4 l     O .text1	00000004 CUSTOM_95_6A_BUF
0100dab8 l     O .text1	00000004 CUSTOM_96_69_BUF
0100dabc l     O .text1	00000004 CUSTOM_97_00_BUF
0100dac0 l     O .text1	00000004 CUSTOM_A0_5F_BUF
0100dac4 l     O .text1	00000004 CUSTOM_A0_87_BUF
0100dac8 l     O .text1	00000004 CUSTOM_A4_00_BUF
0100dacc l     O .text1	00000004 CUSTOM_AA_03_BUF
0100dad0 l     O .text1	00000004 CUSTOM_AA_55_BUF
0100dad4 l     O .text1	00000004 CUSTOM_C4_00_BUF
0100dad8 l     O .text1	00000004 CUSTOM_E5_70_BUF
0100dadc l     O .text1	00000004 CUSTOM_E6_00_BUF
0100dae0 l     O .text1	00000004 CUSTOM_E7_0A_BUF
0100dae4 l     O .text1	00000004 CUSTOM_EA_C7_BUF
0100dae8 l     O .text1	00000004 CUSTOM_EA_C8_BUF
0100daec l     O .text1	00000004 CUSTOM_EE_00_BUF
0100daf0 l     O .text1	00000004 CUSTOM_DC_00_BUF
0100daf4 l     O .text1	00000004 CUSTOM_DE_D6_BUF
0100daf8 l     O .text1	00000004 CUSTOM_F4_00_BUF
0100dafc l     O .text1	00000004 CUSTOM_FE_01_BUF
0100db00 l     O .text1	00000004 CUSTOM_0000_B000_BUF
0100db04 l     O .text1	00000004 CUSTOM_0000_FFFF_BUF
0100db08 l     O .text1	00000004 CUSTOM_055A_0000_BUF
0100db0c l     O .text1	00000004 CUSTOM_0057_0000_BUF
0100db10 l     O .text1	00000004 CUSTOM_007B_1F84_BUF
0100db14 l     O .text1	00000004 CUSTOM_081F_0000_BUF
0100db18 l     O .text1	00000004 CUSTOM_0119_1EE6_BUF
0100db1c l     O .text1	00000004 CUSTOM_011A_FEE5_BUF
0100db20 l     O .text1	00000004 CUSTOM_011C_1EE3_BUF
0100db24 l     O .text1	00000004 CUSTOM_013C_1EC3_BUF
0100db28 l     O .text1	00000004 CUSTOM_0114_FEEB_BUF
0100db2c l     O .text1	00000004 CUSTOM_0200_0000_BUF
0100db30 l     O .text1	00000004 CUSTOM_1463_0084_BUF
0100db34 l     O .text1	00000004 CUSTOM_2002_4880_BUF
0100db38 l     O .text1	00000004 CUSTOM_29C0_2600_BUF
0100db3c l     O .text1	00000004 CUSTOM_5AAA_162F_BUF
0100db40 l     O .text1	00000004 CUSTOM_8000_FFFF_BUF
0100db44 l     O .text1	00000004 CUSTOM_87E1_F000_BUF
0100db48 l     O .text1	00000004 CUSTOM_2002_0090_BUF
0100db4c l     O .text1	00000004 CUSTOM_434F_004E_BUF
0100db50 l     O .text1	00000004 CUSTOM_BFFF_FFFF_BUF
0100db54 l     O .text1	00000004 CUSTOM_FFFD_0000_BUF
0100db58 l     O .text1	00000004 CUSTOM_FFFE_00A4_BUF
0100db5c l     O .text1	00000004 CUSTOM_FFFE_00A5_BUF
0100db60 l     O .text1	00000004 CUSTOM_FFFE_006A_BUF
0100db64 l     O .text1	00000004 CUSTOM_FFFD_0001_BUF
0100db68 l     O .text1	00000004 CUSTOM_FFFD_FFFF_BUF
0100db6c l     O .text1	00000004 CUSTOM_FFFF_FFFF_BUF
0100db70 l     O .text1	00000004 HIGH_CUSTOM_2002_0080_BUF
0100db74 l     O .text1	00000004 CUSTOM_2002_0280_BUF
0100db78 l     O .text1	00000004 CUSTOM_2002_0480_BUF
0100db7c l     O .text1	00000004 HIGH_CUSTOM_0000_1800_BUF
0100db80 l     O .text1	00000004 HIGH_CUSTOM_3000_0000_BUF
0100db84 l     O .text1	00000004 HIGH_CUSTOM_4000_0000_BUF
0100db88 l     O .text1	00000004 HIGH_CUSTOM_8000_0000_BUF
0100db8c l     O .text1	00000004 HIGH_CUSTOM_8000_2800_BUF
0100db90 l     O .text1	00000004 HIGH_CUSTOM_8100_7E00_BUF
0100db94 l     O .text1	00000004 HIGH_CUSTOM_A000_0000_BUF
0100db98 l     O .text1	00000004 HIGH_CUSTOM_B000_6000_BUF
0100db9c l     O .text1	00000004 HIGH_CUSTOM_B000_A000_BUF
0100dba0 l     O .text1	00000004 HIGH_CUSTOM_B000_F000_BUF
0100dba4 l     O .text1	00000004 HIGH_CUSTOM_C000_0000_BUF
0100dba8 l     O .text1	00000004 HIGH_CUSTOM_C000_0800_BUF
0100dbac l     O .text1	00000004 HIGH_CUSTOM_C000_6000_BUF
0100dbb0 l     O .text1	00000004 HIGH_CUSTOM_FFFD_6000_BUF
0100dbb4 l     O .text1	00000004 HIGH_CUSTOM_FFFD_E000_BUF
0100dbb8 l     O .text1	00000004 HIGH_CUSTOM_FFFD_8800_BUF
0100dbbc l     O .text1	0000001e CUSTOM_6BIT_02_BUF
0100dbdc l     O .text1	0000001e CUSTOM_C1D6_03_BUF
0100dbfc l     O .text1	0000001e DVB_PAN_7051_SAMSUN_05_BUF
0100dc1c l     O .text1	0000001e FB739A_06_BUF
0100dc3c l     O .text1	0000001e GEMINI_C16_38_08_BUF
0100dc5c l     O .text1	0000001e GEMINI_C10_32_08_BUF
0100dc7c l     O .text1	0000001e GEMINI_C10_38_09_BUF
0100dc9c l     O .text1	0000001e GEMINI_C10_32_10_BUF
0100dcbc l     O .text1	0000001e IRT1250C5D6_12_BUF
0100dcdc l     O .text1	0000001e IRT1250C5D7_13_BUF
0100dcfc l     O .text1	0000001e KK_Y261_14_BUF
0100dd1c l     O .text1	0000001e LBNSAMSUNG_15_BUF
0100dd3c l     O .text1	0000001e LC7461M_C13S_16_BUF
0100dd5c l     O .text1	0000001e LC7461M_C13S_17_BUF
0100dd7c l     O .text1	0000001e LC7464M_PANASONIC_18_BUF
0100dd9c l     O .text1	0000001e LG3004_33K_19_TOGGLE_ONE_BUF
0100ddbc l     O .text1	0000001e LG3004_33K_19_TOGGLE_TWO_BUF
0100dddc l     O .text1	0000001e LG3004_33K_19_TOGGLE_TWO_Freq_0_BUF
0100ddfc l     O .text1	0000001e LG3004_33K_19_TOGGLE_ZERO_BUF
0100de1c l     O .text1	0000001e M3004_38K_20_BUF
0100de3c l     O .text1	0000001e M3004_38K_20_toggle_zero_BUF
0100de5c l     O .text1	0000001e M3004_38K_21_400_BUF
0100de7c l     O .text1	0000001e M50119P_23_BUF
0100de9c l     O .text1	0000001e M50462_24_BUF
0100debc l     O .text1	0000001e M50560_25_BUF
0100dedc l     O .text1	0000001e MITC8D8_28_BUF
0100defc l     O .text1	0000001e MN6014C6D6_29_BUF
0100df1c l     O .text1	0000001e MN6014C5D638_30_BUF
0100df3c l     O .text1	0000001e MN6014C5D656_31_BUF
0100df5c l     O .text1	0000001e N3201_32_BUF
0100df7c l     O .text1	0000001e PANPROJECTOR_37_BUF
0100df9c l     O .text1	0000001e PHILIPS_20_38_BUF
0100dfbc l     O .text1	0000001e PHILIPS_RC_MM_39_BUF
0100dfdc l     O .text1	0000001e PILOT370_40_BUF
0100dffc l     O .text1	0000001e PIONEER_41_BUF
0100e01c l     O .text1	0000001e RCA_56_42_BUF
0100e03c l     O .text1	0000001e RCA_38_43_BUF
0100e05c l     O .text1	0000001e RCA_56_44_BUF
0100e07c l     O .text1	0000001e SAA3010_38_45_BUF
0100e09c l     O .text1	0000001e SAA3010_36_46_BUF
0100e0bc l     O .text1	0000001e SAMSUNG_38_49_BUF
0100e0dc l     O .text1	0000001e LX0773CE_50_BUF
0100e0fc l     O .text1	0000001e SINGH2150_51_BUF
0100e11c l     O .text1	0000001e TC901_54_BUF
0100e13c l     O .text1	0000001e TC901_55_BUF
0100e15c l     O .text1	0000001e RCT311_56_BUF
0100e17c l     O .text1	0000001e UPD6121G2_64_BUF
0100e19c l     O .text1	0000001e UPD6121G2_40K_65_BUF
0100e1bc l     O .text1	0000001e UPD6121G_LIAN_66_BUF
0100e1dc l     O .text1	0000001e UPD6121G_001_67_BUF
0100e1fc l     O .text1	0000001e UPD6121G2_D8_68_BUF
0100e21c l     O .text1	0000001e UPD6124_D7C5_69_BUF
0100e23c l     O .text1	0000001e UPD6124_D7C8_70_BUF
0100e25c l     O .text1	0000001e UPD6124_D7C13_71_BUF
0100e27c l     O .text1	0000001e VICTOR_C8D8_72_BUF
0100e29c l     O .text1	0000001e XY_2106_75_BUF
0100e2bc l     O .text1	0000001e ZENITH_S10_77_BUF
0100e2dc l     O .text1	0000001e ZENITH_S10_77_Zero_BUF
0100e2fc l     O .text1	0000001e ZENITH_D5_78_BUF
0100e31c l     O .text1	0000001e ZENITH_D7_79_BUF
0100e33c l     O .text1	0000001e ZENITHSIM_C2D8_82_BUF
0100e35c l     O .text1	0000001e Unknow_C8D5_83_BUF
0100e37c l     O .text1	0000001e UPD6121G_001_APPLE_90_BUF
0100e39c l     O .text1	0000001e Pioneer_91_BUF
0100e3bc l     O .text1	0000001e STM708LB1_92_BUF
0100e3dc l     O .text1	0000001e JX_9070_93_BUF
0100e3fc l     O .text1	0000001e GD_2000_94_BUF
0100e41c l     O .text1	0000001e XY_JAECS_95_BUF
0100e43c l     O .text1	0000001e DVB_40BIT_100_BUF
0100e45c l     O .text1	0000001c CSWTCH.0
0100e478 l     O .text1	00000340 CSWTCH.1
0100e7b8 l     O .text1	00000114 CSWTCH.2
00000000 l    df *ABS*	00000000 audio.c
100137e4 l     O .noretention0	00000001 ntf_buf_offset
100137e8 l     O .noretention0	0000007d VoiceNTFBuf
10013868 l     O .noretention0	00000003 VoiceEncodeQueMgr
1001386c l     O .noretention0	00000258 VoiceEncodeQue
10013ac4 l     O .noretention0	00000964 MicRecord
10010050 l     O .data	00000001 timeout_timernum
10010051 l     O .data	00000001 start_ntf_timernum
01008932 l     F .text1	00000032 Get_MicReocrd_Len
01008964 l     F .text1	00000050 Audio_AdcConfig
010089b4 l     F .text1	000000c4 Voice_Send
01008a78 l     F .text1	0000009a Voice_Encode
01008b12 l     F .text1	00000030 audio_task
01008b42 l     F .text1	00000024 timeout_timer_cb
01008b66 l     F .text1	0000002a start_ntf_timer_cb
01008b90 l     F .text1	00000062 voice_timer_init
00000000 l    df *ABS*	00000000 sbc_encoder.c
00000000 l    df *ABS*	00000000 hd_sbc.c
10010790 l     O .bss	00000248 context
00000000 l    df *ABS*	00000000 sbc_enc_bit_alloc_mono.c
00000000 l    df *ABS*	00000000 sbc_analysis.c
100109d8 l     O .bss	00000040 s32DCTY
10010a18 l     O .bss	000001c0 s32X
10010054 l     O .data	00000004 s16X
10010bd8 l     O .bss	00000002 ShiftCounter
00000000 l    df *ABS*	00000000 sbc_dct.c
00000000 l    df *ABS*	00000000 sbc_packing.c
00000000 l    df *ABS*	00000000 mouse.c
10014428 l     O .noretention0	0000000c sensor_data_report
10014434 l     O .noretention0	00000002 acc_lsb_div
10014436 l     O .noretention0	00000002 gyro_lsb_div
10014438 l     O .noretention0	00000014 qmi8658_cfg
1001444c l     O .noretention0	00000001 mouse_on_delay
1001444d l     O .noretention0	00000001 mouse_on_off
10010059 l     O .data	00000001 mouse_init_timernum
10010bdc l     O .bss	00000004 mouse_report_cb
0100988e l     F .text1	0000004e sw_i2c_writereg
010098dc l     F .text1	0000007e sw_i2c_readreg
0100995a l     F .text1	0000002a Qmi8658_write_reg
01009984 l     F .text1	0000002e Qmi8658_read_reg
010099b2 l     F .text1	00000096 Qmi8658_send_ctl9cmd
01009a48 l     F .text1	000000d4 Qmi8658_config_gyro
01009b1c l     F .text1	00000096 Qmi8658_config_acc
01009bb2 l     F .text1	0000009a anymotion_Config
01009c4c l     F .text1	00000014 Qmi8658_reset
01009c60 l     F .text1	00000072 anymotion_lowpwr_config
01009cd2 l     F .text1	00000032 anymotion_high_odr_enable
01009d58 l     F .text1	00000020 Qmi8658_power_off
01009d78 l     F .text1	0000006a Qmi8658_power_on
01009de2 l     F .text1	0000005c Qmi8658_read_xyz
01009e3e l     F .text1	00000052 mouse_task
01009e90 l     F .text1	0000009a mouse_init_handle
10010be0 l     O .bss	00000002 int_cnt
1001005a l     O .data	00000001 moving_state
00000000 l    df *ABS*	00000000 hd_math.c
10014450 l     O .noretention0	00000004 q0
10014454 l     O .noretention0	00000004 q1
10014458 l     O .noretention0	00000004 q2
1001445c l     O .noretention0	00000004 q3
10014460 l     O .noretention0	00000004 exInt
10014464 l     O .noretention0	00000004 eyInt
10014468 l     O .noretention0	00000004 ezInt
00000000 l    df *ABS*	00000000 software_i2c.c
00000000 l    df *ABS*	00000000 encode.c
1001005b l     O .data	00000001 encode_chk_ok
10010be2 l     O .bss	00000001 Enc_Type
0100a390 l     F .text1	0000012a Encoder_Scan
10010be3 l     O .bss	00000001 dir.3692
0100a4ba l     F .text1	00000080 encode_timer_cb
00000000 l    df *ABS*	00000000 factory_test_off_line.c
00000000 l    df *ABS*	00000000 remote_control.c
0100ebb8 l     O .text1	0000001b adv_data_buf
0100ebd4 l     O .text1	0000000a scan_rsp_data_buf
0100ebe0 l     O .text1	0000012d head_freq_buf
0100ed10 l     O .text1	00000012 head_value_buf
1001005c l     O .data	0000012d head_buf
1001446c l     O .noretention0	00000001 mouse_on_off
10010be6 l     O .bss	00000002 key_pressed_time
10010be8 l     O .bss	00000001 key_pressed_num
10010be9 l     O .bss	00000001 keynum_secnd
10010bea l     O .bss	00000001 keynum
10010189 l     O .data	00000001 app_rpt_timeout_timernum
1001018a l     O .data	00000001 brand_pressed_timernum
1001018b l     O .data	00000001 encode_timernum
1001018c l     O .data	00000001 ir_lisrt_timernum
10010beb l     O .bss	00000001 tx_power_switch
10010bec l     O .bss	00000001 paired_frst
10010bed l     O .bss	00000001 led_state
10010bf0 l     O .bss	00000013 usr_axis_key_buf
10010c03 l     O .bss	00000001 auto_cnt
10010c04 l     O .bss	00000001 app_rpt_timeout_type
0100a688 l     F .text1	000000de SecretKey_Check
0100a78a l     F .text1	00000044 get_voice_key_state
0100a7ce l     F .text1	00000034 get_voice_key_rel_state
10010c05 l     O .bss	00000001 tv_type_state
0100a802 l     F .text1	00000010 get_cur_type
10010c06 l     O .bss	00000001 audio_frame_seq
0100a812 l     F .text1	00000012 get_audio_frame_seq
0100ed38 l     O .text1	00000002 msbc_flag_buf
0100ed3c l     O .text1	00000002 msbc_flag_buf1
0100a824 l     F .text1	0000003c get_audio_keyvalue
0100a860 l     F .text1	0000003c get_keyvalue
10010c07 l     O .bss	00000001 app_pkt_type
10010c08 l     O .bss	00000006 acc_pre
10010c10 l     O .bss	00000006 gyro_pre
10010c16 l     O .bss	00000001 cnt
10010c18 l     O .bss	00000078 gyro_raw_buf
10010c90 l     O .bss	00000006 gyro_offset
0100a9ac l     F .text1	00000270 auto_calibration_axis
0100ac1c l     F .text1	000001ae update_axis_2_usr_data
0100adca l     F .text1	0000004a get_frame_len
10010c96 l     O .bss	00000001 hstep
10010c97 l     O .bss	00000001 hcnt
10010c98 l     O .bss	00000001 htag
0100ae14 l     F .text1	00000062 update_frm_head
10010c99 l     O .bss	00000001 frame_seq
10010c9a l     O .bss	00000001 kv_cmd_state_value
10010c9b l     O .bss	00000001 app_ka_cur_state
10010c9c l     O .bss	00000001 axis_init_en
10010c9d l     O .bss	00000001 moving_press_2_init_state
10010c9e l     O .bss	00000001 axis_key_stop_cmd_step
10010c9f l     O .bss	00000001 moving_frst
1001018d l     O .data	00000001 axis_key_enable
10010ca0 l     O .bss	00000001 kv04_cmd_rpt_pkt_en
10010ca1 l     O .bss	00000001 encode_chk_ok
1001018e l     O .data	00000001 encode_chk_value
0100aeb4 l     F .text1	00000038 get_encode_state
10010ca2 l     O .bss	00000001 key_chk_ok
0100aeec l     F .text1	00000464 all_state_switch
0100b350 l     F .text1	00000078 mouse_handle
0100b3c8 l     F .text1	00000076 app_rpt_timeout_handle
0100b43e l     F .text1	0000003c encode_handle
0100b47a l     F .text1	00000002 ir_list_handle
0100b47c l     F .text1	000000d6 key_pressed_handle
0100b552 l     F .text1	0000020e keyvalue_handle
0100b760 l     F .text1	0000005a power_handle
0100b7ba l     F .text1	00000030 remote_control_reinit
0100ee68 l     O .text1	00000002 handle_44_6d_rsp_buf
0100ee6c l     O .text1	00000002 handle_44_6c_buf
0100ee70 l     O .text1	00000002 handle_44_6c_rsp_buf
0100ee74 l     O .text1	00000011 handle_44_kv11_rsp_buf
0100ee88 l     O .text1	0000000c handle_44_kv13_rsp_buf
0100ee94 l     O .text1	0000000c handle_44_kv19_rsp_buf
0100eea0 l     O .text1	0000009a unknow_1byte_17_rsp
0100ef3c l     O .text1	0000009a unknow_1byte_17_2_rsp
00000000 l    df *ABS*	00000000 att_list.c
10010ca4 l     O .bss	00000001 service_changed_val
10010ca8 l     O .bss	00000002 service_changed_ccc
0100f164 l     O .text1	00000001 READ_PREMITTED_ONLY
0100f168 l     O .text1	00000001 WRITE_PREMITTED_ONLY
0100f16c l     O .text1	00000001 WRITE_WITHOUT_RESPONSE_PREMITTED_ONLY
0100f170 l     O .text1	00000001 NOTIFY_PREMITTED_ONLY
0100f174 l     O .text1	00000001 READ_NOTIFY_PREMITTED
0100f178 l     O .text1	00000001 WRITE_WITHOUT_RESPONSE_NOTIFY_PREMITTED
0100f17c l     O .text1	00000001 READ_WRITE_NOTIFY_PREMITTED
0100f180 l     O .text1	00000001 READ_WRITE_WITHOUT_RESPONSE_PREMITTED_ONLY
0100f184 l     O .text1	00000001 READ_WRITE_WRITE_WITHOUT_RESPONSE_PREMITTED_ONLY
0100f188 l     O .text1	00000001 PRO_INDICATE_PREMITTED
0100f18c l     O .text1	00000002 CHARACTERTIC_CONFIGURATION
0100f190 l     O .text1	00000002 EXTERNAL_REPORT
0100f194 l     O .text1	00000002 REPORT_REFERENCE
0100f198 l     O .text1	00000002 CHARACTERISTIC_USER_DESC
0100f19c l     O .text1	00000002 SERVICE_GENERIC_ATT
0100f1a0 l     O .text1	00000002 SERVICE_GENERIC_ACC
0100f1a4 l     O .text1	00000002 CHRCTR_DEVICE_NAME
0100f1a8 l     O .text1	00000009 device_name
0100f1b4 l     O .text1	00000002 CHRCTR_APPEARANCE
0100f1b8 l     O .text1	00000002 appearance_value
0100f1bc l     O .text1	00000002 CHRCTR_PPCP
0100f1c0 l     O .text1	00000008 ppcp_value
0100f1c8 l     O .text1	00000002 CHRCTR_CARN
0100f1cc l     O .text1	00000001 carn_value
0100f1d0 l     O .text1	00000002 SERVICE_DEVICE_INFO
0100f1d4 l     O .text1	00000002 CHRCTR_PNP_ID
0100f1d8 l     O .text1	00000007 pnp_id_value
0100f1e0 l     O .text1	00000002 CHRCTR_MANUFACTURE_NAME
0100f1e4 l     O .text1	0000000a manufacture_name_value
0100f1f0 l     O .text1	00000002 CHRCTR_SOFTWARE
0100f1f4 l     O .text1	00000011 software_value
0100f208 l     O .text1	00000002 CHRCTR_HARDWARE
0100f20c l     O .text1	00000011 hardware_value
0100f220 l     O .text1	00000002 CHRCTR_FIRMWARE
0100f224 l     O .text1	00000011 firmware_value
0100f238 l     O .text1	00000002 CHRCTR_SERIAL_NUMBER
0100f23c l     O .text1	0000000f serial_number_value
0100f24c l     O .text1	00000002 CHRCTR_MODEL_NUMBER
0100f250 l     O .text1	0000000d model_number_value
0100f260 l     O .text1	00000002 CHRCTR_SYSTEM_ID
0100f264 l     O .text1	00000008 system_id_value
0100f26c l     O .text1	00000002 CHRCTR_IEEE
0100f270 l     O .text1	00000012 system_ieee_value
0100f284 l     O .text1	00000002 SERVICE_BATTERY
0100f288 l     O .text1	00000002 CHRCTR_BATTERY_LEVEL
0100f28c l     O .text1	00000002 CHRCTR_BATTERY_value
10010190 l     O .data	00000001 battery_leval_value
10010cac l     O .bss	00000002 battery_ccc
0100f290 l     O .text1	00000002 SERVICE_SCAN_PARAM
0100f294 l     O .text1	00000002 CHRCTR_SCAN_INTERVAL_WINDOW
10010cb0 l     O .bss	00000002 scan_param_value
0100f298 l     O .text1	00000002 CHRCTR_SCAN_REFRESH
0100f29c l     O .text1	00000002 scan_refresh_val
0100f2a0 l     O .text1	00000002 scan_refresh_ccc
0100f2a4 l     O .text1	00000002 SERVICE_HIDS
0100f2a8 l     O .text1	00000002 CHRCTR_HID_CTRL_POINT
10010cb4 l     O .bss	00000001 hid_ctrl_point_value
0100f2ac l     O .text1	00000002 CHRCTR_HID_PROTOCOL_MODE
0100f2b0 l     O .text1	00000001 hid_protocol_mode
0100f2b4 l     O .text1	00000002 CHRCTR_HID_INFO
0100f2b8 l     O .text1	00000004 hid_info_value
0100f2bc l     O .text1	00000002 CHRCTR_REPORT_MAP
0100f2c0 l     O .text1	00000047 report_map_value
0100f308 l     O .text1	00000002 CHRCTR_REPORT
0100f30c l     O .text1	00000002 report1_rr
0100f310 l     O .text1	00000002 report2_rr
0100f314 l     O .text1	00000002 report3_rr
0100f318 l     O .text1	00000002 report4_rr
0100f31c l     O .text1	00000002 report5_rr
10010cb8 l     O .bss	00000002 report1_ccc
10010cbc l     O .bss	00000002 report3_ccc
10010cc0 l     O .bss	00000002 report4_ccc
10010cc4 l     O .bss	00000002 report_value
10010cc8 l     O .bss	00000002 report1_usr_desc
10010ccc l     O .bss	00000002 report2_usr_desc
10010cd0 l     O .bss	00000002 report3_usr_desc
10010cd4 l     O .bss	00000002 report4_usr_desc
10010cd8 l     O .bss	00000002 report5_usr_desc
0100f320 l     O .text1	00000010 Unknown_Service_D1FF
0100f330 l     O .text1	00000002 CHRCTR_A001
10010cdc l     O .bss	00000002 chrctr_a001_ccc
0100f334 l     O .text1	00000001 chrctr_a0_01_value
0100f338 l     O .text1	00000010 Unknown_Service_D0FF
0100f348 l     O .text1	00000002 CHRCTR_FF_D1
0100f34c l     O .text1	00000002 CHRCTR_FF_D2
0100f350 l     O .text1	00000002 CHRCTR_FF_D3
0100f354 l     O .text1	00000002 CHRCTR_FF_D4
0100f358 l     O .text1	00000002 CHRCTR_FF_D5
0100f35c l     O .text1	00000002 CHRCTR_FF_D8
0100f360 l     O .text1	00000002 CHRCTR_FF_F1
0100f364 l     O .text1	00000002 CHRCTR_FF_F2
0100f368 l     O .text1	00000002 CHRCTR_FF_E0
0100f36c l     O .text1	00000001 READ_WRITE_WITHOUT_RESPONSE_NOTIFY_PREMITTED
0100f370 l     O .text1	00000002 OTA_SERVICE
0100f374 l     O .text1	00000002 CHRCTR_OTA_NOTIFY
0100f378 l     O .text1	00000002 CHRCTR_OTA_WRITE
10010ce0 l     O .bss	00000002 chrctr_ota_ccc
0100f37c l     O .text1	00000001 NOTIFY_READ_WRITE_WITHOUT_RESPONSE_PREMITTED
0100f380 l     O .text1	00000010 factory_primary_uuid
0100f390 l     O .text1	00000010 factory_characteristic_uuid
0100f3a0 l     O .text1	00000004 product_id_s
00000000 l    df *ABS*	00000000 SecretKey.c
0100fa54 l     O .text1	00000018 s_crcInfoTab
0100fa6c l     O .text1	00000010 PublicKey_1228
0100fa7c l     O .text1	00000010 PublicKey_3527
0100fa8c l     O .text1	00000010 PublicKey_5815
10010194 l     O .data	0000000c PublicKey
0100c290 l     F .text1	00000026 BitsReverse
0100c2b6 l     F .text1	0000008a GetCRC
00000000 l    df *ABS*	00000000 muldf3.c
00000000 l    df *ABS*	00000000 fixunsdfsi.c
00000000 l    df *ABS*	00000000 floatsidf.c
00000000 l    df *ABS*	00000000 libgcc2.c
00000000 l    df *ABS*	00000000 memcmp.c
00000000 l    df *ABS*	00000000 memcpy.c
00000000 l    df *ABS*	00000000 rand.c
00000000 l    df *ABS*	00000000 send_key.c
00000000 l    df *ABS*	00000000 libgcc2.c
00000000 l    df *ABS*	00000000 impure.c
100101a0 l     O .data	00000428 impure_data
01000200  w    F .text	00000004 GPIO_IRQHandler
0100473a g     F .text1	0000000e Bt_HciGetUsedBufferNum
0100b942 g     F .text1	0000006e Read_Blob_Parse
10010ce4 g     O .bss	00000002 gHaltLogFlag
01003b22 g     F .text1	00000014 prefetch
01002d96 g     F .text1	00000036 AUDIO_AdcHPFInit
10010d56 g     O .bss	00000001 encode_onoff
01001dda g     F .text1	00000040 swtimer_stop
0100a016 g     F .text1	00000032 check_mouse_chip_id
01001152 g     F .text1	000000c6 init_debugUart
10013160 g     O .noretention0	00000100 prepareRcv
010096a2 g     F .text1	000001d8 EncPacking
0100478a g     F .text1	00000126 Bt_SndToBtData
0100548e g     F .text1	0000005c Flash_UpdateFlashRecordInfo
10010d86 g       .bss	00000000 _retention_end
0100a1e2 g     F .text1	0000006e IIC_ReadByte
0100f160 g     O .text1	00000002 SERVICE_CHANGED
0100ca50 g     F .text1	00000028 .hidden __riscv_save_8
01006dd8 g     F .text1	00000022 vbat_reinit
01000200  w    F .text	00000004 PWM5_IRQHandler
01004042 g     F .text1	00000058 System_LdoCoreVsel
010044b6 g     F .text1	0000004c PWM_Config
01003f24 g     F .text1	0000005c qspi0_flash_arealock
01004d74 g     F .text1	00000048 QSPI_FlashWriteLock
100106c0 g     O .bss	00000004 gpHciDataFifo
0100a0a2 g     F .text1	0000000a get_axis_moving_state
010019e6 g     F .text1	0000000c CoreReg_LpmWrite2LdoControl
01004f50 g     F .text1	00000036 bt_renew_scan_rsp
0100bdd4 g     F .text1	00000062 ENCRYPT_DONE
0100543a g     F .text1	00000054 Flash_LoadFlashRecord
01002dcc g     F .text1	00000016 AUDIO_AdcHPFEnable
0100b8b4 g     F .text1	00000064 start_adv
0100ca9c g     F .text1	0000000c .hidden __riscv_restore_3
010068bc g     F .text1	0000002a app_queue_reset
0100a56a g     F .text1	00000028 encode_timer_deinit
0100b7ea g     F .text1	00000044 mouse_switch
01003514 g     F .text1	000001d8 AUDIO_AdcAnaVcomConfig
0100b890 g     F .text1	00000024 update_conn_param
10013000 g     O .noretention0	00000032 uarttxbuf
01000200  w    F .text	00000004 PWM1_IRQHandler
010019d6 g     F .text1	00000010 CoreReg_LpmWrite2
01001e8e g     F .text1	00000060 swtimer_add
0100cfb0 g     O .text1	000001b8 g_adc_halfbandcoeftablel
0100ca88 g     F .text1	00000020 .hidden __riscv_restore_10
01001b5a g     F .text1	0000000c SYS_RESET
0100bf74 g     F .text1	0000008e Dev_PowerOn
0100fbd8 g       .text1	00000000 _sidata
010010d6 g     F .text1	0000007c uart_txChar
010074ec g     F .text1	0000000a set_key_press_state
10010000 g     O .data	0000000c gWdtInit
0100bef4 g     F .text1	00000080 Dev_WakeUp
01000200  w    F .text	00000004 NMI_Handler
01000200  w    F .text	00000004 UART_IRQHandler
0100a250 g     F .text1	0000006c IIC_SendByte
0100c15e g     F .text1	0000002e Find_AttTable_ByHandle
010050f4 g     F .text1	00000014 bt_set_le_mtu_size
01000200  w    F .text	00000004 SBC_ERR1_IRQHandl
0100ca50 g     F .text1	00000028 .hidden __riscv_save_11
01006ae0 g     F .text1	0000000e app_sleep_check
01001e1a g     F .text1	00000074 swtimer_start
01004378 g     F .text1	00000018 Lpm_SleepWork
010067c4 g     F .text1	00000088 app_queue_insert
100105cc g       .bss	00000000 _sbss
010043be g     F .text1	00000096 Lpm_PollingWork
01009fbc g     F .text1	00000024 mouse_reinit
01003ffa g     F .text1	00000048 SysTick_IrqInit
010032e0 g     F .text1	00000234 AUDIO_AdcAnaSEWithCapacitor
0100b9b0 g     F .text1	000000b6 Read_Parse
01001758 g     F .text1	00000030 print_string_log
0100c18c g     F .text1	00000072 Find_AttTable_ByHandleRange_Type
01005118 g     F .text1	00000010 bt_enable_le_tx_md
010051a4 g     F .text1	00000022 bt_set_connect_lpm_period
01005162 g     F .text1	00000010 bt_enable_le_latecy
0100ca9c g     F .text1	0000000c .hidden __riscv_restore_2
01000200  w    F .text	00000004 SBC_ERR0_IRQHandl
01004454 g     F .text1	0000002e Lpm_unLockLpm
01004f3e g     F .text1	00000012 bt_update_dle
01000200  w    F .text	00000004 UARTB_IRQHandler
0100a2bc g     F .text1	00000044 IIC_Stop
0100a592 g     F .text1	00000018 get_encode_chk_ok_state
0100ae90 g     F .text1	00000010 set_kvcmd_state
01003ab6 g     F .text1	00000028 IWDG_SetReload
0100c1fe g     F .text1	00000092 Find_AttTable_ByHandleRange_Type_Data
01006692 g     F .text1	00000132 ATT_Parse
0100cb0a g     F .text1	000000ba memcpy
010086ea g     F .text1	000001b2 ir_type_init
01000200  w    F .text	00000004 PWM3_IRQHandler
0100987a g     F .text1	0000000a get_acc_lsb_div
010041ba g     F .text1	00000018 RV_TM_IRQHandler
01000200  w    F .text	00000004 IIS_IRQHandler
0100c9dc g     F .text1	0000006c .hidden __floatsidf
0100514c g     F .text1	00000016 bt_send_le_disconnect
0100432c g     F .text1	0000004c TIM_Cmd
01005196 g     F .text1	0000000e bt_set_lpm_overhead_wake_time
01005768 g     F .text1	00000026 Bt_ClearLinkkey
01006640 g     F .text1	00000052 ATT_sendNotify
01001218 g     F .text1	0000000a debugUart_pollTx
01002906 g     F .text1	0000032a AUDIO_AdcInit
010074f6 g     F .text1	00000020 set_pwm_freq_div
0100c002 g     F .text1	0000001c app_task_run
0100c940 g     F .text1	0000009c .hidden __fixunsdfsi
0100ca48 g     F .text1	00000030 .hidden __riscv_save_12
10010d58 g     O .bss	00000002 chrctr_cfbf_04_value
0100371e g     F .text1	00000050 GPIO_Init
10010d5c g     O .bss	00000002 chrctr_ff_d1_value
0100eb54 g     O .text1	00000027 IRKeyBuf
0100409a g     F .text1	00000040 System_ChangeDPLL
0100ca88 g     F .text1	00000020 .hidden __riscv_restore_11
10010000 g       .data	00000000 _sdata
01008d22 g     F .text1	0000001a voice_report_reinit
01004106 g     F .text1	0000005e System_WorkClockGet
0100ca78 g     F .text1	0000000c .hidden __riscv_save_1
01005128 g     F .text1	0000000a bt_get_le_state
0100ca9c g     F .text1	0000000c .hidden __riscv_restore_0
01001396 g     F .text1	000000fa print_log_to_uart
0100ca5e g     F .text1	0000001a .hidden __riscv_save_7
01009442 g     F .text1	00000022 SbcAnalysisInit
01001a96 g     F .text1	00000044 Audio_AdcDSMDIV_11MConfig
01004390 g     F .text1	0000000a Lpm_GetWakeFlag
01004558 g     F .text1	00000116 App_EvtAAPCallBack
0100513c g     F .text1	00000010 bt_check_le_connected
0100a0ee g     F .text1	0000004a IIC_NAck
01006aee g     F .text1	0000011c app_sleep_lock_set
01001948 g     F .text1	0000000a SetReleaseLpmWriteReg
010074e2 g     F .text1	0000000a get_key_press_state
01000200  w    F .text	00000004 BT_IRQHandler
010055a6 g     F .text1	0000016a Bt_EvtCallBack
10010d08 g     O .bss	0000000a gFacStoreinfo
0100ca92 g     F .text1	00000016 .hidden __riscv_restore_5
01004f1a g     F .text1	00000012 bt_update_mtu
01001f02 g     F .text1	0000001c software_timer_start
01004906 g     F .text1	0000002c Bt_BleSendData
01005132 g     F .text1	0000000a bt_set_le_state
01001d94 g     F .text1	00000046 swtimer_restart
0100439a g     F .text1	00000024 Lpm_CheckLpmFlag
010023aa g     F .text1	00000160 IPC_IsRxBuffEmpty
01005240 g     F .text1	00000180 Bt_SaveBleDeviceInfoToFlash
10010d60 g     O .bss	00000002 chrctr_ff_d2_value
0100f15c g     O .text1	00000002 GATT_CHARACTERISTIC
0100a53a g     F .text1	00000030 encode_timer_init
01004c5c g     F .text1	00000050 QSPI_SectorEraseFlash
01003ade g     F .text1	0000000a IWDG_ReloadCounter
0100578e g     F .text1	0000003a Bt_ClearRemoteDevInfo
010028ea g     F .text1	00000012 IpcDefaultCallBack
0100bec2 g     F .text1	00000032 LE_CONNECTED
01003092 g     F .text1	0000024e AUDIO_AdcAnaSENoCapacitor
0100ca92 g     F .text1	00000016 .hidden __riscv_restore_6
01007692 g     F .text1	00000102 ir_send
010048b0 g     F .text1	00000056 Bt_SndDataToRespin
01005108 g     F .text1	00000010 bt_disable_le_tx_md
01001a68 g     F .text1	0000002e Audio_AdcDSMDIV_12MEnable
10014474 g       .noretention	00000000 _ebss
0100a138 g     F .text1	0000004a IIC_Ack
010001d8 g       .text	00000000 lpo_delay
0100508c g     F .text1	00000068 bt_le_conn_updata_param_req
01006a14 g     F .text1	00000072 prepare_before_sleep
01000200  w    F .text	00000004 SPI_IRQHandler
01000200  w    F .text	00000004 DEB_IRQHandler
010046f6 g     F .text1	00000044 Bt_HciFifoOut
01008d3c g     F .text1	00000016 voice_report_init
10010d64 g     O .bss	00000002 chrctr_ff_f2_value
010027f8 g     F .text1	0000006a IPC_TxAclCmd
01003ea4 g     F .text1	00000024 qspi0_flash_sectorerase
010073d0 g     F .text1	000000bc led_on
01009f2a g     F .text1	00000020 mouse_turn_off
10010d51 g     O .bss	00000001 prepareLen
0100be4c g     F .text1	00000036 PAIR_DONE
01005ad2 g     F .text1	0000001e OTA_RESET
01004502 g     F .text1	00000018 PWM_DisConfig
01008d52 g     F .text1	000000a4 SBC_Encoder
0100ca50 g     F .text1	00000028 .hidden __riscv_save_9
10010d68 g     O .bss	00000002 chrctr_cfbf_03_value
0100be36 g     F .text1	00000016 PAIR_FAIL
10013320 g     O .noretention0	0000000c led
0100ca5e g     F .text1	0000001a .hidden __riscv_save_4
0100b840 g     F .text1	00000016 action_after_mic_close
10014470 g     O .noretention	00000004 voice_status
01001c7a g     F .text1	00000046 Memory_Free
01004c00 g     F .text1	0000005c QSPI_WriteFlashData
01008e0c g     F .text1	00000026 msbc_encode_process
0100aea0 g     F .text1	00000014 clr_kvcmd_state
01003f80 g     F .text1	00000026 qspi0_flashwrite_lock
01001bb2 g     F .text1	000000c8 Memory_Malloc
010057c8 g     F .text1	000001ce Bt_UpdateDeviceNvdataInfo
010046b0 g     F .text1	00000046 Bt_HciFifoIn
01000200  w    F .text	00000004 PWM2_IRQHandler
01002c30 g     F .text1	00000138 AUDIO_AdcFilterInit
0100ba66 g     F .text1	00000322 Write_DataParse
01002d82 g     F .text1	00000014 AUDIO_AdcStop
010086a6 g     F .text1	00000044 ir_single_send
0100cdb8 g     O .text1	000001f8 g_adc_cicfircoeffTtablel
01004dbc g     F .text1	00000072 bt_check_save_connect_info
0100caa8 g     F .text1	0000003c .hidden __clzsi2
01005728 g     F .text1	00000024 Bt_ClearFastPaired
01001222 g     F .text1	00000032 yichip_debug_uart_protocol
0100451a g     F .text1	0000003e App_AAPSwichModeRsp
0100ca78 g     F .text1	0000000c .hidden __riscv_save_3
01009d2c g     F .text1	0000002c mouse_lpm_int_mode
010010ba g     F .text1	0000001c uart_txBuffer
010019f2 g     F .text1	0000000e CoreReg_LpmWrite2IceWdtLongRst
10010040 g     O .data	00000004 gpRecinfo
01003ec8 g     F .text1	0000002c qspi0_flash_write
0100150c g     F .text1	0000024c print_string_log_raw
01004748 g     F .text1	00000034 Bt_HciCheckBufferFull
01000200  w    F .text	00000004 Default_Handler
010074a2 g     F .text1	00000012 led_deinit
0100a0ac g     F .text1	00000042 EulerAngle_Calculate_ReStart
0100a5c6 g     F .text1	0000000c encode_off
0100f158 g     O .text1	00000002 GATT_INCLUDE
0100cc7e g     F .text1	0000004c rand
01009f4a g     F .text1	0000000a mouse_off
0100684c g     F .text1	00000070 app_queue_task
0100748c g     F .text1	00000016 led_reinit
01000200  w    F .text	00000004 QSPI1_IRQHandler
0100d330 g     O .text1	0000000d AAP_StartAnc2
01004176 g     F .text1	00000044 SysTick_DelayUs
10010d54 g     O .bss	00000002 EncMaxShiftCounter
01000200  w    F .text	00000004 ADC_IRQHandler
01006dfa g     F .text1	00000020 vbat_deinit
0100477c g     F .text1	0000000e Bt_HciWaitBufferElement
0100250a g     F .text1	000001ee IPC_TxBufferIsEnough
01002862 g     F .text1	00000088 IPC_HandleRxPacket
0100c340 g     F .text1	0000004a SecretKey_Generate
01001eee g     F .text1	00000014 software_timer_stop
01001490 g     F .text1	00000048 print_string_to_uart
0100518c g     F .text1	0000000a bt_set_tx_power
10010d6c g     O .bss	00000002 chrctr_ff_e0_value
01006ad0 g     F .text1	00000010 enter_low_sleep
0100eb90 g     O .text1	0000000a cmd_mic_close
01001254 g     F .text1	00000142 init_print_log
0100a368 g     F .text1	00000028 IIC_CheckDevice
010088ec g     F .text1	00000022 get_ir_customer
01000200  w    F .text	00000004 PWM4_IRQHandler
01004e2e g     F .text1	00000088 bt_state_init
0100cae4 g     F .text1	00000026 memcmp
0100a300 g     F .text1	00000044 IIC_Start
0100724a g     F .text1	0000007e keyscan_init
01000200  w    F .text	00000004 USB_IRQHandler
01001a00 g     F .text1	00000024 CoreReg_LpmGetIceWdtLongRst
01003ef4 g     F .text1	00000030 qspi0_flash_read
01000200  w    F .text	00000004 IIC_IRQHandler
01005712 g     F .text1	00000016 Bt_CheckIsPaired
0100a776 g     F .text1	00000014 clr_app_rpt_timeout_type
01001ada g     F .text1	0000002e Audio_AdcDSMDIV_11MEnable
01001862 g     F .text1	00000002 _assert_handler
010036ec g     F .text1	00000032 AUDIO_AdcAnaStop
01000200  w    F .text	00000004 IICD1_IRQHandler
0100c38a g     F .text1	000005b6 .hidden __muldf3
0100ca50 g     F .text1	00000028 .hidden __riscv_save_10
01008e68 g     F .text1	0000015a sbc_enc_bit_alloc_mono
01001814 g     F .text1	00000022 NVIC_Configuration
0100ca92 g     F .text1	00000016 .hidden __riscv_restore_4
01000200  w    F .text	00000004 PWM7_IRQHandler
0100ca88 g     F .text1	00000020 .hidden __riscv_restore_8
01004f08 g     F .text1	00000012 bt_send_security_request
01007590 g     F .text1	0000004a ir_pwm_send
01004eb6 g     F .text1	0000003e bt_set_local_dle
0100ca5e g     F .text1	0000001a .hidden __riscv_save_6
0100be82 g     F .text1	00000040 LE_DISCONNECTED
0100eb7c g     O .text1	00000013 cmd_test
01003fd2 g     F .text1	00000028 SysTick_TimerGet1usTicks
01001918 g     F .text1	00000030 SetLockLpmWriteReg
0100c01e g     F .text1	00000140 app_init
0100278e g     F .text1	0000006a IPC_TxControlCmd
10010d70 g     O .bss	00000002 chrctr_ff_d8_value
0100cbc4 g     F .text1	000000a8 memset
0100ca88 g     F .text1	00000020 .hidden __riscv_restore_9
01005172 g     F .text1	0000001a bt_set_adv_random
01004932 g     F .text1	00000056 Bt_ParseRcvBLEPacket
0100ca92 g     F .text1	00000016 .hidden __riscv_restore_7
010010a2 g     F .text1	00000018 main
01009884 g     F .text1	0000000a get_gyro_lsb_div
01000200  w    F .text	00000004 SDMA_IRQHandler
01005710 g     F .text1	00000002 Bt_BleCallBack
01001f2c g     F .text1	0000005a MedianFilter
10010ce6 g     O .bss	00000002 gHaltLogValue
01004ef4 g     F .text1	0000000a bt_set_ce_length_num
0100cc6c g     F .text1	00000012 srand
010059d6 g     F .text1	0000002c Bt_ClearNvdataItem
01004f86 g     F .text1	00000106 bt_start_le_adv
01007516 g     F .text1	00000058 ir_set_freq
01000200  w    F .text	00000004 WDT_IRQHandler
0100a5d2 g     F .text1	00000018 get_VoiceHandle
0100a766 g     F .text1	00000010 set_app_rpt_timeout_type
010049a0 g     F .text1	0000007a Bt_ParseRcvSPPPacket
01001b08 g     F .text1	00000030 Audio_ClkInit
0100a344 g     F .text1	00000024 IIC_Init
10010cec g     O .bss	00000002 gOsEnterCriticalCnt
10010d52 g     O .bss	00000001 prepareHandle
0100ae76 g     F .text1	0000001a set_frame_seq_val
0100a5ea g     F .text1	00000054 factory_WriteDataParse
01004a1a g     F .text1	00000158 Bt_DataBufferCallBack
010017b4 g     F .text1	0000002c RV_DisableIRQ
01006a86 g     F .text1	0000004a enter_deep_sleep
01004f2c g     F .text1	00000012 bt_update_slave_feature
01001b38 g     F .text1	00000022 wait_lpodelay
10010d74 g     O .bss	00000002 chrctr_ff_d4_value
01000180  w    F .text	00000000 trap
01009f54 g     F .text1	0000002e mouse_on
01004988 g     F .text1	00000018 Bt_ParseBLEL2capPacket
01004cac g     F .text1	000000c8 QSPI_WritePageFlashData
01000200  w    F .text	00000004 QSPI2_IRQHandler
01001896 g     F .text1	00000082 CoreReg_ClkControl
01004efe g     F .text1	0000000a bt_set_auth_for_security_req
0100a048 g     F .text1	0000005a get_mouse_int_state
0100889c g     F .text1	00000030 ir_init
0100fad8 g     O .text1	00000100 .hidden __clz_tab
10010058 g     O .data	00000001 mouse_report_timernum
01005af0 g     F .text1	00000312 OTA_EVT_HANDLE
01002de2 g     F .text1	0000002a AUDIO_AdcHPFClr
01004482 g     F .text1	0000002a Lpm_LockLpm
0100738a g     F .text1	00000046 led_off
01009f82 g     F .text1	0000003a mouse_turn_on
01003826 g     F .text1	00000290 GPIO_WakeUp
10010d78 g     O .bss	00000002 chrctr_ff_d5_value
0100ea68 g     O .text1	000000ea KeyBuf
100105c8 g     O .data	00000004 _impure_ptr
0100890e g     F .text1	00000022 get_ir_brand
01000200  w    F .text	00000004 PWM0_IRQHandler
01008fc2 g     F .text1	00000480 SbcAnalysisFilter8
10010d7c g     O .bss	00000002 chrctr_ff_d3_value
0100466e g     F .text1	00000042 Bt_HciFifo_Init
0100b918 g     F .text1	0000002a stop_adv
0100224a g     F .text1	00000160 IPC_IsTxBuffEmpty
010000a8  w    F .text	00000000 Default_IRQHandler
01004164 g     F .text1	00000012 SysTick_DelayMs
10010be4 g     O .bss	00000001 g_factorymode
0100009e g       .text	00000000 enable_mie
010028fc g     F .text1	0000000a IPC_Init
010054ea g     F .text1	000000bc Bt_ReadAddrFromFlash
010074b4 g     F .text1	0000002e led_init
0100ca78 g     F .text1	0000000c .hidden __riscv_save_2
01000200  w    F .text	00000004 HOST_IRQHandler
010053c0 g     F .text1	00000050 Flash_CheckFlashRecordCRC
0100b82e g     F .text1	00000012 action_after_led_blk
01009464 g     F .text1	0000023e SBC_FastIDCT8
01008df6 g     F .text1	00000016 SBC_Encoder_Init
01004bac g     F .text1	00000054 QSPI_ReadFlashData
0100ca5e g     F .text1	0000001a .hidden __riscv_save_5
100105cc g       .data	00000000 _edata
010040da g     F .text1	0000002c System_ChangeXtal24M
010026f8 g     F .text1	00000096 IPC_TxCommon
010014d8 g     F .text1	00000034 print_string
010068e8  w    F .text1	00000002 action_after_enter_deep_sleep
0100f3a4 g     O .text1	000006b0 Att_List
01008bf2 g     F .text1	0000005e mic_close
010041d2 g     F .text1	0000015a TIM_Init
10010ce8 g     O .bss	00000004 txptr
0100a182 g     F .text1	00000060 IIC_WaitAck
01001864 g     F .text1	00000032 xramcmp
01007186 g     F .text1	00000074 key_wakeup_set
01008e32 g     F .text1	00000036 msbc_encoder_init
010044ac g     F .text1	0000000a Lpm_EnableSet
01001f1e g     F .text1	0000000e Bt_SndCmdPwroff
01006c76 g     F .text1	00000030 app_sleep_init
0100bd88 g     F .text1	0000004c CONN_PARAM_ACCEPTED
01004ba2 g     F .text1	0000000a SetReleaseQSPI
01009fe0 g     F .text1	00000036 mouse_init
01006c0a g     F .text1	0000006c app_sleep_timer_set
01008930  w    F .text1	00000002 tx_power_switch_set
0100864e g     F .text1	00000058 ir_comm_send
10010d80 g     O .bss	00000002 chrctr_cfbf_02_value
01007128 g     F .text1	0000005e key_wakeup_get
01000200  w    F .text	00000004 DMA_IRQHandler
10013034 g     O .noretention0	00000002 uartrxbuf
0100a89c g     F .text1	00000110 update_voice_packet
010017e0 g     F .text1	00000034 RV_SetPriority
0100ca84 g     F .text1	00000024 .hidden __riscv_restore_12
01000200  w    F .text	00000004 SD_IRQHandler
01003ae8 g     F .text1	0000003a IWDG_Disable
01001952 g     F .text1	00000084 CoreReg_LpmWriteCommon
01001836 g     F .text1	0000002c xmemcpy
10010d57 g     O .bss	00000001 encode_state
0100ca78 g     F .text1	0000000c .hidden __riscv_save_0
0100a63e g     F .text1	0000004a factory_KeyProcess
01001788 g     F .text1	0000002c RV_EnableIRQ
01000200  w    F .text	00000004 WDT2_IRQHandler
0100a5aa g     F .text1	0000001c encode_on
010088cc g     F .text1	00000020 get_ir_rpt
01006620 g     F .text1	00000020 ATT_Send
01005996 g     F .text1	00000040 Bt_ClearDeviceNvdataInfo
0100f154 g     O .text1	00000002 PRIMARY_SERVICE
010051c6 g     F .text1	0000007a bt_dynamic_switch_power
01007212 g     F .text1	00000038 keyscan_start
1001d800 g       .noretention	00000000 _stack
0100574c g     F .text1	0000001c Bt_ClearAddrToFlash
01000200  w    F .text	00000004 QSPI_IRQHandler
0100e938 g     O .text1	00000040 sbc_enc_as16Offset8
01002d68 g     F .text1	0000001a AUDIO_AdcDmaSet
01002e0c g     F .text1	00000050 AUDIO_AdcVolConfig
01000200  w    F .text	00000004 PWM6_IRQHandler
01000200  w    F .text	00000004 FFT_IRQHandler
0100ca9c g     F .text1	0000000c .hidden __riscv_restore_1
01001cc0 g     F .text1	0000003c Memory_InitHeap
0100756e g     F .text1	00000022 ir_gpio_send
0100376e g     F .text1	000000b8 GPIO_ReadDataBit
10010cf0 g     O .bss	00000018 gHciDataDebug
10010d14 g     O .bss	0000003d gRecinfo
010001de  w    F .text	00000000 trap_c
01002e5c g     F .text1	00000236 AUDIO_AdcAnaDiffConfig
10010d84 g     O .bss	00000002 chrctr_ff_f1_value
01000096 g       .text	00000000 disable_mie
010071fa g     F .text1	00000018 keyscan_stop
01005410 g     F .text1	0000002a Flash_CalFlashRecordCRC
0100b856 g     F .text1	0000003a LE_LTK_LOST
01009d04 g     F .text1	00000028 mouse_int_mode
01001a24 g     F .text1	00000044 Audio_AdcDSMDIV_12MConfig
01004b72 g     F .text1	00000030 SetLockQSPI
01006e1a g     F .text1	00000048 vbat_init
01003fa6 g     F .text1	0000002c SysTick_Config
010068e6  w    F .text1	00000002 action_after_prepare_sleep
01008c50 g     F .text1	000000d2 mic_open



Disassembly of section .text:

01000000 <__EN_MIE-0x7e>:
 1000000:	0f01e117          	auipc	sp,0xf01e
 1000004:	80010113          	addi	sp,sp,-2048 # 1001d800 <_stack>
 1000008:	00000517          	auipc	a0,0x0
 100000c:	17850513          	addi	a0,a0,376 # 1000180 <trap>
 1000010:	00156513          	ori	a0,a0,1
 1000014:	30551073          	csrw	mtvec,a0
 1000018:	6299                	lui	t0,0x6
 100001a:	3002a073          	csrs	mstatus,t0
 100001e:	00301073          	fssr	zero
 1000022:	100042b7          	lui	t0,0x10004
 1000026:	4d228293          	addi	t0,t0,1234 # 100044d2 <_sidata+0xeff48fa>
 100002a:	4305                	li	t1,1
 100002c:	00028283          	lb	t0,0(t0)
 1000030:	04628763          	beq	t0,t1,100007e <__EN_MIE>
 1000034:	00010517          	auipc	a0,0x10
 1000038:	ba450513          	addi	a0,a0,-1116 # 100fbd8 <_sidata>
 100003c:	0f010597          	auipc	a1,0xf010
 1000040:	fc458593          	addi	a1,a1,-60 # 10010000 <gWdtInit>
 1000044:	0f010617          	auipc	a2,0xf010
 1000048:	58860613          	addi	a2,a2,1416 # 100105cc <_edata>
 100004c:	00c5fa63          	bgeu	a1,a2,1000060 <__EN_MIE-0x1e>
 1000050:	00052283          	lw	t0,0(a0)
 1000054:	0055a023          	sw	t0,0(a1)
 1000058:	0511                	addi	a0,a0,4
 100005a:	0591                	addi	a1,a1,4
 100005c:	fec5eae3          	bltu	a1,a2,1000050 <__EN_MIE-0x2e>
 1000060:	0f010517          	auipc	a0,0xf010
 1000064:	56c50513          	addi	a0,a0,1388 # 100105cc <_edata>
 1000068:	0f014597          	auipc	a1,0xf014
 100006c:	40c58593          	addi	a1,a1,1036 # 10014474 <_ebss>
 1000070:	00b57763          	bgeu	a0,a1,100007e <__EN_MIE>
 1000074:	00052023          	sw	zero,0(a0)
 1000078:	0511                	addi	a0,a0,4
 100007a:	feb56de3          	bltu	a0,a1,1000074 <__EN_MIE-0xa>

0100007e <__EN_MIE>:
__EN_MIE():
 100007e:	000012b7          	lui	t0,0x1
 1000082:	80028293          	addi	t0,t0,-2048 # 800 <__EN_MIE-0xfff87e>
 1000086:	3042a073          	csrs	mie,t0
 100008a:	42a1                	li	t0,8
 100008c:	3002a073          	csrs	mstatus,t0
 1000090:	012010ef          	jal	ra,10010a2 <main>

01000094 <__exit>:
__exit():
 1000094:	a001                	j	1000094 <__exit>

01000096 <disable_mie>:
disable_mie():
 1000096:	30047073          	csrci	mstatus,8
 100009a:	30200073          	mret

0100009e <enable_mie>:
enable_mie():
 100009e:	30046073          	csrsi	mstatus,8
 10000a2:	30200073          	mret
 10000a6:	0001                	nop

010000a8 <Default_IRQHandler>:
Default_IRQHandler():
 10000a8:	715d                	addi	sp,sp,-80
 10000aa:	c006                	sw	ra,0(sp)
 10000ac:	c212                	sw	tp,4(sp)
 10000ae:	c416                	sw	t0,8(sp)
 10000b0:	c61a                	sw	t1,12(sp)
 10000b2:	c81e                	sw	t2,16(sp)
 10000b4:	ca2a                	sw	a0,20(sp)
 10000b6:	cc2e                	sw	a1,24(sp)
 10000b8:	ce32                	sw	a2,28(sp)
 10000ba:	d036                	sw	a3,32(sp)
 10000bc:	d23a                	sw	a4,36(sp)
 10000be:	d43e                	sw	a5,40(sp)
 10000c0:	d642                	sw	a6,44(sp)
 10000c2:	d846                	sw	a7,48(sp)
 10000c4:	da72                	sw	t3,52(sp)
 10000c6:	dc76                	sw	t4,56(sp)
 10000c8:	de7a                	sw	t5,60(sp)
 10000ca:	c0fe                	sw	t6,64(sp)
 10000cc:	341022f3          	csrr	t0,mepc
 10000d0:	34202373          	csrr	t1,mcause
 10000d4:	c296                	sw	t0,68(sp)
 10000d6:	c49a                	sw	t1,72(sp)
 10000d8:	00000297          	auipc	t0,0x0
 10000dc:	13828293          	addi	t0,t0,312 # 1000210 <isr_table>
 10000e0:	00020337          	lui	t1,0x20
 10000e4:	c0430313          	addi	t1,t1,-1020 # 1fc04 <__EN_MIE-0xfe047a>
 10000e8:	00032303          	lw	t1,0(t1)
 10000ec:	00231393          	slli	t2,t1,0x2
 10000f0:	929e                	add	t0,t0,t2
 10000f2:	0002a383          	lw	t2,0(t0)
 10000f6:	c69a                	sw	t1,76(sp)
 10000f8:	9382                	jalr	t2
 10000fa:	30047073          	csrci	mstatus,8
 10000fe:	4336                	lw	t1,76(sp)
 1000100:	000202b7          	lui	t0,0x20
 1000104:	c0428293          	addi	t0,t0,-1020 # 1fc04 <__EN_MIE-0xfe047a>
 1000108:	0062a023          	sw	t1,0(t0)
 100010c:	000022b7          	lui	t0,0x2
 1000110:	88028293          	addi	t0,t0,-1920 # 1880 <__EN_MIE-0xffe7fe>
 1000114:	3002a073          	csrs	mstatus,t0
 1000118:	4296                	lw	t0,68(sp)
 100011a:	4326                	lw	t1,72(sp)
 100011c:	34231073          	csrw	mcause,t1
 1000120:	34129073          	csrw	mepc,t0
 1000124:	4082                	lw	ra,0(sp)
 1000126:	4212                	lw	tp,4(sp)
 1000128:	42a2                	lw	t0,8(sp)
 100012a:	4332                	lw	t1,12(sp)
 100012c:	43c2                	lw	t2,16(sp)
 100012e:	4552                	lw	a0,20(sp)
 1000130:	45e2                	lw	a1,24(sp)
 1000132:	4672                	lw	a2,28(sp)
 1000134:	5682                	lw	a3,32(sp)
 1000136:	5712                	lw	a4,36(sp)
 1000138:	57a2                	lw	a5,40(sp)
 100013a:	5832                	lw	a6,44(sp)
 100013c:	58c2                	lw	a7,48(sp)
 100013e:	5e52                	lw	t3,52(sp)
 1000140:	5ee2                	lw	t4,56(sp)
 1000142:	5f72                	lw	t5,60(sp)
 1000144:	4f86                	lw	t6,64(sp)
 1000146:	6161                	addi	sp,sp,80
 1000148:	30200073          	mret
	...

01000180 <trap>:
trap():
 1000180:	1171                	addi	sp,sp,-4
 1000182:	c016                	sw	t0,0(sp)
 1000184:	342022f3          	csrr	t0,mcause
 1000188:	0402c463          	bltz	t0,10001d0 <.Interrupt>
 100018c:	0111                	addi	sp,sp,4
 100018e:	fa410113          	addi	sp,sp,-92
 1000192:	c006                	sw	ra,0(sp)
 1000194:	c20a                	sw	sp,4(sp)
 1000196:	c40e                	sw	gp,8(sp)
 1000198:	c612                	sw	tp,12(sp)
 100019a:	c816                	sw	t0,16(sp)
 100019c:	ca1a                	sw	t1,20(sp)
 100019e:	cc1e                	sw	t2,24(sp)
 10001a0:	ce22                	sw	s0,28(sp)
 10001a2:	d026                	sw	s1,32(sp)
 10001a4:	d22a                	sw	a0,36(sp)
 10001a6:	d42e                	sw	a1,40(sp)
 10001a8:	d632                	sw	a2,44(sp)
 10001aa:	d836                	sw	a3,48(sp)
 10001ac:	da3a                	sw	a4,52(sp)
 10001ae:	dc3e                	sw	a5,56(sp)
 10001b0:	de42                	sw	a6,60(sp)
 10001b2:	c0c6                	sw	a7,64(sp)
 10001b4:	c2f2                	sw	t3,68(sp)
 10001b6:	c4f6                	sw	t4,72(sp)
 10001b8:	c6fa                	sw	t5,76(sp)
 10001ba:	c8fe                	sw	t6,80(sp)
 10001bc:	34102573          	csrr	a0,mepc
 10001c0:	caaa                	sw	a0,84(sp)
 10001c2:	30002573          	csrr	a0,mstatus
 10001c6:	ccaa                	sw	a0,88(sp)
 10001c8:	850a                	mv	a0,sp
 10001ca:	014000ef          	jal	ra,10001de <trap_c>
 10001ce:	a001                	j	10001ce <trap+0x4e>

010001d0 <.Interrupt>:
.Interrupt():
 10001d0:	4282                	lw	t0,0(sp)
 10001d2:	0111                	addi	sp,sp,4
 10001d4:	ed5ff06f          	j	10000a8 <Default_IRQHandler>

010001d8 <lpo_delay>:
lpo_delay():
 10001d8:	157d                	addi	a0,a0,-1
 10001da:	fd7d                	bnez	a0,10001d8 <lpo_delay>
 10001dc:	8082                	ret

010001de <trap_c>:
trap_c():
 10001de:	0000006f          	j	10001de <trap_c>
 10001e2:	00000013          	nop
 10001e6:	00000013          	nop
 10001ea:	00000013          	nop
 10001ee:	00000013          	nop
 10001f2:	00000013          	nop
 10001f6:	00000013          	nop
 10001fa:	00000013          	nop
 10001fe:	0001                	nop

01000200 <ADC_IRQHandler>:
GPIO_IRQHandler():
 1000200:	0000006f          	j	1000200 <ADC_IRQHandler>
 1000204:	00000013          	nop
 1000208:	00000013          	nop
 100020c:	00000013          	nop

01000210 <isr_table>:
	...
isr_table():
 1000250:	0200                	addi	s0,sp,256
 1000252:	0100                	addi	s0,sp,128
 1000254:	0200                	addi	s0,sp,256
 1000256:	0100                	addi	s0,sp,128
 1000258:	0200                	addi	s0,sp,256
 100025a:	0100                	addi	s0,sp,128
 100025c:	0200                	addi	s0,sp,256
 100025e:	0100                	addi	s0,sp,128
 1000260:	0200                	addi	s0,sp,256
 1000262:	0100                	addi	s0,sp,128
 1000264:	0200                	addi	s0,sp,256
 1000266:	0100                	addi	s0,sp,128
 1000268:	0200                	addi	s0,sp,256
 100026a:	0100                	addi	s0,sp,128
 100026c:	0200                	addi	s0,sp,256
 100026e:	0100                	addi	s0,sp,128
 1000270:	0200                	addi	s0,sp,256
 1000272:	0100                	addi	s0,sp,128
 1000274:	0200                	addi	s0,sp,256
 1000276:	0100                	addi	s0,sp,128
 1000278:	0200                	addi	s0,sp,256
 100027a:	0100                	addi	s0,sp,128
 100027c:	0200                	addi	s0,sp,256
 100027e:	0100                	addi	s0,sp,128
 1000280:	0200                	addi	s0,sp,256
 1000282:	0100                	addi	s0,sp,128
 1000284:	0200                	addi	s0,sp,256
 1000286:	0100                	addi	s0,sp,128
 1000288:	0200                	addi	s0,sp,256
 100028a:	0100                	addi	s0,sp,128
 100028c:	0200                	addi	s0,sp,256
 100028e:	0100                	addi	s0,sp,128
 1000290:	0200                	addi	s0,sp,256
 1000292:	0100                	addi	s0,sp,128
 1000294:	0200                	addi	s0,sp,256
 1000296:	0100                	addi	s0,sp,128
 1000298:	0200                	addi	s0,sp,256
 100029a:	0100                	addi	s0,sp,128
 100029c:	0200                	addi	s0,sp,256
 100029e:	0100                	addi	s0,sp,128
 10002a0:	0200                	addi	s0,sp,256
 10002a2:	0100                	addi	s0,sp,128
 10002a4:	0200                	addi	s0,sp,256
 10002a6:	0100                	addi	s0,sp,128
 10002a8:	0200                	addi	s0,sp,256
 10002aa:	0100                	addi	s0,sp,128
 10002ac:	0200                	addi	s0,sp,256
 10002ae:	0100                	addi	s0,sp,128
 10002b0:	0200                	addi	s0,sp,256
 10002b2:	0100                	addi	s0,sp,128
 10002b4:	0200                	addi	s0,sp,256
 10002b6:	0100                	addi	s0,sp,128
 10002b8:	0200                	addi	s0,sp,256
 10002ba:	0100                	addi	s0,sp,128
 10002bc:	0200                	addi	s0,sp,256
 10002be:	0100                	addi	s0,sp,128
 10002c0:	0200                	addi	s0,sp,256
 10002c2:	0100                	addi	s0,sp,128
	...
 10002d0:	41ba                	lw	gp,140(sp)
 10002d2:	0100                	addi	s0,sp,128
 10002d4:	0200                	addi	s0,sp,256
 10002d6:	0100                	addi	s0,sp,128
 10002d8:	0200                	addi	s0,sp,256
 10002da:	0100                	addi	s0,sp,128
 10002dc:	0000                	unimp
 10002de:	0000                	unimp
 10002e0:	000002a3          	sb	zero,5(zero) # 5 <__EN_MIE-0x1000079>
 10002e4:	0002                	c.slli64	zero
 10002e6:	0041                	c.nop	16
 10002e8:	0000                	unimp
 10002ea:	0101                	addi	sp,sp,0
 10002ec:	000d0efb          	0xd0efb
 10002f0:	0101                	addi	sp,sp,0
 10002f2:	0101                	addi	sp,sp,0
 10002f4:	0000                	unimp
 10002f6:	0100                	addi	s0,sp,128
 10002f8:	0000                	unimp
 10002fa:	2e01                	jal	100060a <isr_table+0x3fa>
 10002fc:	2f2e2e2f          	0x2f2e2e2f
 1000300:	2e2e                	fld	ft8,200(sp)
 1000302:	2f2e2e2f          	0x2f2e2e2f
 1000306:	6c50                	flw	fa2,28(s0)
 1000308:	7461                	lui	s0,0xffff8
 100030a:	6f66                	flw	ft10,88(sp)
 100030c:	6d72                	flw	fs10,28(sp)
 100030e:	6174732f          	0x6174732f
 1000312:	7472                	flw	fs0,60(sp)
 1000314:	7075                	c.lui	zero,0xffffd
 1000316:	0000                	unimp
 1000318:	72617473          	csrrci	s0,0x726,2
 100031c:	7574                	flw	fa3,108(a0)
 100031e:	5f70                	lw	a2,124(a4)
 1000320:	7672                	flw	fa2,60(sp)
 1000322:	732e3233          	0x732e3233
 1000326:	0100                	addi	s0,sp,128
 1000328:	0000                	unimp
 100032a:	0000                	unimp
 100032c:	0205                	addi	tp,tp,1
 100032e:	0000                	unimp
 1000330:	0100                	addi	s0,sp,128
 1000332:	03011603          	lh	a2,48(sp)
 1000336:	00080903          	lb	s2,0(a6)
 100033a:	0301                	addi	t1,t1,0
 100033c:	0901                	addi	s2,s2,0
 100033e:	0008                	0x8
 1000340:	0301                	addi	t1,t1,0
 1000342:	0901                	addi	s2,s2,0
 1000344:	0004                	0x4
 1000346:	0301                	addi	t1,t1,0
 1000348:	00040903          	lb	s2,0(s0) # ffff8000 <_stack+0xeffda800>
 100034c:	0301                	addi	t1,t1,0
 100034e:	0901                	addi	s2,s2,0
 1000350:	0002                	c.slli64	zero
 1000352:	0301                	addi	t1,t1,0
 1000354:	0901                	addi	s2,s2,0
 1000356:	0004                	0x4
 1000358:	0301                	addi	t1,t1,0
 100035a:	00040903          	lb	s2,0(s0)
 100035e:	0301                	addi	t1,t1,0
 1000360:	0901                	addi	s2,s2,0
 1000362:	0008                	0x8
 1000364:	0301                	addi	t1,t1,0
 1000366:	0901                	addi	s2,s2,0
 1000368:	0002                	c.slli64	zero
 100036a:	0301                	addi	t1,t1,0
 100036c:	0901                	addi	s2,s2,0
 100036e:	0004                	0x4
 1000370:	0301                	addi	t1,t1,0
 1000372:	00040903          	lb	s2,0(s0)
 1000376:	0301                	addi	t1,t1,0
 1000378:	0901                	addi	s2,s2,0
 100037a:	0008                	0x8
 100037c:	0301                	addi	t1,t1,0
 100037e:	0901                	addi	s2,s2,0
 1000380:	0008                	0x8
 1000382:	0301                	addi	t1,t1,0
 1000384:	0901                	addi	s2,s2,0
 1000386:	0008                	0x8
 1000388:	0301                	addi	t1,t1,0
 100038a:	0902                	c.slli64	s2
 100038c:	0004                	0x4
 100038e:	0301                	addi	t1,t1,0
 1000390:	0901                	addi	s2,s2,0
 1000392:	0004                	0x4
 1000394:	0301                	addi	t1,t1,0
 1000396:	0901                	addi	s2,s2,0
 1000398:	0004                	0x4
 100039a:	0301                	addi	t1,t1,0
 100039c:	0901                	addi	s2,s2,0
 100039e:	0002                	c.slli64	zero
 10003a0:	0301                	addi	t1,t1,0
 10003a2:	0901                	addi	s2,s2,0
 10003a4:	0002                	c.slli64	zero
 10003a6:	0301                	addi	t1,t1,0
 10003a8:	00040903          	lb	s2,0(s0)
 10003ac:	0301                	addi	t1,t1,0
 10003ae:	0901                	addi	s2,s2,0
 10003b0:	0008                	0x8
 10003b2:	0301                	addi	t1,t1,0
 10003b4:	0901                	addi	s2,s2,0
 10003b6:	0008                	0x8
 10003b8:	0301                	addi	t1,t1,0
 10003ba:	0902                	c.slli64	s2
 10003bc:	0004                	0x4
 10003be:	0301                	addi	t1,t1,0
 10003c0:	0901                	addi	s2,s2,0
 10003c2:	0004                	0x4
 10003c4:	0301                	addi	t1,t1,0
 10003c6:	0901                	addi	s2,s2,0
 10003c8:	0002                	c.slli64	zero
 10003ca:	0301                	addi	t1,t1,0
 10003cc:	0004090b          	0x4090b
 10003d0:	0301                	addi	t1,t1,0
 10003d2:	0901                	addi	s2,s2,0
 10003d4:	0008                	0x8
 10003d6:	0301                	addi	t1,t1,0
 10003d8:	0902                	c.slli64	s2
 10003da:	0004                	0x4
 10003dc:	0301                	addi	t1,t1,0
 10003de:	0901                	addi	s2,s2,0
 10003e0:	0002                	c.slli64	zero
 10003e2:	0301                	addi	t1,t1,0
 10003e4:	0902                	c.slli64	s2
 10003e6:	0004                	0x4
 10003e8:	0301                	addi	t1,t1,0
 10003ea:	0904                	addi	s1,sp,144
 10003ec:	0004                	0x4
 10003ee:	0301                	addi	t1,t1,0
 10003f0:	0911                	addi	s2,s2,4
 10003f2:	0002                	c.slli64	zero
 10003f4:	0301                	addi	t1,t1,0
 10003f6:	0901                	addi	s2,s2,0
 10003f8:	0004                	0x4
 10003fa:	0301                	addi	t1,t1,0
 10003fc:	0904                	addi	s1,sp,144
 10003fe:	0004                	0x4
 1000400:	0301                	addi	t1,t1,0
 1000402:	0901                	addi	s2,s2,0
 1000404:	0004                	0x4
 1000406:	0301                	addi	t1,t1,0
 1000408:	060900d3          	fadd.q	ft1,fs2,ft0,rne
 100040c:	0100                	addi	s0,sp,128
 100040e:	24090203          	lb	tp,576(s2)
 1000412:	0100                	addi	s0,sp,128
 1000414:	0c090303          	lb	t1,192(s2)
 1000418:	0100                	addi	s0,sp,128
 100041a:	08090203          	lb	tp,128(s2)
 100041e:	0100                	addi	s0,sp,128
 1000420:	08090103          	lb	sp,128(s2)
 1000424:	0100                	addi	s0,sp,128
 1000426:	04090103          	lb	sp,64(s2)
 100042a:	0100                	addi	s0,sp,128
 100042c:	04090103          	lb	sp,64(s2)
 1000430:	0100                	addi	s0,sp,128
 1000432:	02090103          	lb	sp,32(s2)
 1000436:	0100                	addi	s0,sp,128
 1000438:	04090103          	lb	sp,64(s2)
 100043c:	0100                	addi	s0,sp,128
 100043e:	02090503          	lb	a0,32(s2)
 1000442:	0100                	addi	s0,sp,128
 1000444:	02090203          	lb	tp,32(s2)
 1000448:	0100                	addi	s0,sp,128
 100044a:	04090303          	lb	t1,64(s2)
 100044e:	0100                	addi	s0,sp,128
 1000450:	02090103          	lb	sp,32(s2)
 1000454:	0100                	addi	s0,sp,128
 1000456:	08090103          	lb	sp,128(s2)
 100045a:	0100                	addi	s0,sp,128
 100045c:	04090403          	lb	s0,64(s2)
 1000460:	0100                	addi	s0,sp,128
 1000462:	08090103          	lb	sp,128(s2)
 1000466:	0100                	addi	s0,sp,128
 1000468:	04090203          	lb	tp,64(s2)
 100046c:	0100                	addi	s0,sp,128
 100046e:	0c090203          	lb	tp,192(s2)
 1000472:	0100                	addi	s0,sp,128
 1000474:	24090203          	lb	tp,576(s2)
 1000478:	0100                	addi	s0,sp,128
 100047a:	0409                	addi	s0,s0,2
 100047c:	0000                	unimp
 100047e:	0101                	addi	sp,sp,0
 1000480:	0500                	addi	s0,sp,640
 1000482:	8002                	0x8002
 1000484:	0001                	nop
 1000486:	0301                	addi	t1,t1,0
 1000488:	01e9                	addi	gp,gp,26
 100048a:	0301                	addi	t1,t1,0
 100048c:	0901                	addi	s2,s2,0
 100048e:	0002                	c.slli64	zero
 1000490:	0301                	addi	t1,t1,0
 1000492:	0901                	addi	s2,s2,0
 1000494:	0002                	c.slli64	zero
 1000496:	0301                	addi	t1,t1,0
 1000498:	0901                	addi	s2,s2,0
 100049a:	0004                	0x4
 100049c:	0301                	addi	t1,t1,0
 100049e:	0901                	addi	s2,s2,0
 10004a0:	0004                	0x4
 10004a2:	0301                	addi	t1,t1,0
 10004a4:	00020903          	lb	s2,0(tp) # 0 <__EN_MIE-0x100007e>
 10004a8:	0301                	addi	t1,t1,0
 10004aa:	0901                	addi	s2,s2,0
 10004ac:	0004                	0x4
 10004ae:	0301                	addi	t1,t1,0
 10004b0:	0901                	addi	s2,s2,0
 10004b2:	0002                	c.slli64	zero
 10004b4:	0301                	addi	t1,t1,0
 10004b6:	0901                	addi	s2,s2,0
 10004b8:	0002                	c.slli64	zero
 10004ba:	0301                	addi	t1,t1,0
 10004bc:	0901                	addi	s2,s2,0
 10004be:	0002                	c.slli64	zero
 10004c0:	0301                	addi	t1,t1,0
 10004c2:	0901                	addi	s2,s2,0
 10004c4:	0002                	c.slli64	zero
 10004c6:	0301                	addi	t1,t1,0
 10004c8:	0901                	addi	s2,s2,0
 10004ca:	0002                	c.slli64	zero
 10004cc:	0301                	addi	t1,t1,0
 10004ce:	0901                	addi	s2,s2,0
 10004d0:	0002                	c.slli64	zero
 10004d2:	0301                	addi	t1,t1,0
 10004d4:	0901                	addi	s2,s2,0
 10004d6:	0002                	c.slli64	zero
 10004d8:	0301                	addi	t1,t1,0
 10004da:	0901                	addi	s2,s2,0
 10004dc:	0002                	c.slli64	zero
 10004de:	0301                	addi	t1,t1,0
 10004e0:	0901                	addi	s2,s2,0
 10004e2:	0002                	c.slli64	zero
 10004e4:	0301                	addi	t1,t1,0
 10004e6:	0901                	addi	s2,s2,0
 10004e8:	0002                	c.slli64	zero
 10004ea:	0301                	addi	t1,t1,0
 10004ec:	0901                	addi	s2,s2,0
 10004ee:	0002                	c.slli64	zero
 10004f0:	0301                	addi	t1,t1,0
 10004f2:	0901                	addi	s2,s2,0
 10004f4:	0002                	c.slli64	zero
 10004f6:	0301                	addi	t1,t1,0
 10004f8:	0901                	addi	s2,s2,0
 10004fa:	0002                	c.slli64	zero
 10004fc:	0301                	addi	t1,t1,0
 10004fe:	0901                	addi	s2,s2,0
 1000500:	0002                	c.slli64	zero
 1000502:	0301                	addi	t1,t1,0
 1000504:	0901                	addi	s2,s2,0
 1000506:	0002                	c.slli64	zero
 1000508:	0301                	addi	t1,t1,0
 100050a:	0901                	addi	s2,s2,0
 100050c:	0002                	c.slli64	zero
 100050e:	0301                	addi	t1,t1,0
 1000510:	0901                	addi	s2,s2,0
 1000512:	0002                	c.slli64	zero
 1000514:	0301                	addi	t1,t1,0
 1000516:	0901                	addi	s2,s2,0
 1000518:	0002                	c.slli64	zero
 100051a:	0301                	addi	t1,t1,0
 100051c:	0901                	addi	s2,s2,0
 100051e:	0002                	c.slli64	zero
 1000520:	0301                	addi	t1,t1,0
 1000522:	0901                	addi	s2,s2,0
 1000524:	0002                	c.slli64	zero
 1000526:	0301                	addi	t1,t1,0
 1000528:	0902                	c.slli64	s2
 100052a:	0002                	c.slli64	zero
 100052c:	0301                	addi	t1,t1,0
 100052e:	0901                	addi	s2,s2,0
 1000530:	0004                	0x4
 1000532:	0301                	addi	t1,t1,0
 1000534:	0901                	addi	s2,s2,0
 1000536:	0002                	c.slli64	zero
 1000538:	0301                	addi	t1,t1,0
 100053a:	0901                	addi	s2,s2,0
 100053c:	0004                	0x4
 100053e:	0301                	addi	t1,t1,0
 1000540:	0901                	addi	s2,s2,0
 1000542:	0002                	c.slli64	zero
 1000544:	0301                	addi	t1,t1,0
 1000546:	00020903          	lb	s2,0(tp) # 0 <__EN_MIE-0x100007e>
 100054a:	0301                	addi	t1,t1,0
 100054c:	00040903          	lb	s2,0(s0)
 1000550:	0301                	addi	t1,t1,0
 1000552:	00020903          	lb	s2,0(tp) # 0 <__EN_MIE-0x100007e>
 1000556:	0301                	addi	t1,t1,0
 1000558:	0901                	addi	s2,s2,0
 100055a:	0002                	c.slli64	zero
 100055c:	0301                	addi	t1,t1,0
 100055e:	0902                	c.slli64	s2
 1000560:	0002                	c.slli64	zero
 1000562:	0301                	addi	t1,t1,0
 1000564:	00040907          	0x40907
 1000568:	0301                	addi	t1,t1,0
 100056a:	0901                	addi	s2,s2,0
 100056c:	0002                	c.slli64	zero
 100056e:	0301                	addi	t1,t1,0
 1000570:	0901                	addi	s2,s2,0
 1000572:	0002                	c.slli64	zero
 1000574:	0301                	addi	t1,t1,0
 1000576:	0906                	slli	s2,s2,0x1
 1000578:	0002                	c.slli64	zero
 100057a:	0301                	addi	t1,t1,0
 100057c:	0908                	addi	a0,sp,144
 100057e:	0022                	c.slli	zero,0x8
 1000580:	0901                	addi	s2,s2,0
 1000582:	00dc                	addi	a5,sp,68
 1000584:	0100                	addi	s0,sp,128
 1000586:	1e01                	addi	t3,t3,-32
 1000588:	0000                	unimp
 100058a:	0200                	addi	s0,sp,256
 100058c:	a900                	fsd	fs0,16(a0)
 100058e:	0005                	c.nop	1
 1000590:	0401                	addi	s0,s0,0
 1000592:	e001                	bnez	s0,1000592 <isr_table+0x382>
 1000594:	0002                	c.slli64	zero
 1000596:	6801                	0x6801
 1000598:	0006                	c.slli	zero,0x1
 100059a:	e801                	bnez	s0,10005aa <isr_table+0x39a>
 100059c:	0005                	c.nop	1
 100059e:	1301                	addi	t1,t1,-32
 10005a0:	0006                	c.slli	zero,0x1
 10005a2:	5601                	li	a2,-32
 10005a4:	0006                	c.slli	zero,0x1
 10005a6:	0101                	addi	sp,sp,0
 10005a8:	0180                	addi	s0,sp,192
 10005aa:	0011                	c.nop	4
 10005ac:	0610                	addi	a2,sp,768
 10005ae:	0655                	addi	a2,a2,21
 10005b0:	0e1b0e03          	lb	t3,225(s6)
 10005b4:	0e25                	addi	t3,t3,9
 10005b6:	00000513          	li	a0,0
 10005ba:	0000                	unimp
 10005bc:	0000                	unimp
 10005be:	0000                	unimp
 10005c0:	0024                	addi	s1,sp,8
 10005c2:	0000                	unimp
 10005c4:	0002                	c.slli64	zero
 10005c6:	01000587          	0x1000587
 10005ca:	0004                	0x4
 10005cc:	0000                	unimp
 10005ce:	0000                	unimp
 10005d0:	0000                	unimp
 10005d2:	0100                	addi	s0,sp,128
 10005d4:	014c                	addi	a1,sp,132
 10005d6:	0000                	unimp
 10005d8:	0180                	addi	s0,sp,192
 10005da:	0100                	addi	s0,sp,128
 10005dc:	015c                	addi	a5,sp,132
	...
 10005e6:	0000                	unimp
 10005e8:	2f2e                	fld	ft10,200(sp)
 10005ea:	2e2e                	fld	ft8,200(sp)
 10005ec:	2f2e2e2f          	0x2f2e2e2f
 10005f0:	2e2e                	fld	ft8,200(sp)
 10005f2:	616c502f          	0x616c502f
 10005f6:	6674                	flw	fa3,76(a2)
 10005f8:	2f6d726f          	jal	tp,10d78ee <_sidata+0xc7d16>
 10005fc:	72617473          	csrrci	s0,0x726,2
 1000600:	7574                	flw	fa3,108(a0)
 1000602:	2f70                	fld	fa2,216(a4)
 1000604:	72617473          	csrrci	s0,0x726,2
 1000608:	7574                	flw	fa3,108(a0)
 100060a:	5f70                	lw	a2,124(a4)
 100060c:	7672                	flw	fa2,60(sp)
 100060e:	732e3233          	0x732e3233
 1000612:	4400                	lw	s0,8(s0)
 1000614:	5c3a                	lw	s8,172(sp)
 1000616:	4359                	li	t1,22
 1000618:	4d5c                	lw	a5,28(a0)
 100061a:	5f59                	li	t5,-10
 100061c:	5c4b4453          	0x5c4b4453
 1000620:	5250                	lw	a2,36(a2)
 1000622:	5f4a                	lw	t5,176(sp)
 1000624:	5054554f          	fnmadd.s	fa0,fs0,ft5,fa0,unknown
 1000628:	5455                	li	s0,-11
 100062a:	485c                	lw	a5,20(s0)
 100062c:	3044                	fld	fs1,160(s0)
 100062e:	3130                	fld	fa2,96(a0)
 1000630:	3436                	fld	fs0,360(sp)
 1000632:	355f 2d30 3635      	0x36352d30355f
 1000638:	aaa1                	j	1000790 <isr_table+0x580>
 100063a:	676c                	flw	fa1,76(a4)
 100063c:	3232                	fld	ft4,296(sp)
 100063e:	5f5f 5f5f 636c      	0x636c5f5f5f5f
 1000644:	676c                	flw	fa1,76(a4)
 1000646:	3132                	fld	ft2,296(sp)
 1000648:	315f6167          	0x315f6167
 100064c:	3838                	fld	fa4,112(s0)
 100064e:	305f 5c31 4347      	0x43475c31305f
 1000654:	4e470043          	fmadd.q	ft0,fa4,ft4,fs1,rne
 1000658:	2055                	jal	10006fc <isr_table+0x4ec>
 100065a:	5341                	li	t1,-16
 100065c:	3220                	fld	fs0,96(a2)
 100065e:	332e                	fld	ft6,232(sp)
 1000660:	2e31                	jal	100097c <isr_table+0x76c>
 1000662:	0031                	c.nop	12
 1000664:	0000                	unimp
 1000666:	0000                	unimp
 1000668:	ffff                	0xffff
 100066a:	ffff                	0xffff
 100066c:	0000                	unimp
 100066e:	0000                	unimp
 1000670:	0000                	unimp
 1000672:	0100                	addi	s0,sp,128
 1000674:	014c                	addi	a1,sp,132
 1000676:	0100                	addi	s0,sp,128
 1000678:	0180                	addi	s0,sp,192
 100067a:	0100                	addi	s0,sp,128
 100067c:	02dc                	addi	a5,sp,324
 100067e:	0100                	addi	s0,sp,128
	...

Disassembly of section .text1:

01001000 <bt_init>:
bt_init():
 1001000:	2790b2ef          	jal	t0,100ca78 <__riscv_save_0>
 1001004:	10011537          	lui	a0,0x10011
 1001008:	6589                	lui	a1,0x2
 100100a:	00050513          	mv	a0,a0
 100100e:	4b3000ef          	jal	ra,1001cc0 <Memory_InitHeap>
 1001012:	65c030ef          	jal	ra,100466e <Bt_HciFifo_Init>
 1001016:	37a030ef          	jal	ra,1004390 <Lpm_GetWakeFlag>
 100101a:	02051a63          	bnez	a0,100104e <bt_init+0x4e>
 100101e:	10010537          	lui	a0,0x10010
 1001022:	00c50513          	addi	a0,a0,12 # 1001000c <IPCHandleCb>
 1001026:	0d7010ef          	jal	ra,10028fc <IPC_Init>
 100102a:	450d                	li	a0,3
 100102c:	146040ef          	jal	ra,1005172 <bt_set_adv_random>
 1001030:	4515                	li	a0,5
 1001032:	15a040ef          	jal	ra,100518c <bt_set_tx_power>
 1001036:	5f9030ef          	jal	ra,1004e2e <bt_state_init>
 100103a:	6685                	lui	a3,0x1
 100103c:	84868693          	addi	a3,a3,-1976 # 848 <__EN_MIE-0xfff836>
 1001040:	0fb00613          	li	a2,251
 1001044:	85b6                	mv	a1,a3
 1001046:	0fb00513          	li	a0,251
 100104a:	66d030ef          	jal	ra,1004eb6 <bt_set_local_dle>
 100104e:	24f0b06f          	j	100ca9c <__riscv_restore_0>

01001052 <chip_task_run>:
chip_task_run():
 1001052:	2270b2ef          	jal	t0,100ca78 <__riscv_save_0>
 1001056:	22c9                	jal	1001218 <debugUart_pollTx>
 1001058:	366030ef          	jal	ra,10043be <Lpm_PollingWork>
 100105c:	10010537          	lui	a0,0x10010
 1001060:	00050513          	mv	a0,a0
 1001064:	27b020ef          	jal	ra,1003ade <IWDG_ReloadCounter>
 1001068:	2350b06f          	j	100ca9c <__riscv_restore_0>

0100106c <chip_init>:
chip_init():
 100106c:	20d0b2ef          	jal	t0,100ca78 <__riscv_save_0>
 1001070:	10010537          	lui	a0,0x10010
 1001074:	00050513          	mv	a0,a0
 1001078:	267020ef          	jal	ra,1003ade <IWDG_ReloadCounter>
 100107c:	4505                	li	a0,1
 100107e:	42e030ef          	jal	ra,10044ac <Lpm_EnableSet>
 1001082:	28c1                	jal	1001152 <init_debugUart>
 1001084:	100117b7          	lui	a5,0x10011
 1001088:	ce079623          	sh	zero,-788(a5) # 10010cec <gOsEnterCriticalCnt>
 100108c:	304030ef          	jal	ra,1004390 <Lpm_GetWakeFlag>
 1001090:	00051763          	bnez	a0,100109e <chip_init+0x32>
 1001094:	03e00593          	li	a1,62
 1001098:	4505                	li	a0,1
 100109a:	4db030ef          	jal	ra,1004d74 <QSPI_FlashWriteLock>
 100109e:	1ff0b06f          	j	100ca9c <__riscv_restore_0>

010010a2 <main>:
main():
 10010a2:	1d70b2ef          	jal	t0,100ca78 <__riscv_save_0>
 10010a6:	37d9                	jal	100106c <chip_init>
 10010a8:	3fa1                	jal	1001000 <bt_init>
 10010aa:	7750a0ef          	jal	ra,100c01e <app_init>
 10010ae:	7550a0ef          	jal	ra,100c002 <app_task_run>
 10010b2:	7b0010ef          	jal	ra,1002862 <IPC_HandleRxPacket>
 10010b6:	3f71                	jal	1001052 <chip_task_run>
 10010b8:	bfdd                	j	10010ae <main+0xc>

010010ba <uart_txBuffer>:
uart_txBuffer():
 10010ba:	1bf0b2ef          	jal	t0,100ca78 <__riscv_save_0>
 10010be:	842a                	mv	s0,a0
 10010c0:	00b504b3          	add	s1,a0,a1
 10010c4:	00941463          	bne	s0,s1,10010cc <uart_txBuffer+0x12>
 10010c8:	1d50b06f          	j	100ca9c <__riscv_restore_0>
 10010cc:	00044503          	lbu	a0,0(s0)
 10010d0:	0405                	addi	s0,s0,1
 10010d2:	2011                	jal	10010d6 <uart_txChar>
 10010d4:	bfc5                	j	10010c4 <uart_txBuffer+0xa>

010010d6 <uart_txChar>:
uart_txChar():
 10010d6:	30047073          	csrci	mstatus,8
 10010da:	100117b7          	lui	a5,0x10011
 10010de:	cec7d703          	lhu	a4,-788(a5) # 10010cec <gOsEnterCriticalCnt>
 10010e2:	10008637          	lui	a2,0x10008
 10010e6:	02700693          	li	a3,39
 10010ea:	0705                	addi	a4,a4,1
 10010ec:	cee79623          	sh	a4,-788(a5)
 10010f0:	873e                	mv	a4,a5
 10010f2:	35664783          	lbu	a5,854(a2) # 10008356 <_sidata+0xeff877e>
 10010f6:	fef6eee3          	bltu	a3,a5,10010f2 <uart_txChar+0x1c>
 10010fa:	100117b7          	lui	a5,0x10011
 10010fe:	ce87a683          	lw	a3,-792(a5) # 10010ce8 <txptr>
 1001102:	10013637          	lui	a2,0x10013
 1001106:	03160613          	addi	a2,a2,49 # 10013031 <uarttxbuf+0x31>
 100110a:	00a68023          	sb	a0,0(a3)
 100110e:	ce87a683          	lw	a3,-792(a5)
 1001112:	0685                	addi	a3,a3,1
 1001114:	02d66a63          	bltu	a2,a3,1001148 <uart_txChar+0x72>
 1001118:	ced7a423          	sw	a3,-792(a5)
 100111c:	ce87c603          	lbu	a2,-792(a5)
 1001120:	100086b7          	lui	a3,0x10008
 1001124:	06c68f23          	sb	a2,126(a3) # 1000807e <_sidata+0xeff84a6>
 1001128:	ce97c783          	lbu	a5,-791(a5)
 100112c:	06f68fa3          	sb	a5,127(a3)
 1001130:	cec75783          	lhu	a5,-788(a4)
 1001134:	17fd                	addi	a5,a5,-1
 1001136:	07c2                	slli	a5,a5,0x10
 1001138:	83c1                	srli	a5,a5,0x10
 100113a:	cef71623          	sh	a5,-788(a4)
 100113e:	00079463          	bnez	a5,1001146 <uart_txChar+0x70>
 1001142:	30046073          	csrsi	mstatus,8
 1001146:	8082                	ret
 1001148:	100136b7          	lui	a3,0x10013
 100114c:	00068693          	mv	a3,a3
 1001150:	b7e1                	j	1001118 <uart_txChar+0x42>

01001152 <init_debugUart>:
init_debugUart():
 1001152:	1270b2ef          	jal	t0,100ca78 <__riscv_save_0>
 1001156:	100087b7          	lui	a5,0x10008
 100115a:	0437c703          	lbu	a4,67(a5) # 10008043 <_sidata+0xeff846b>
 100115e:	10013637          	lui	a2,0x10013
 1001162:	00060613          	mv	a2,a2
 1001166:	00176713          	ori	a4,a4,1
 100116a:	04e781a3          	sb	a4,67(a5)
 100116e:	0517c703          	lbu	a4,81(a5)
 1001172:	0ff67693          	andi	a3,a2,255
 1001176:	07f77713          	andi	a4,a4,127
 100117a:	04e788a3          	sb	a4,81(a5)
 100117e:	4731                	li	a4,12
 1001180:	08e784a3          	sb	a4,137(a5)
 1001184:	03400713          	li	a4,52
 1001188:	06e78923          	sb	a4,114(a5)
 100118c:	f8000713          	li	a4,-128
 1001190:	06e789a3          	sb	a4,115(a5)
 1001194:	01061713          	slli	a4,a2,0x10
 1001198:	8341                	srli	a4,a4,0x10
 100119a:	06d78d23          	sb	a3,122(a5)
 100119e:	00875593          	srli	a1,a4,0x8
 10011a2:	06b78da3          	sb	a1,123(a5)
 10011a6:	03170713          	addi	a4,a4,49
 10011aa:	06d78f23          	sb	a3,126(a5)
 10011ae:	0742                	slli	a4,a4,0x10
 10011b0:	03168693          	addi	a3,a3,49 # 10013031 <uarttxbuf+0x31>
 10011b4:	06b78fa3          	sb	a1,127(a5)
 10011b8:	0ff6f693          	andi	a3,a3,255
 10011bc:	8341                	srli	a4,a4,0x10
 10011be:	06d78e23          	sb	a3,124(a5)
 10011c2:	8321                	srli	a4,a4,0x8
 10011c4:	06e78ea3          	sb	a4,125(a5)
 10011c8:	10013737          	lui	a4,0x10013
 10011cc:	03470713          	addi	a4,a4,52 # 10013034 <uartrxbuf>
 10011d0:	0ff77693          	andi	a3,a4,255
 10011d4:	0742                	slli	a4,a4,0x10
 10011d6:	8341                	srli	a4,a4,0x10
 10011d8:	06d78a23          	sb	a3,116(a5)
 10011dc:	00875593          	srli	a1,a4,0x8
 10011e0:	06b78aa3          	sb	a1,117(a5)
 10011e4:	0705                	addi	a4,a4,1
 10011e6:	06d78c23          	sb	a3,120(a5)
 10011ea:	0742                	slli	a4,a4,0x10
 10011ec:	0685                	addi	a3,a3,1
 10011ee:	06b78ca3          	sb	a1,121(a5)
 10011f2:	0ff6f693          	andi	a3,a3,255
 10011f6:	8341                	srli	a4,a4,0x10
 10011f8:	06d78b23          	sb	a3,118(a5)
 10011fc:	8321                	srli	a4,a4,0x8
 10011fe:	06e78ba3          	sb	a4,119(a5)
 1001202:	f8100713          	li	a4,-127
 1001206:	06e788a3          	sb	a4,113(a5)
 100120a:	100117b7          	lui	a5,0x10011
 100120e:	cec7a423          	sw	a2,-792(a5) # 10010ce8 <txptr>
 1001212:	2089                	jal	1001254 <init_print_log>
 1001214:	0890b06f          	j	100ca9c <__riscv_restore_0>

01001218 <debugUart_pollTx>:
debugUart_pollTx():
 1001218:	0610b2ef          	jal	t0,100ca78 <__riscv_save_0>
 100121c:	2aad                	jal	1001396 <print_log_to_uart>
 100121e:	07f0b06f          	j	100ca9c <__riscv_restore_0>

01001222 <yichip_debug_uart_protocol>:
yichip_debug_uart_protocol():
 1001222:	faa00793          	li	a5,-86
 1001226:	00f60023          	sb	a5,0(a2) # 10013000 <uarttxbuf>
 100122a:	00a600a3          	sb	a0,1(a2)
 100122e:	00b60123          	sb	a1,2(a2)
 1001232:	02e00713          	li	a4,46
 1001236:	0ff5f793          	andi	a5,a1,255
 100123a:	00b77463          	bgeu	a4,a1,1001242 <yichip_debug_uart_protocol+0x20>
 100123e:	02e00793          	li	a5,46
 1001242:	963e                	add	a2,a2,a5
 1001244:	fbb00713          	li	a4,-69
 1001248:	00e601a3          	sb	a4,3(a2)
 100124c:	0791                	addi	a5,a5,4
 100124e:	00f68023          	sb	a5,0(a3)
 1001252:	8082                	ret

01001254 <init_print_log>:
init_print_log():
 1001254:	00b0b2ef          	jal	t0,100ca5e <__riscv_save_4>
 1001258:	100047b7          	lui	a5,0x10004
 100125c:	4cc7c683          	lbu	a3,1228(a5) # 100044cc <_sidata+0xeff48f4>
 1001260:	4cd7c503          	lbu	a0,1229(a5)
 1001264:	4ce7c703          	lbu	a4,1230(a5)
 1001268:	0522                	slli	a0,a0,0x8
 100126a:	0742                	slli	a4,a4,0x10
 100126c:	8d59                	or	a0,a0,a4
 100126e:	8d55                	or	a0,a0,a3
 1001270:	10010737          	lui	a4,0x10010
 1001274:	100006b7          	lui	a3,0x10000
 1001278:	5cc70713          	addi	a4,a4,1484 # 100105cc <_edata>
 100127c:	8d55                	or	a0,a0,a3
 100127e:	c308                	sw	a0,0(a4)
 1001280:	4ba7c583          	lbu	a1,1210(a5)
 1001284:	4bb7c403          	lbu	s0,1211(a5)
 1001288:	4bc7c603          	lbu	a2,1212(a5)
 100128c:	0422                	slli	s0,s0,0x8
 100128e:	0642                	slli	a2,a2,0x10
 1001290:	8c51                	or	s0,s0,a2
 1001292:	8c4d                	or	s0,s0,a1
 1001294:	8c55                	or	s0,s0,a3
 1001296:	c340                	sw	s0,4(a4)
 1001298:	4bd7c583          	lbu	a1,1213(a5)
 100129c:	4be7ca83          	lbu	s5,1214(a5)
 10012a0:	4bf7c603          	lbu	a2,1215(a5)
 10012a4:	0aa2                	slli	s5,s5,0x8
 10012a6:	0642                	slli	a2,a2,0x10
 10012a8:	00caeab3          	or	s5,s5,a2
 10012ac:	00baeab3          	or	s5,s5,a1
 10012b0:	00daeab3          	or	s5,s5,a3
 10012b4:	01572423          	sw	s5,8(a4)
 10012b8:	4c07c583          	lbu	a1,1216(a5)
 10012bc:	4c17ca03          	lbu	s4,1217(a5)
 10012c0:	4c27c603          	lbu	a2,1218(a5)
 10012c4:	0a22                	slli	s4,s4,0x8
 10012c6:	0642                	slli	a2,a2,0x10
 10012c8:	00ca6a33          	or	s4,s4,a2
 10012cc:	00ba6a33          	or	s4,s4,a1
 10012d0:	00da6a33          	or	s4,s4,a3
 10012d4:	01472623          	sw	s4,12(a4)
 10012d8:	4c37c583          	lbu	a1,1219(a5)
 10012dc:	4c47c983          	lbu	s3,1220(a5)
 10012e0:	4c57c603          	lbu	a2,1221(a5)
 10012e4:	09a2                	slli	s3,s3,0x8
 10012e6:	0642                	slli	a2,a2,0x10
 10012e8:	00c9e9b3          	or	s3,s3,a2
 10012ec:	00b9e9b3          	or	s3,s3,a1
 10012f0:	00d9e9b3          	or	s3,s3,a3
 10012f4:	01372823          	sw	s3,16(a4)
 10012f8:	4c67c583          	lbu	a1,1222(a5)
 10012fc:	4c77c903          	lbu	s2,1223(a5)
 1001300:	4c87c603          	lbu	a2,1224(a5)
 1001304:	0922                	slli	s2,s2,0x8
 1001306:	0642                	slli	a2,a2,0x10
 1001308:	00c96933          	or	s2,s2,a2
 100130c:	00b96933          	or	s2,s2,a1
 1001310:	00d96933          	or	s2,s2,a3
 1001314:	01272a23          	sw	s2,20(a4)
 1001318:	4c97c583          	lbu	a1,1225(a5)
 100131c:	4ca7c483          	lbu	s1,1226(a5)
 1001320:	4cb7c603          	lbu	a2,1227(a5)
 1001324:	04a2                	slli	s1,s1,0x8
 1001326:	0642                	slli	a2,a2,0x10
 1001328:	8cd1                	or	s1,s1,a2
 100132a:	8ccd                	or	s1,s1,a1
 100132c:	8cd5                	or	s1,s1,a3
 100132e:	cf04                	sw	s1,24(a4)
 1001330:	4cf7c303          	lbu	t1,1231(a5)
 1001334:	4d07c603          	lbu	a2,1232(a5)
 1001338:	4d17c803          	lbu	a6,1233(a5)
 100133c:	4cc7c883          	lbu	a7,1228(a5)
 1001340:	4cd7c703          	lbu	a4,1229(a5)
 1001344:	4ce7c583          	lbu	a1,1230(a5)
 1001348:	0842                	slli	a6,a6,0x10
 100134a:	00871793          	slli	a5,a4,0x8
 100134e:	0622                	slli	a2,a2,0x8
 1001350:	01059713          	slli	a4,a1,0x10
 1001354:	01066633          	or	a2,a2,a6
 1001358:	8fd9                	or	a5,a5,a4
 100135a:	00666633          	or	a2,a2,t1
 100135e:	0117e7b3          	or	a5,a5,a7
 1001362:	8fd5                	or	a5,a5,a3
 1001364:	8e55                	or	a2,a2,a3
 1001366:	8e1d                	sub	a2,a2,a5
 1001368:	4791                	li	a5,4
 100136a:	02f64633          	div	a2,a2,a5
 100136e:	4581                	li	a1,0
 1001370:	060a                	slli	a2,a2,0x2
 1001372:	0530b0ef          	jal	ra,100cbc4 <memset>
 1001376:	000a8023          	sb	zero,0(s5)
 100137a:	000a0023          	sb	zero,0(s4)
 100137e:	00098023          	sb	zero,0(s3)
 1001382:	00091023          	sh	zero,0(s2)
 1001386:	00049023          	sh	zero,0(s1)
 100138a:	05f00793          	li	a5,95
 100138e:	00f40023          	sb	a5,0(s0)
 1001392:	7000b06f          	j	100ca92 <__riscv_restore_4>

01001396 <print_log_to_uart>:
print_log_to_uart():
 1001396:	6ba0b2ef          	jal	t0,100ca50 <__riscv_save_10>
 100139a:	100109b7          	lui	s3,0x10010
 100139e:	5cc98793          	addi	a5,s3,1484 # 100105cc <_edata>
 10013a2:	7139                	addi	sp,sp,-64
 10013a4:	0147ab03          	lw	s6,20(a5)
 10013a8:	4f98                	lw	a4,24(a5)
 10013aa:	000105a3          	sb	zero,11(sp)
 10013ae:	30047073          	csrci	mstatus,8
 10013b2:	100114b7          	lui	s1,0x10011
 10013b6:	cec4d783          	lhu	a5,-788(s1) # 10010cec <gOsEnterCriticalCnt>
 10013ba:	4581                	li	a1,0
 10013bc:	5cc98993          	addi	s3,s3,1484
 10013c0:	0785                	addi	a5,a5,1
 10013c2:	cef49623          	sh	a5,-788(s1)
 10013c6:	00075a83          	lhu	s5,0(a4)
 10013ca:	000b5403          	lhu	s0,0(s6)
 10013ce:	03000c13          	li	s8,48
 10013d2:	0ac2                	slli	s5,s5,0x10
 10013d4:	0442                	slli	s0,s0,0x10
 10013d6:	010ada93          	srli	s5,s5,0x10
 10013da:	8041                	srli	s0,s0,0x10
 10013dc:	10004937          	lui	s2,0x10004
 10013e0:	10000bb7          	lui	s7,0x10000
 10013e4:	01059713          	slli	a4,a1,0x10
 10013e8:	8341                	srli	a4,a4,0x10
 10013ea:	03541b63          	bne	s0,s5,1001420 <print_log_to_uart+0x8a>
 10013ee:	cec4d783          	lhu	a5,-788(s1)
 10013f2:	17fd                	addi	a5,a5,-1
 10013f4:	07c2                	slli	a5,a5,0x10
 10013f6:	83c1                	srli	a5,a5,0x10
 10013f8:	cef49623          	sh	a5,-788(s1)
 10013fc:	08078763          	beqz	a5,100148a <print_log_to_uart+0xf4>
 1001400:	00070d63          	beqz	a4,100141a <print_log_to_uart+0x84>
 1001404:	0ff5f593          	andi	a1,a1,255
 1001408:	4501                	li	a0,0
 100140a:	00b10693          	addi	a3,sp,11
 100140e:	0070                	addi	a2,sp,12
 1001410:	3d09                	jal	1001222 <yichip_debug_uart_protocol>
 1001412:	00b14583          	lbu	a1,11(sp)
 1001416:	0068                	addi	a0,sp,12
 1001418:	314d                	jal	10010ba <uart_txBuffer>
 100141a:	6121                	addi	sp,sp,64
 100141c:	66c0b06f          	j	100ca88 <__riscv_restore_10>
 1001420:	00458a13          	addi	s4,a1,4 # 2004 <__EN_MIE-0xffe07a>
 1001424:	fd8a05e3          	beq	s4,s8,10013ee <print_log_to_uart+0x58>
 1001428:	0009a583          	lw	a1,0(s3)
 100142c:	00241793          	slli	a5,s0,0x2
 1001430:	4611                	li	a2,4
 1001432:	95be                	add	a1,a1,a5
 1001434:	00b10793          	addi	a5,sp,11
 1001438:	01478533          	add	a0,a5,s4
 100143c:	2eed                	jal	1001836 <xmemcpy>
 100143e:	4cf94503          	lbu	a0,1231(s2) # 100044cf <_sidata+0xeff48f7>
 1001442:	4d094783          	lbu	a5,1232(s2)
 1001446:	4d194603          	lbu	a2,1233(s2)
 100144a:	4cc94583          	lbu	a1,1228(s2)
 100144e:	4cd94703          	lbu	a4,1229(s2)
 1001452:	4ce94683          	lbu	a3,1230(s2)
 1001456:	07a2                	slli	a5,a5,0x8
 1001458:	0642                	slli	a2,a2,0x10
 100145a:	0722                	slli	a4,a4,0x8
 100145c:	06c2                	slli	a3,a3,0x10
 100145e:	8fd1                	or	a5,a5,a2
 1001460:	8f55                	or	a4,a4,a3
 1001462:	8f4d                	or	a4,a4,a1
 1001464:	8fc9                	or	a5,a5,a0
 1001466:	01776733          	or	a4,a4,s7
 100146a:	0177e7b3          	or	a5,a5,s7
 100146e:	8f99                	sub	a5,a5,a4
 1001470:	4711                	li	a4,4
 1001472:	02e7c7b3          	div	a5,a5,a4
 1001476:	0405                	addi	s0,s0,1
 1001478:	85d2                	mv	a1,s4
 100147a:	02f467b3          	rem	a5,s0,a5
 100147e:	01079413          	slli	s0,a5,0x10
 1001482:	8041                	srli	s0,s0,0x10
 1001484:	008b1023          	sh	s0,0(s6)
 1001488:	bfb1                	j	10013e4 <print_log_to_uart+0x4e>
 100148a:	30046073          	csrsi	mstatus,8
 100148e:	bf8d                	j	1001400 <print_log_to_uart+0x6a>

01001490 <print_string_to_uart>:
print_string_to_uart():
 1001490:	04058363          	beqz	a1,10014d6 <print_string_to_uart+0x46>
 1001494:	5e40b2ef          	jal	t0,100ca78 <__riscv_save_0>
 1001498:	0fb00793          	li	a5,251
 100149c:	1141                	addi	sp,sp,-16
 100149e:	842e                	mv	s0,a1
 10014a0:	00b7d463          	bge	a5,a1,10014a8 <print_string_to_uart+0x18>
 10014a4:	0fb00413          	li	s0,251
 10014a8:	2aa00793          	li	a5,682
 10014ac:	84aa                	mv	s1,a0
 10014ae:	458d                	li	a1,3
 10014b0:	0068                	addi	a0,sp,12
 10014b2:	00f11623          	sh	a5,12(sp)
 10014b6:	00810723          	sb	s0,14(sp)
 10014ba:	3101                	jal	10010ba <uart_txBuffer>
 10014bc:	85a2                	mv	a1,s0
 10014be:	8526                	mv	a0,s1
 10014c0:	3eed                	jal	10010ba <uart_txBuffer>
 10014c2:	fbb00793          	li	a5,-69
 10014c6:	0068                	addi	a0,sp,12
 10014c8:	4585                	li	a1,1
 10014ca:	00f10623          	sb	a5,12(sp)
 10014ce:	36f5                	jal	10010ba <uart_txBuffer>
 10014d0:	0141                	addi	sp,sp,16
 10014d2:	5ca0b06f          	j	100ca9c <__riscv_restore_0>
 10014d6:	8082                	ret

010014d8 <print_string>:
print_string():
 10014d8:	4781                	li	a5,0
 10014da:	0c700813          	li	a6,199
 10014de:	00d7c363          	blt	a5,a3,10014e4 <print_string+0xc>
 10014e2:	8082                	ret
 10014e4:	0005c703          	lbu	a4,0(a1)
 10014e8:	fee86de3          	bltu	a6,a4,10014e2 <print_string+0xa>
 10014ec:	00f608b3          	add	a7,a2,a5
 10014f0:	0008c883          	lbu	a7,0(a7)
 10014f4:	972a                	add	a4,a4,a0
 10014f6:	0785                	addi	a5,a5,1
 10014f8:	01170023          	sb	a7,0(a4)
 10014fc:	0005c703          	lbu	a4,0(a1)
 1001500:	0ff7f793          	andi	a5,a5,255
 1001504:	0705                	addi	a4,a4,1
 1001506:	00e58023          	sb	a4,0(a1)
 100150a:	bfd1                	j	10014de <print_string+0x6>

0100150c <print_string_log_raw>:
print_string_log_raw():
 100150c:	5440b2ef          	jal	t0,100ca50 <__riscv_save_10>
 1001510:	1101                	addi	sp,sp,-32
 1001512:	0100dab7          	lui	s5,0x100d
 1001516:	0100db37          	lui	s6,0x100d
 100151a:	89aa                	mv	s3,a0
 100151c:	8932                	mv	s2,a2
 100151e:	84b6                	mv	s1,a3
 1001520:	4a01                	li	s4,0
 1001522:	3d95                	jal	1001396 <print_log_to_uart>
 1001524:	ce4a8a93          	addi	s5,s5,-796 # 100cce4 <rand+0x66>
 1001528:	000105a3          	sb	zero,11(sp)
 100152c:	cd0b0b13          	addi	s6,s6,-816 # 100ccd0 <rand+0x52>
 1001530:	0100dbb7          	lui	s7,0x100d
 1001534:	02500c13          	li	s8,37
 1001538:	00090783          	lb	a5,0(s2)
 100153c:	08079463          	bnez	a5,10015c4 <print_string_log_raw+0xb8>
 1001540:	00b14503          	lbu	a0,11(sp)
 1001544:	6105                	addi	sp,sp,32
 1001546:	5420b06f          	j	100ca88 <__riscv_restore_10>
 100154a:	0685                	addi	a3,a3,1
 100154c:	00d90433          	add	s0,s2,a3
 1001550:	00040783          	lb	a5,0(s0)
 1001554:	01878463          	beq	a5,s8,100155c <print_string_log_raw+0x50>
 1001558:	fe0799e3          	bnez	a5,100154a <print_string_log_raw+0x3e>
 100155c:	00068763          	beqz	a3,100156a <print_string_log_raw+0x5e>
 1001560:	864a                	mv	a2,s2
 1001562:	00b10593          	addi	a1,sp,11
 1001566:	854e                	mv	a0,s3
 1001568:	3f85                	jal	10014d8 <print_string>
 100156a:	00040783          	lb	a5,0(s0)
 100156e:	8922                	mv	s2,s0
 1001570:	fd8794e3          	bne	a5,s8,1001538 <print_string_log_raw+0x2c>
 1001574:	00140613          	addi	a2,s0,1
 1001578:	02000813          	li	a6,32
 100157c:	4401                	li	s0,0
 100157e:	06400713          	li	a4,100
 1001582:	03900513          	li	a0,57
 1001586:	03000693          	li	a3,48
 100158a:	45a9                	li	a1,10
 100158c:	00160913          	addi	s2,a2,1
 1001590:	fff90783          	lb	a5,-1(s2)
 1001594:	0ae78b63          	beq	a5,a4,100164a <print_string_log_raw+0x13e>
 1001598:	04f74b63          	blt	a4,a5,10015ee <print_string_log_raw+0xe2>
 100159c:	02f54663          	blt	a0,a5,10015c8 <print_string_log_raw+0xbc>
 10015a0:	0ad7dd63          	bge	a5,a3,100165a <print_string_log_raw+0x14e>
 10015a4:	02500713          	li	a4,37
 10015a8:	4685                	li	a3,1
 10015aa:	00e78763          	beq	a5,a4,10015b8 <print_string_log_raw+0xac>
 10015ae:	0100d637          	lui	a2,0x100d
 10015b2:	4695                	li	a3,5
 10015b4:	cf860613          	addi	a2,a2,-776 # 100ccf8 <rand+0x7a>
 10015b8:	00b10593          	addi	a1,sp,11
 10015bc:	854e                	mv	a0,s3
 10015be:	3f29                	jal	10014d8 <print_string>
 10015c0:	8c26                	mv	s8,s1
 10015c2:	a895                	j	1001636 <print_string_log_raw+0x12a>
 10015c4:	4681                	li	a3,0
 10015c6:	b759                	j	100154c <print_string_log_raw+0x40>
 10015c8:	05800713          	li	a4,88
 10015cc:	14e78063          	beq	a5,a4,100170c <print_string_log_raw+0x200>
 10015d0:	06300713          	li	a4,99
 10015d4:	fce79de3          	bne	a5,a4,10015ae <print_string_log_raw+0xa2>
 10015d8:	409c                	lw	a5,0(s1)
 10015da:	00448c13          	addi	s8,s1,4
 10015de:	4685                	li	a3,1
 10015e0:	c63e                	sw	a5,12(sp)
 10015e2:	0070                	addi	a2,sp,12
 10015e4:	00b10593          	addi	a1,sp,11
 10015e8:	854e                	mv	a0,s3
 10015ea:	35fd                	jal	10014d8 <print_string>
 10015ec:	a0a9                	j	1001636 <print_string_log_raw+0x12a>
 10015ee:	07500713          	li	a4,117
 10015f2:	10e78963          	beq	a5,a4,1001704 <print_string_log_raw+0x1f8>
 10015f6:	04f74263          	blt	a4,a5,100163a <print_string_log_raw+0x12e>
 10015fa:	07000713          	li	a4,112
 10015fe:	12e78063          	beq	a5,a4,100171e <print_string_log_raw+0x212>
 1001602:	07300713          	li	a4,115
 1001606:	fae794e3          	bne	a5,a4,10015ae <print_string_log_raw+0xa2>
 100160a:	00448c13          	addi	s8,s1,4
 100160e:	4090                	lw	a2,0(s1)
 1001610:	4481                	li	s1,0
 1001612:	009607b3          	add	a5,a2,s1
 1001616:	00078783          	lb	a5,0(a5)
 100161a:	0c079b63          	bnez	a5,10016f0 <print_string_log_raw+0x1e4>
 100161e:	86a6                	mv	a3,s1
 1001620:	00b10593          	addi	a1,sp,11
 1001624:	854e                	mv	a0,s3
 1001626:	3d4d                	jal	10014d8 <print_string>
 1001628:	0084f763          	bgeu	s1,s0,1001636 <print_string_log_raw+0x12a>
 100162c:	8c05                	sub	s0,s0,s1
 100162e:	54fd                	li	s1,-1
 1001630:	147d                	addi	s0,s0,-1
 1001632:	0c941163          	bne	s0,s1,10016f4 <print_string_log_raw+0x1e8>
 1001636:	84e2                	mv	s1,s8
 1001638:	bdf5                	j	1001534 <print_string_log_raw+0x28>
 100163a:	07800713          	li	a4,120
 100163e:	0ee78063          	beq	a5,a4,100171e <print_string_log_raw+0x212>
 1001642:	07a00713          	li	a4,122
 1001646:	f6e794e3          	bne	a5,a4,10015ae <print_string_log_raw+0xa2>
 100164a:	409c                	lw	a5,0(s1)
 100164c:	00448c13          	addi	s8,s1,4
 1001650:	0207c263          	bltz	a5,1001674 <print_string_log_raw+0x168>
 1001654:	c63e                	sw	a5,12(sp)
 1001656:	4701                	li	a4,0
 1001658:	a015                	j	100167c <print_string_log_raw+0x170>
 100165a:	00d79663          	bne	a5,a3,1001666 <print_string_log_raw+0x15a>
 100165e:	00041463          	bnez	s0,1001666 <print_string_log_raw+0x15a>
 1001662:	03000813          	li	a6,48
 1001666:	02b40433          	mul	s0,s0,a1
 100166a:	864a                	mv	a2,s2
 100166c:	fd040413          	addi	s0,s0,-48
 1001670:	943e                	add	s0,s0,a5
 1001672:	bf29                	j	100158c <print_string_log_raw+0x80>
 1001674:	40f007b3          	neg	a5,a5
 1001678:	c63e                	sw	a5,12(sp)
 100167a:	4705                	li	a4,1
 100167c:	47a9                	li	a5,10
 100167e:	48b2                	lw	a7,12(sp)
 1001680:	4605                	li	a2,1
 1001682:	02f606b3          	mul	a3,a2,a5
 1001686:	00d8e663          	bltu	a7,a3,1001692 <print_string_log_raw+0x186>
 100168a:	02f6d5b3          	divu	a1,a3,a5
 100168e:	08c58f63          	beq	a1,a2,100172c <print_string_log_raw+0x220>
 1001692:	4681                	li	a3,0
 1001694:	00070d63          	beqz	a4,10016ae <print_string_log_raw+0x1a2>
 1001698:	03000593          	li	a1,48
 100169c:	147d                	addi	s0,s0,-1
 100169e:	00b81863          	bne	a6,a1,10016ae <print_string_log_raw+0x1a2>
 10016a2:	02d00693          	li	a3,45
 10016a6:	00d10823          	sb	a3,16(sp)
 10016aa:	86ba                	mv	a3,a4
 10016ac:	4701                	li	a4,0
 10016ae:	ffe40593          	addi	a1,s0,-2
 10016b2:	4535                	li	a0,13
 10016b4:	00b56f63          	bltu	a0,a1,10016d2 <print_string_log_raw+0x1c6>
 10016b8:	0808                	addi	a0,sp,16
 10016ba:	fff40593          	addi	a1,s0,-1
 10016be:	9536                	add	a0,a0,a3
 10016c0:	01050023          	sb	a6,0(a0) # 10010000 <gWdtInit>
 10016c4:	15fd                	addi	a1,a1,-1
 10016c6:	0505                	addi	a0,a0,1
 10016c8:	fe059ce3          	bnez	a1,10016c0 <print_string_log_raw+0x1b4>
 10016cc:	9436                	add	s0,s0,a3
 10016ce:	fff40693          	addi	a3,s0,-1
 10016d2:	00070963          	beqz	a4,10016e4 <print_string_log_raw+0x1d8>
 10016d6:	1018                	addi	a4,sp,32
 10016d8:	9736                	add	a4,a4,a3
 10016da:	02d00593          	li	a1,45
 10016de:	feb70823          	sb	a1,-16(a4)
 10016e2:	0685                	addi	a3,a3,1
 10016e4:	07800593          	li	a1,120
 10016e8:	04061563          	bnez	a2,1001732 <print_string_log_raw+0x226>
 10016ec:	0810                	addi	a2,sp,16
 10016ee:	bddd                	j	10015e4 <print_string_log_raw+0xd8>
 10016f0:	0485                	addi	s1,s1,1
 10016f2:	b705                	j	1001612 <print_string_log_raw+0x106>
 10016f4:	4685                	li	a3,1
 10016f6:	cccb8613          	addi	a2,s7,-820 # 100cccc <rand+0x4e>
 10016fa:	00b10593          	addi	a1,sp,11
 10016fe:	854e                	mv	a0,s3
 1001700:	3be1                	jal	10014d8 <print_string>
 1001702:	b73d                	j	1001630 <print_string_log_raw+0x124>
 1001704:	00448c13          	addi	s8,s1,4
 1001708:	409c                	lw	a5,0(s1)
 100170a:	b7a9                	j	1001654 <print_string_log_raw+0x148>
 100170c:	409c                	lw	a5,0(s1)
 100170e:	00448c13          	addi	s8,s1,4
 1001712:	05800a13          	li	s4,88
 1001716:	c63e                	sw	a5,12(sp)
 1001718:	4701                	li	a4,0
 100171a:	47c1                	li	a5,16
 100171c:	b78d                	j	100167e <print_string_log_raw+0x172>
 100171e:	409c                	lw	a5,0(s1)
 1001720:	00448c13          	addi	s8,s1,4
 1001724:	07800a13          	li	s4,120
 1001728:	c63e                	sw	a5,12(sp)
 100172a:	b7fd                	j	1001718 <print_string_log_raw+0x20c>
 100172c:	147d                	addi	s0,s0,-1
 100172e:	8636                	mv	a2,a3
 1001730:	bf89                	j	1001682 <print_string_log_raw+0x176>
 1001732:	02c8d733          	divu	a4,a7,a2
 1001736:	02f77733          	remu	a4,a4,a5
 100173a:	00ba1d63          	bne	s4,a1,1001754 <print_string_log_raw+0x248>
 100173e:	975a                	add	a4,a4,s6
 1001740:	00070703          	lb	a4,0(a4)
 1001744:	0808                	addi	a0,sp,16
 1001746:	9536                	add	a0,a0,a3
 1001748:	00e50023          	sb	a4,0(a0)
 100174c:	0685                	addi	a3,a3,1
 100174e:	02f65633          	divu	a2,a2,a5
 1001752:	bf59                	j	10016e8 <print_string_log_raw+0x1dc>
 1001754:	9756                	add	a4,a4,s5
 1001756:	b7ed                	j	1001740 <print_string_log_raw+0x234>

01001758 <print_string_log>:
print_string_log():
 1001758:	7111                	addi	sp,sp,-256
 100175a:	d3ae                	sw	a1,228(sp)
 100175c:	d5b2                	sw	a2,232(sp)
 100175e:	d7b6                	sw	a3,236(sp)
 1001760:	862a                	mv	a2,a0
 1001762:	11d4                	addi	a3,sp,228
 1001764:	0c800593          	li	a1,200
 1001768:	0028                	addi	a0,sp,8
 100176a:	cf86                	sw	ra,220(sp)
 100176c:	d9ba                	sw	a4,240(sp)
 100176e:	dbbe                	sw	a5,244(sp)
 1001770:	ddc2                	sw	a6,248(sp)
 1001772:	dfc6                	sw	a7,252(sp)
 1001774:	c236                	sw	a3,4(sp)
 1001776:	3b59                	jal	100150c <print_string_log_raw>
 1001778:	00050563          	beqz	a0,1001782 <print_string_log+0x2a>
 100177c:	85aa                	mv	a1,a0
 100177e:	0028                	addi	a0,sp,8
 1001780:	3b01                	jal	1001490 <print_string_to_uart>
 1001782:	40fe                	lw	ra,220(sp)
 1001784:	6111                	addi	sp,sp,256
 1001786:	8082                	ret

01001788 <RV_EnableIRQ>:
RV_EnableIRQ():
 1001788:	02054563          	bltz	a0,10017b2 <RV_EnableIRQ+0x2a>
 100178c:	0ff57713          	andi	a4,a0,255
 1001790:	000207b7          	lui	a5,0x20
 1001794:	a0078793          	addi	a5,a5,-1536 # 1fa00 <__EN_MIE-0xfe067e>
 1001798:	830d                	srli	a4,a4,0x3
 100179a:	973e                	add	a4,a4,a5
 100179c:	00074683          	lbu	a3,0(a4)
 10017a0:	891d                	andi	a0,a0,7
 10017a2:	4785                	li	a5,1
 10017a4:	00a797b3          	sll	a5,a5,a0
 10017a8:	8fd5                	or	a5,a5,a3
 10017aa:	0ff7f793          	andi	a5,a5,255
 10017ae:	00f70023          	sb	a5,0(a4)
 10017b2:	8082                	ret

010017b4 <RV_DisableIRQ>:
RV_DisableIRQ():
 10017b4:	02054563          	bltz	a0,10017de <RV_DisableIRQ+0x2a>
 10017b8:	0ff57713          	andi	a4,a0,255
 10017bc:	000207b7          	lui	a5,0x20
 10017c0:	a0078793          	addi	a5,a5,-1536 # 1fa00 <__EN_MIE-0xfe067e>
 10017c4:	830d                	srli	a4,a4,0x3
 10017c6:	973e                	add	a4,a4,a5
 10017c8:	00074683          	lbu	a3,0(a4)
 10017cc:	891d                	andi	a0,a0,7
 10017ce:	4785                	li	a5,1
 10017d0:	00a797b3          	sll	a5,a5,a0
 10017d4:	fff7c793          	not	a5,a5
 10017d8:	8ff5                	and	a5,a5,a3
 10017da:	00f70023          	sb	a5,0(a4)
 10017de:	8082                	ret

010017e0 <RV_SetPriority>:
RV_SetPriority():
 10017e0:	02054963          	bltz	a0,1001812 <RV_SetPriority+0x32>
 10017e4:	fff58793          	addi	a5,a1,-1
 10017e8:	4739                	li	a4,14
 10017ea:	02f76463          	bltu	a4,a5,1001812 <RV_SetPriority+0x32>
 10017ee:	0ff57793          	andi	a5,a0,255
 10017f2:	677d                	lui	a4,0x1f
 10017f4:	40070713          	addi	a4,a4,1024 # 1f400 <__EN_MIE-0xfe0c7e>
 10017f8:	8385                	srli	a5,a5,0x1
 10017fa:	97ba                	add	a5,a5,a4
 10017fc:	0007c703          	lbu	a4,0(a5)
 1001800:	8905                	andi	a0,a0,1
 1001802:	050a                	slli	a0,a0,0x2
 1001804:	00a595b3          	sll	a1,a1,a0
 1001808:	8dd9                	or	a1,a1,a4
 100180a:	0ff5f593          	andi	a1,a1,255
 100180e:	00b78023          	sb	a1,0(a5)
 1001812:	8082                	ret

01001814 <NVIC_Configuration>:
NVIC_Configuration():
 1001814:	2640b2ef          	jal	t0,100ca78 <__riscv_save_0>
 1001818:	1141                	addi	sp,sp,-16
 100181a:	4785                	li	a5,1
 100181c:	c62e                	sw	a1,12(sp)
 100181e:	842a                	mv	s0,a0
 1001820:	00f61963          	bne	a2,a5,1001832 <NVIC_Configuration+0x1e>
 1001824:	3795                	jal	1001788 <RV_EnableIRQ>
 1001826:	45b2                	lw	a1,12(sp)
 1001828:	8522                	mv	a0,s0
 100182a:	3f5d                	jal	10017e0 <RV_SetPriority>
 100182c:	0141                	addi	sp,sp,16
 100182e:	26e0b06f          	j	100ca9c <__riscv_restore_0>
 1001832:	3749                	jal	10017b4 <RV_DisableIRQ>
 1001834:	bfcd                	j	1001826 <NVIC_Configuration+0x12>

01001836 <xmemcpy>:
xmemcpy():
 1001836:	4781                	li	a5,0
 1001838:	10000837          	lui	a6,0x10000
 100183c:	00c7c363          	blt	a5,a2,1001842 <xmemcpy+0xc>
 1001840:	8082                	ret
 1001842:	00f586b3          	add	a3,a1,a5
 1001846:	0106e6b3          	or	a3,a3,a6
 100184a:	0006c683          	lbu	a3,0(a3) # 10000000 <_sidata+0xeff0428>
 100184e:	00f50733          	add	a4,a0,a5
 1001852:	01076733          	or	a4,a4,a6
 1001856:	0ff6f693          	andi	a3,a3,255
 100185a:	00d70023          	sb	a3,0(a4)
 100185e:	0785                	addi	a5,a5,1
 1001860:	bff1                	j	100183c <xmemcpy+0x6>

01001862 <_assert_handler>:
_assert_handler():
 1001862:	a001                	j	1001862 <_assert_handler>

01001864 <xramcmp>:
xramcmp():
 1001864:	4781                	li	a5,0
 1001866:	100006b7          	lui	a3,0x10000
 100186a:	00c7c463          	blt	a5,a2,1001872 <xramcmp+0xe>
 100186e:	4505                	li	a0,1
 1001870:	8082                	ret
 1001872:	00f50733          	add	a4,a0,a5
 1001876:	8f55                	or	a4,a4,a3
 1001878:	00074803          	lbu	a6,0(a4)
 100187c:	00f58733          	add	a4,a1,a5
 1001880:	8f55                	or	a4,a4,a3
 1001882:	00074703          	lbu	a4,0(a4)
 1001886:	0ff77713          	andi	a4,a4,255
 100188a:	01071463          	bne	a4,a6,1001892 <xramcmp+0x2e>
 100188e:	0785                	addi	a5,a5,1
 1001890:	bfe9                	j	100186a <xramcmp+0x6>
 1001892:	4501                	li	a0,0
 1001894:	8082                	ret

01001896 <CoreReg_ClkControl>:
CoreReg_ClkControl():
 1001896:	00f51793          	slli	a5,a0,0xf
 100189a:	10008737          	lui	a4,0x10008
 100189e:	0407d263          	bgez	a5,10018e2 <CoreReg_ClkControl+0x4c>
 10018a2:	01b74683          	lbu	a3,27(a4) # 1000801b <_sidata+0xeff8443>
 10018a6:	01c74783          	lbu	a5,28(a4)
 10018aa:	0ff57713          	andi	a4,a0,255
 10018ae:	07a2                	slli	a5,a5,0x8
 10018b0:	8fd5                	or	a5,a5,a3
 10018b2:	07c2                	slli	a5,a5,0x10
 10018b4:	87c1                	srai	a5,a5,0x10
 10018b6:	02058163          	beqz	a1,10018d8 <CoreReg_ClkControl+0x42>
 10018ba:	fff74513          	not	a0,a4
 10018be:	8d7d                	and	a0,a0,a5
 10018c0:	0542                	slli	a0,a0,0x10
 10018c2:	8141                	srli	a0,a0,0x10
 10018c4:	0ff57713          	andi	a4,a0,255
 10018c8:	100087b7          	lui	a5,0x10008
 10018cc:	00e78da3          	sb	a4,27(a5) # 1000801b <_sidata+0xeff8443>
 10018d0:	8121                	srli	a0,a0,0x8
 10018d2:	00a78e23          	sb	a0,28(a5)
 10018d6:	8082                	ret
 10018d8:	01079513          	slli	a0,a5,0x10
 10018dc:	8141                	srli	a0,a0,0x10
 10018de:	8d59                	or	a0,a0,a4
 10018e0:	b7d5                	j	10018c4 <CoreReg_ClkControl+0x2e>
 10018e2:	05074683          	lbu	a3,80(a4)
 10018e6:	05174783          	lbu	a5,81(a4)
 10018ea:	0542                	slli	a0,a0,0x10
 10018ec:	8141                	srli	a0,a0,0x10
 10018ee:	07a2                	slli	a5,a5,0x8
 10018f0:	8fd5                	or	a5,a5,a3
 10018f2:	00a7e733          	or	a4,a5,a0
 10018f6:	00058663          	beqz	a1,1001902 <CoreReg_ClkControl+0x6c>
 10018fa:	fff54513          	not	a0,a0
 10018fe:	00a7f733          	and	a4,a5,a0
 1001902:	100087b7          	lui	a5,0x10008
 1001906:	0ff77693          	andi	a3,a4,255
 100190a:	00875513          	srli	a0,a4,0x8
 100190e:	04d78823          	sb	a3,80(a5) # 10008050 <_sidata+0xeff8478>
 1001912:	04a788a3          	sb	a0,81(a5)
 1001916:	8082                	ret

01001918 <SetLockLpmWriteReg>:
SetLockLpmWriteReg():
 1001918:	100057b7          	lui	a5,0x10005
 100191c:	4705                	li	a4,1
 100191e:	bee78d23          	sb	a4,-1030(a5) # 10004bfa <_sidata+0xeff5022>
 1001922:	03500713          	li	a4,53
 1001926:	bee78e23          	sb	a4,-1028(a5)
 100192a:	03500693          	li	a3,53
 100192e:	10005737          	lui	a4,0x10005
 1001932:	bfb74783          	lbu	a5,-1029(a4) # 10004bfb <_sidata+0xeff5023>
 1001936:	0ff7f793          	andi	a5,a5,255
 100193a:	00078663          	beqz	a5,1001946 <SetLockLpmWriteReg+0x2e>
 100193e:	bfc74783          	lbu	a5,-1028(a4)
 1001942:	fef688e3          	beq	a3,a5,1001932 <SetLockLpmWriteReg+0x1a>
 1001946:	8082                	ret

01001948 <SetReleaseLpmWriteReg>:
SetReleaseLpmWriteReg():
 1001948:	100057b7          	lui	a5,0x10005
 100194c:	be078d23          	sb	zero,-1030(a5) # 10004bfa <_sidata+0xeff5022>
 1001950:	8082                	ret

01001952 <CoreReg_LpmWriteCommon>:
CoreReg_LpmWriteCommon():
 1001952:	1260b2ef          	jal	t0,100ca78 <__riscv_save_0>
 1001956:	1141                	addi	sp,sp,-16
 1001958:	c62a                	sw	a0,12(sp)
 100195a:	c42e                	sw	a1,8(sp)
 100195c:	c232                	sw	a2,4(sp)
 100195e:	30047073          	csrci	mstatus,8
 1001962:	10011437          	lui	s0,0x10011
 1001966:	cec45783          	lhu	a5,-788(s0) # 10010cec <gOsEnterCriticalCnt>
 100196a:	0785                	addi	a5,a5,1
 100196c:	cef41623          	sh	a5,-788(s0)
 1001970:	3765                	jal	1001918 <SetLockLpmWriteReg>
 1001972:	4532                	lw	a0,12(sp)
 1001974:	100087b7          	lui	a5,0x10008
 1001978:	0ff57713          	andi	a4,a0,255
 100197c:	04e78623          	sb	a4,76(a5) # 1000804c <_sidata+0xeff8474>
 1001980:	40855713          	srai	a4,a0,0x8
 1001984:	0ff77713          	andi	a4,a4,255
 1001988:	04e786a3          	sb	a4,77(a5)
 100198c:	41055713          	srai	a4,a0,0x10
 1001990:	0ff77713          	andi	a4,a4,255
 1001994:	04e78723          	sb	a4,78(a5)
 1001998:	8161                	srli	a0,a0,0x18
 100199a:	04a787a3          	sb	a0,79(a5)
 100199e:	45a2                	lw	a1,8(sp)
 10019a0:	100007b7          	lui	a5,0x10000
 10019a4:	4612                	lw	a2,4(sp)
 10019a6:	8ddd                	or	a1,a1,a5
 10019a8:	0005c783          	lbu	a5,0(a1)
 10019ac:	3e800513          	li	a0,1000
 10019b0:	8e5d                	or	a2,a2,a5
 10019b2:	00c58023          	sb	a2,0(a1)
 10019b6:	2249                	jal	1001b38 <wait_lpodelay>
 10019b8:	3f41                	jal	1001948 <SetReleaseLpmWriteReg>
 10019ba:	cec45783          	lhu	a5,-788(s0)
 10019be:	17fd                	addi	a5,a5,-1
 10019c0:	07c2                	slli	a5,a5,0x10
 10019c2:	83c1                	srli	a5,a5,0x10
 10019c4:	cef41623          	sh	a5,-788(s0)
 10019c8:	00079463          	bnez	a5,10019d0 <CoreReg_LpmWriteCommon+0x7e>
 10019cc:	30046073          	csrsi	mstatus,8
 10019d0:	0141                	addi	sp,sp,16
 10019d2:	0ca0b06f          	j	100ca9c <__riscv_restore_0>

010019d6 <CoreReg_LpmWrite2>:
CoreReg_LpmWrite2():
 10019d6:	0a20b2ef          	jal	t0,100ca78 <__riscv_save_0>
 10019da:	862e                	mv	a2,a1
 10019dc:	65a1                	lui	a1,0x8
 10019de:	05e5                	addi	a1,a1,25
 10019e0:	3f8d                	jal	1001952 <CoreReg_LpmWriteCommon>
 10019e2:	0ba0b06f          	j	100ca9c <__riscv_restore_0>

010019e6 <CoreReg_LpmWrite2LdoControl>:
CoreReg_LpmWrite2LdoControl():
 10019e6:	0920b2ef          	jal	t0,100ca78 <__riscv_save_0>
 10019ea:	4591                	li	a1,4
 10019ec:	37ed                	jal	10019d6 <CoreReg_LpmWrite2>
 10019ee:	0ae0b06f          	j	100ca9c <__riscv_restore_0>

010019f2 <CoreReg_LpmWrite2IceWdtLongRst>:
CoreReg_LpmWrite2IceWdtLongRst():
 10019f2:	0860b2ef          	jal	t0,100ca78 <__riscv_save_0>
 10019f6:	08000593          	li	a1,128
 10019fa:	3ff1                	jal	10019d6 <CoreReg_LpmWrite2>
 10019fc:	0a00b06f          	j	100ca9c <__riscv_restore_0>

01001a00 <CoreReg_LpmGetIceWdtLongRst>:
CoreReg_LpmGetIceWdtLongRst():
 1001a00:	10008737          	lui	a4,0x10008
 1001a04:	3a874603          	lbu	a2,936(a4) # 100083a8 <_sidata+0xeff87d0>
 1001a08:	3a974783          	lbu	a5,937(a4)
 1001a0c:	3aa74683          	lbu	a3,938(a4)
 1001a10:	3ab74503          	lbu	a0,939(a4)
 1001a14:	07a2                	slli	a5,a5,0x8
 1001a16:	01069713          	slli	a4,a3,0x10
 1001a1a:	8fd9                	or	a5,a5,a4
 1001a1c:	8fd1                	or	a5,a5,a2
 1001a1e:	0562                	slli	a0,a0,0x18
 1001a20:	8d5d                	or	a0,a0,a5
 1001a22:	8082                	ret

01001a24 <Audio_AdcDSMDIV_12MConfig>:
Audio_AdcDSMDIV_12MConfig():
 1001a24:	100087b7          	lui	a5,0x10008
 1001a28:	0ff57513          	andi	a0,a0,255
 1001a2c:	18a78323          	sb	a0,390(a5) # 10008186 <_sidata+0xeff85ae>
 1001a30:	0ff5f713          	andi	a4,a1,255
 1001a34:	18e781a3          	sb	a4,387(a5)
 1001a38:	4085d713          	srai	a4,a1,0x8
 1001a3c:	0ff77713          	andi	a4,a4,255
 1001a40:	85c1                	srai	a1,a1,0x10
 1001a42:	18e78223          	sb	a4,388(a5)
 1001a46:	0ff5f593          	andi	a1,a1,255
 1001a4a:	18b782a3          	sb	a1,389(a5)
 1001a4e:	1877c703          	lbu	a4,391(a5)
 1001a52:	07f77713          	andi	a4,a4,127
 1001a56:	18e783a3          	sb	a4,391(a5)
 1001a5a:	1877c703          	lbu	a4,391(a5)
 1001a5e:	08076713          	ori	a4,a4,128
 1001a62:	18e783a3          	sb	a4,391(a5)
 1001a66:	8082                	ret

01001a68 <Audio_AdcDSMDIV_12MEnable>:
Audio_AdcDSMDIV_12MEnable():
 1001a68:	100087b7          	lui	a5,0x10008
 1001a6c:	1877c703          	lbu	a4,391(a5) # 10008187 <_sidata+0xeff85af>
 1001a70:	0586                	slli	a1,a1,0x1
 1001a72:	0521                	addi	a0,a0,8
 1001a74:	07f77713          	andi	a4,a4,127
 1001a78:	18e783a3          	sb	a4,391(a5)
 1001a7c:	1877c703          	lbu	a4,391(a5)
 1001a80:	95aa                	add	a1,a1,a0
 1001a82:	060a                	slli	a2,a2,0x2
 1001a84:	95b2                	add	a1,a1,a2
 1001a86:	0592                	slli	a1,a1,0x4
 1001a88:	8b3d                	andi	a4,a4,15
 1001a8a:	95ba                	add	a1,a1,a4
 1001a8c:	0ff5f593          	andi	a1,a1,255
 1001a90:	18b783a3          	sb	a1,391(a5)
 1001a94:	8082                	ret

01001a96 <Audio_AdcDSMDIV_11MConfig>:
Audio_AdcDSMDIV_11MConfig():
 1001a96:	100087b7          	lui	a5,0x10008
 1001a9a:	0ff57513          	andi	a0,a0,255
 1001a9e:	18a78123          	sb	a0,386(a5) # 10008182 <_sidata+0xeff85aa>
 1001aa2:	0ff5f713          	andi	a4,a1,255
 1001aa6:	0ce780a3          	sb	a4,193(a5)
 1001aaa:	4085d713          	srai	a4,a1,0x8
 1001aae:	0ff77713          	andi	a4,a4,255
 1001ab2:	85c1                	srai	a1,a1,0x10
 1001ab4:	0ce78123          	sb	a4,194(a5)
 1001ab8:	0ff5f593          	andi	a1,a1,255
 1001abc:	0cb781a3          	sb	a1,195(a5)
 1001ac0:	1877c703          	lbu	a4,391(a5)
 1001ac4:	0f777713          	andi	a4,a4,247
 1001ac8:	18e783a3          	sb	a4,391(a5)
 1001acc:	1877c703          	lbu	a4,391(a5)
 1001ad0:	00876713          	ori	a4,a4,8
 1001ad4:	18e783a3          	sb	a4,391(a5)
 1001ad8:	8082                	ret

01001ada <Audio_AdcDSMDIV_11MEnable>:
Audio_AdcDSMDIV_11MEnable():
 1001ada:	10008737          	lui	a4,0x10008
 1001ade:	18774783          	lbu	a5,391(a4) # 10008187 <_sidata+0xeff85af>
 1001ae2:	0586                	slli	a1,a1,0x1
 1001ae4:	060a                	slli	a2,a2,0x2
 1001ae6:	0f77f793          	andi	a5,a5,247
 1001aea:	18f703a3          	sb	a5,391(a4)
 1001aee:	18774783          	lbu	a5,391(a4)
 1001af2:	0f07f793          	andi	a5,a5,240
 1001af6:	07a1                	addi	a5,a5,8
 1001af8:	953e                	add	a0,a0,a5
 1001afa:	952e                	add	a0,a0,a1
 1001afc:	9532                	add	a0,a0,a2
 1001afe:	0ff57513          	andi	a0,a0,255
 1001b02:	18a703a3          	sb	a0,391(a4)
 1001b06:	8082                	ret

01001b08 <Audio_ClkInit>:
Audio_ClkInit():
 1001b08:	7710a2ef          	jal	t0,100ca78 <__riscv_save_0>
 1001b0c:	008005b7          	lui	a1,0x800
 1001b10:	03e00513          	li	a0,62
 1001b14:	3f01                	jal	1001a24 <Audio_AdcDSMDIV_12MConfig>
 1001b16:	4601                	li	a2,0
 1001b18:	4581                	li	a1,0
 1001b1a:	4505                	li	a0,1
 1001b1c:	37b1                	jal	1001a68 <Audio_AdcDSMDIV_12MEnable>
 1001b1e:	0006f5b7          	lui	a1,0x6f
 1001b22:	74a58593          	addi	a1,a1,1866 # 6f74a <__EN_MIE-0xf90934>
 1001b26:	04400513          	li	a0,68
 1001b2a:	37b5                	jal	1001a96 <Audio_AdcDSMDIV_11MConfig>
 1001b2c:	4601                	li	a2,0
 1001b2e:	4581                	li	a1,0
 1001b30:	4505                	li	a0,1
 1001b32:	3765                	jal	1001ada <Audio_AdcDSMDIV_11MEnable>
 1001b34:	7690a06f          	j	100ca9c <__riscv_restore_0>

01001b38 <wait_lpodelay>:
wait_lpodelay():
 1001b38:	7410a2ef          	jal	t0,100ca78 <__riscv_save_0>
 1001b3c:	842a                	mv	s0,a0
 1001b3e:	5c8020ef          	jal	ra,1004106 <System_WorkClockGet>
 1001b42:	001e87b7          	lui	a5,0x1e8
 1001b46:	48078793          	addi	a5,a5,1152 # 1e8480 <__EN_MIE-0xe17bfe>
 1001b4a:	02f55533          	divu	a0,a0,a5
 1001b4e:	02850533          	mul	a0,a0,s0
 1001b52:	e86fe0ef          	jal	ra,10001d8 <lpo_delay>
 1001b56:	7470a06f          	j	100ca9c <__riscv_restore_0>

01001b5a <SYS_RESET>:
SYS_RESET():
 1001b5a:	100087b7          	lui	a5,0x10008
 1001b5e:	470d                	li	a4,3
 1001b60:	00e78823          	sb	a4,16(a5) # 10008010 <_sidata+0xeff8438>
 1001b64:	8082                	ret

01001b66 <prvInsertBlockIntoFreeList>:
prvInsertBlockIntoFreeList():
 1001b66:	100107b7          	lui	a5,0x10010
 1001b6a:	5f878793          	addi	a5,a5,1528 # 100105f8 <xStart>
 1001b6e:	4398                	lw	a4,0(a5)
 1001b70:	02a76f63          	bltu	a4,a0,1001bae <prvInsertBlockIntoFreeList+0x48>
 1001b74:	43d0                	lw	a2,4(a5)
 1001b76:	00c786b3          	add	a3,a5,a2
 1001b7a:	00d51663          	bne	a0,a3,1001b86 <prvInsertBlockIntoFreeList+0x20>
 1001b7e:	4154                	lw	a3,4(a0)
 1001b80:	853e                	mv	a0,a5
 1001b82:	96b2                	add	a3,a3,a2
 1001b84:	c3d4                	sw	a3,4(a5)
 1001b86:	4150                	lw	a2,4(a0)
 1001b88:	00c506b3          	add	a3,a0,a2
 1001b8c:	00d71c63          	bne	a4,a3,1001ba4 <prvInsertBlockIntoFreeList+0x3e>
 1001b90:	100106b7          	lui	a3,0x10010
 1001b94:	6006a683          	lw	a3,1536(a3) # 10010600 <pxEnd>
 1001b98:	00d70663          	beq	a4,a3,1001ba4 <prvInsertBlockIntoFreeList+0x3e>
 1001b9c:	4354                	lw	a3,4(a4)
 1001b9e:	4318                	lw	a4,0(a4)
 1001ba0:	96b2                	add	a3,a3,a2
 1001ba2:	c154                	sw	a3,4(a0)
 1001ba4:	c118                	sw	a4,0(a0)
 1001ba6:	00f50363          	beq	a0,a5,1001bac <prvInsertBlockIntoFreeList+0x46>
 1001baa:	c388                	sw	a0,0(a5)
 1001bac:	8082                	ret
 1001bae:	87ba                	mv	a5,a4
 1001bb0:	bf7d                	j	1001b6e <prvInsertBlockIntoFreeList+0x8>

01001bb2 <Memory_Malloc>:
Memory_Malloc():
 1001bb2:	6ad0a2ef          	jal	t0,100ca5e <__riscv_save_4>
 1001bb6:	10010737          	lui	a4,0x10010
 1001bba:	5e872483          	lw	s1,1512(a4) # 100105e8 <xFreeBytesRemaining>
 1001bbe:	052d                	addi	a0,a0,11
 1001bc0:	ffc57793          	andi	a5,a0,-4
 1001bc4:	08f4e563          	bltu	s1,a5,1001c4e <Memory_Malloc+0x9c>
 1001bc8:	89ba                	mv	s3,a4
 1001bca:	10010737          	lui	a4,0x10010
 1001bce:	5f872403          	lw	s0,1528(a4) # 100105f8 <xStart>
 1001bd2:	5f870713          	addi	a4,a4,1528
 1001bd6:	4054                	lw	a3,4(s0)
 1001bd8:	00f6f563          	bgeu	a3,a5,1001be2 <Memory_Malloc+0x30>
 1001bdc:	4010                	lw	a2,0(s0)
 1001bde:	06061563          	bnez	a2,1001c48 <Memory_Malloc+0x96>
 1001be2:	10010637          	lui	a2,0x10010
 1001be6:	60062603          	lw	a2,1536(a2) # 10010600 <pxEnd>
 1001bea:	4901                	li	s2,0
 1001bec:	04860b63          	beq	a2,s0,1001c42 <Memory_Malloc+0x90>
 1001bf0:	4010                	lw	a2,0(s0)
 1001bf2:	00072903          	lw	s2,0(a4)
 1001bf6:	c310                	sw	a2,0(a4)
 1001bf8:	40f68733          	sub	a4,a3,a5
 1001bfc:	46c1                	li	a3,16
 1001bfe:	0921                	addi	s2,s2,8
 1001c00:	00e6f763          	bgeu	a3,a4,1001c0e <Memory_Malloc+0x5c>
 1001c04:	00f40533          	add	a0,s0,a5
 1001c08:	c158                	sw	a4,4(a0)
 1001c0a:	c05c                	sw	a5,4(s0)
 1001c0c:	3fa9                	jal	1001b66 <prvInsertBlockIntoFreeList>
 1001c0e:	4058                	lw	a4,4(s0)
 1001c10:	100106b7          	lui	a3,0x10010
 1001c14:	5ec6a603          	lw	a2,1516(a3) # 100105ec <xMinimumEverFreeBytesRemaining>
 1001c18:	40e487b3          	sub	a5,s1,a4
 1001c1c:	5ef9a423          	sw	a5,1512(s3)
 1001c20:	00c7f463          	bgeu	a5,a2,1001c28 <Memory_Malloc+0x76>
 1001c24:	5ef6a623          	sw	a5,1516(a3)
 1001c28:	800007b7          	lui	a5,0x80000
 1001c2c:	8f5d                	or	a4,a4,a5
 1001c2e:	c058                	sw	a4,4(s0)
 1001c30:	10010737          	lui	a4,0x10010
 1001c34:	5f072783          	lw	a5,1520(a4) # 100105f0 <xNumberOfSuccessfulAllocations>
 1001c38:	00042023          	sw	zero,0(s0)
 1001c3c:	0785                	addi	a5,a5,1
 1001c3e:	5ef72823          	sw	a5,1520(a4)
 1001c42:	854a                	mv	a0,s2
 1001c44:	64f0a06f          	j	100ca92 <__riscv_restore_4>
 1001c48:	8722                	mv	a4,s0
 1001c4a:	8432                	mv	s0,a2
 1001c4c:	b769                	j	1001bd6 <Memory_Malloc+0x24>
 1001c4e:	30047073          	csrci	mstatus,8
 1001c52:	10011737          	lui	a4,0x10011
 1001c56:	cec75783          	lhu	a5,-788(a4) # 10010cec <gOsEnterCriticalCnt>
 1001c5a:	0100d637          	lui	a2,0x100d
 1001c5e:	0100d537          	lui	a0,0x100d
 1001c62:	0785                	addi	a5,a5,1
 1001c64:	d2060613          	addi	a2,a2,-736 # 100cd20 <__FUNCTION__.3696>
 1001c68:	0bd00593          	li	a1,189
 1001c6c:	d0050513          	addi	a0,a0,-768 # 100cd00 <rand+0x82>
 1001c70:	cef71623          	sh	a5,-788(a4)
 1001c74:	4901                	li	s2,0
 1001c76:	36f5                	jal	1001862 <_assert_handler>
 1001c78:	b7e9                	j	1001c42 <Memory_Malloc+0x90>

01001c7a <Memory_Free>:
Memory_Free():
 1001c7a:	04050263          	beqz	a0,1001cbe <Memory_Free+0x44>
 1001c7e:	ffc52783          	lw	a5,-4(a0)
 1001c82:	0207de63          	bgez	a5,1001cbe <Memory_Free+0x44>
 1001c86:	0786                	slli	a5,a5,0x1
 1001c88:	ff852703          	lw	a4,-8(a0)
 1001c8c:	8385                	srli	a5,a5,0x1
 1001c8e:	fef52e23          	sw	a5,-4(a0)
 1001c92:	02071663          	bnez	a4,1001cbe <Memory_Free+0x44>
 1001c96:	5e30a2ef          	jal	t0,100ca78 <__riscv_save_0>
 1001c9a:	100106b7          	lui	a3,0x10010
 1001c9e:	5e86a703          	lw	a4,1512(a3) # 100105e8 <xFreeBytesRemaining>
 1001ca2:	1561                	addi	a0,a0,-8
 1001ca4:	97ba                	add	a5,a5,a4
 1001ca6:	5ef6a423          	sw	a5,1512(a3)
 1001caa:	3d75                	jal	1001b66 <prvInsertBlockIntoFreeList>
 1001cac:	10010737          	lui	a4,0x10010
 1001cb0:	5f472783          	lw	a5,1524(a4) # 100105f4 <xNumberOfSuccessfulFrees>
 1001cb4:	0785                	addi	a5,a5,1
 1001cb6:	5ef72a23          	sw	a5,1524(a4)
 1001cba:	5e30a06f          	j	100ca9c <__riscv_restore_0>
 1001cbe:	8082                	ret

01001cc0 <Memory_InitHeap>:
Memory_InitHeap():
 1001cc0:	100107b7          	lui	a5,0x10010
 1001cc4:	5f878793          	addi	a5,a5,1528 # 100105f8 <xStart>
 1001cc8:	15e1                	addi	a1,a1,-8
 1001cca:	0007a223          	sw	zero,4(a5)
 1001cce:	95aa                	add	a1,a1,a0
 1001cd0:	c388                	sw	a0,0(a5)
 1001cd2:	100107b7          	lui	a5,0x10010
 1001cd6:	10010737          	lui	a4,0x10010
 1001cda:	60b7a023          	sw	a1,1536(a5) # 10010600 <pxEnd>
 1001cde:	40a587b3          	sub	a5,a1,a0
 1001ce2:	0005a223          	sw	zero,4(a1)
 1001ce6:	0005a023          	sw	zero,0(a1)
 1001cea:	5ef72623          	sw	a5,1516(a4) # 100105ec <xMinimumEverFreeBytesRemaining>
 1001cee:	10010737          	lui	a4,0x10010
 1001cf2:	c15c                	sw	a5,4(a0)
 1001cf4:	c10c                	sw	a1,0(a0)
 1001cf6:	5ef72423          	sw	a5,1512(a4) # 100105e8 <xFreeBytesRemaining>
 1001cfa:	8082                	ret

01001cfc <swtimer_task>:
swtimer_task():
 1001cfc:	5630a2ef          	jal	t0,100ca5e <__riscv_save_4>
 1001d00:	10010937          	lui	s2,0x10010
 1001d04:	100104b7          	lui	s1,0x10010
 1001d08:	4401                	li	s0,0
 1001d0a:	10010ab7          	lui	s5,0x10010
 1001d0e:	60490913          	addi	s2,s2,1540 # 10010604 <task_func_timeout>
 1001d12:	4985                	li	s3,1
 1001d14:	10011a37          	lui	s4,0x10011
 1001d18:	67448493          	addi	s1,s1,1652 # 10010674 <task_func_array>
 1001d1c:	6acac783          	lbu	a5,1708(s5) # 100106ac <timer_num>
 1001d20:	00f46463          	bltu	s0,a5,1001d28 <swtimer_task+0x2c>
 1001d24:	56f0a06f          	j	100ca92 <__riscv_restore_4>
 1001d28:	00341793          	slli	a5,s0,0x3
 1001d2c:	97ca                	add	a5,a5,s2
 1001d2e:	0007d703          	lhu	a4,0(a5)
 1001d32:	03371463          	bne	a4,s3,1001d5a <swtimer_task+0x5e>
 1001d36:	0067d703          	lhu	a4,6(a5)
 1001d3a:	02071463          	bnez	a4,1001d62 <swtimer_task+0x66>
 1001d3e:	0027d683          	lhu	a3,2(a5)
 1001d42:	0047d703          	lhu	a4,4(a5)
 1001d46:	02e69963          	bne	a3,a4,1001d78 <swtimer_task+0x7c>
 1001d4a:	00079023          	sh	zero,0(a5)
 1001d4e:	00241793          	slli	a5,s0,0x2
 1001d52:	97a6                	add	a5,a5,s1
 1001d54:	4388                	lw	a0,0(a5)
 1001d56:	26f040ef          	jal	ra,10067c4 <app_queue_insert>
 1001d5a:	0405                	addi	s0,s0,1
 1001d5c:	0ff47413          	andi	s0,s0,255
 1001d60:	bf75                	j	1001d1c <swtimer_task+0x20>
 1001d62:	ff371ce3          	bne	a4,s3,1001d5a <swtimer_task+0x5e>
 1001d66:	0027d683          	lhu	a3,2(a5)
 1001d6a:	0047d703          	lhu	a4,4(a5)
 1001d6e:	00e69563          	bne	a3,a4,1001d78 <swtimer_task+0x7c>
 1001d72:	00079123          	sh	zero,2(a5)
 1001d76:	bfe1                	j	1001d4e <swtimer_task+0x52>
 1001d78:	30047073          	csrci	mstatus,8
 1001d7c:	0027d703          	lhu	a4,2(a5)
 1001d80:	ceca5683          	lhu	a3,-788(s4) # 10010cec <gOsEnterCriticalCnt>
 1001d84:	0705                	addi	a4,a4,1
 1001d86:	00e79123          	sh	a4,2(a5)
 1001d8a:	fc0698e3          	bnez	a3,1001d5a <swtimer_task+0x5e>
 1001d8e:	30046073          	csrsi	mstatus,8
 1001d92:	b7e1                	j	1001d5a <swtimer_task+0x5e>

01001d94 <swtimer_restart>:
swtimer_restart():
 1001d94:	100107b7          	lui	a5,0x10010
 1001d98:	6ac7c783          	lbu	a5,1708(a5) # 100106ac <timer_num>
 1001d9c:	02f57c63          	bgeu	a0,a5,1001dd4 <swtimer_restart+0x40>
 1001da0:	10010737          	lui	a4,0x10010
 1001da4:	67470713          	addi	a4,a4,1652 # 10010674 <task_func_array>
 1001da8:	00251793          	slli	a5,a0,0x2
 1001dac:	97ba                	add	a5,a5,a4
 1001dae:	4398                	lw	a4,0(a5)
 1001db0:	0f400793          	li	a5,244
 1001db4:	00070e63          	beqz	a4,1001dd0 <swtimer_restart+0x3c>
 1001db8:	100107b7          	lui	a5,0x10010
 1001dbc:	60478793          	addi	a5,a5,1540 # 10010604 <task_func_timeout>
 1001dc0:	050e                	slli	a0,a0,0x3
 1001dc2:	953e                	add	a0,a0,a5
 1001dc4:	4785                	li	a5,1
 1001dc6:	00f51023          	sh	a5,0(a0)
 1001dca:	00051123          	sh	zero,2(a0)
 1001dce:	4781                	li	a5,0
 1001dd0:	853e                	mv	a0,a5
 1001dd2:	8082                	ret
 1001dd4:	0f200793          	li	a5,242
 1001dd8:	bfe5                	j	1001dd0 <swtimer_restart+0x3c>

01001dda <swtimer_stop>:
swtimer_stop():
 1001dda:	100107b7          	lui	a5,0x10010
 1001dde:	6ac7c783          	lbu	a5,1708(a5) # 100106ac <timer_num>
 1001de2:	872a                	mv	a4,a0
 1001de4:	02f57863          	bgeu	a0,a5,1001e14 <swtimer_stop+0x3a>
 1001de8:	100106b7          	lui	a3,0x10010
 1001dec:	00251793          	slli	a5,a0,0x2
 1001df0:	67468693          	addi	a3,a3,1652 # 10010674 <task_func_array>
 1001df4:	97b6                	add	a5,a5,a3
 1001df6:	439c                	lw	a5,0(a5)
 1001df8:	0f400513          	li	a0,244
 1001dfc:	00078e63          	beqz	a5,1001e18 <swtimer_stop+0x3e>
 1001e00:	100107b7          	lui	a5,0x10010
 1001e04:	070e                	slli	a4,a4,0x3
 1001e06:	60478793          	addi	a5,a5,1540 # 10010604 <task_func_timeout>
 1001e0a:	97ba                	add	a5,a5,a4
 1001e0c:	00079023          	sh	zero,0(a5)
 1001e10:	4501                	li	a0,0
 1001e12:	8082                	ret
 1001e14:	0f200513          	li	a0,242
 1001e18:	8082                	ret

01001e1a <swtimer_start>:
swtimer_start():
 1001e1a:	100107b7          	lui	a5,0x10010
 1001e1e:	6ac7c783          	lbu	a5,1708(a5) # 100106ac <timer_num>
 1001e22:	06f57363          	bgeu	a0,a5,1001e88 <swtimer_start+0x6e>
 1001e26:	4711                	li	a4,4
 1001e28:	0f200793          	li	a5,242
 1001e2c:	04b77c63          	bgeu	a4,a1,1001e84 <swtimer_start+0x6a>
 1001e30:	10010737          	lui	a4,0x10010
 1001e34:	67470713          	addi	a4,a4,1652 # 10010674 <task_func_array>
 1001e38:	00251793          	slli	a5,a0,0x2
 1001e3c:	97ba                	add	a5,a5,a4
 1001e3e:	4398                	lw	a4,0(a5)
 1001e40:	0f400793          	li	a5,244
 1001e44:	04070063          	beqz	a4,1001e84 <swtimer_start+0x6a>
 1001e48:	30047073          	csrci	mstatus,8
 1001e4c:	100117b7          	lui	a5,0x10011
 1001e50:	cec7d703          	lhu	a4,-788(a5) # 10010cec <gOsEnterCriticalCnt>
 1001e54:	100107b7          	lui	a5,0x10010
 1001e58:	60478793          	addi	a5,a5,1540 # 10010604 <task_func_timeout>
 1001e5c:	050e                	slli	a0,a0,0x3
 1001e5e:	953e                	add	a0,a0,a5
 1001e60:	4785                	li	a5,1
 1001e62:	00f51023          	sh	a5,0(a0)
 1001e66:	4795                	li	a5,5
 1001e68:	02f5d5b3          	divu	a1,a1,a5
 1001e6c:	00051123          	sh	zero,2(a0)
 1001e70:	00c51323          	sh	a2,6(a0)
 1001e74:	4781                	li	a5,0
 1001e76:	15fd                	addi	a1,a1,-1
 1001e78:	00b51223          	sh	a1,4(a0)
 1001e7c:	00071463          	bnez	a4,1001e84 <swtimer_start+0x6a>
 1001e80:	30046073          	csrsi	mstatus,8
 1001e84:	853e                	mv	a0,a5
 1001e86:	8082                	ret
 1001e88:	0f200793          	li	a5,242
 1001e8c:	bfe5                	j	1001e84 <swtimer_start+0x6a>

01001e8e <swtimer_add>:
swtimer_add():
 1001e8e:	100107b7          	lui	a5,0x10010
 1001e92:	6ac7c583          	lbu	a1,1708(a5) # 100106ac <timer_num>
 1001e96:	4735                	li	a4,13
 1001e98:	863e                	mv	a2,a5
 1001e9a:	04b76763          	bltu	a4,a1,1001ee8 <swtimer_add+0x5a>
 1001e9e:	0f100713          	li	a4,241
 1001ea2:	02050a63          	beqz	a0,1001ed6 <swtimer_add+0x48>
 1001ea6:	10010737          	lui	a4,0x10010
 1001eaa:	67470813          	addi	a6,a4,1652 # 10010674 <task_func_array>
 1001eae:	4781                	li	a5,0
 1001eb0:	67470693          	addi	a3,a4,1652
 1001eb4:	00082883          	lw	a7,0(a6) # 10000000 <_sidata+0xeff0428>
 1001eb8:	0ff7f713          	andi	a4,a5,255
 1001ebc:	00a88d63          	beq	a7,a0,1001ed6 <swtimer_add+0x48>
 1001ec0:	00089d63          	bnez	a7,1001eda <swtimer_add+0x4c>
 1001ec4:	078a                	slli	a5,a5,0x2
 1001ec6:	97b6                	add	a5,a5,a3
 1001ec8:	c388                	sw	a0,0(a5)
 1001eca:	00e59663          	bne	a1,a4,1001ed6 <swtimer_add+0x48>
 1001ece:	00170793          	addi	a5,a4,1
 1001ed2:	6af60623          	sb	a5,1708(a2)
 1001ed6:	853a                	mv	a0,a4
 1001ed8:	8082                	ret
 1001eda:	0785                	addi	a5,a5,1
 1001edc:	0ff7f713          	andi	a4,a5,255
 1001ee0:	0811                	addi	a6,a6,4
 1001ee2:	fce5f9e3          	bgeu	a1,a4,1001eb4 <swtimer_add+0x26>
 1001ee6:	bfc5                	j	1001ed6 <swtimer_add+0x48>
 1001ee8:	0f200713          	li	a4,242
 1001eec:	b7ed                	j	1001ed6 <swtimer_add+0x48>

01001eee <software_timer_stop>:
software_timer_stop():
 1001eee:	38b0a2ef          	jal	t0,100ca78 <__riscv_save_0>
 1001ef2:	4601                	li	a2,0
 1001ef4:	45b9                	li	a1,14
 1001ef6:	03000513          	li	a0,48
 1001efa:	91bff0ef          	jal	ra,1001814 <NVIC_Configuration>
 1001efe:	39f0a06f          	j	100ca9c <__riscv_restore_0>

01001f02 <software_timer_start>:
software_timer_start():
 1001f02:	3770a2ef          	jal	t0,100ca78 <__riscv_save_0>
 1001f06:	3e800793          	li	a5,1000
 1001f0a:	02f585b3          	mul	a1,a1,a5
 1001f0e:	01002637          	lui	a2,0x1002
 1001f12:	cfc60613          	addi	a2,a2,-772 # 1001cfc <swtimer_task>
 1001f16:	0e4020ef          	jal	ra,1003ffa <SysTick_IrqInit>
 1001f1a:	3830a06f          	j	100ca9c <__riscv_restore_0>

01001f1e <Bt_SndCmdPwroff>:
Bt_SndCmdPwroff():
 1001f1e:	35b0a2ef          	jal	t0,100ca78 <__riscv_save_0>
 1001f22:	4565                	li	a0,25
 1001f24:	06b000ef          	jal	ra,100278e <IPC_TxControlCmd>
 1001f28:	3750a06f          	j	100ca9c <__riscv_restore_0>

01001f2c <MedianFilter>:
MedianFilter():
 1001f2c:	4789                	li	a5,2
 1001f2e:	04b7fa63          	bgeu	a5,a1,1001f82 <MedianFilter+0x56>
 1001f32:	00055703          	lhu	a4,0(a0)
 1001f36:	4801                	li	a6,0
 1001f38:	4781                	li	a5,0
 1001f3a:	863a                	mv	a2,a4
 1001f3c:	00181693          	slli	a3,a6,0x1
 1001f40:	96aa                	add	a3,a3,a0
 1001f42:	0006d683          	lhu	a3,0(a3)
 1001f46:	97b6                	add	a5,a5,a3
 1001f48:	88b6                	mv	a7,a3
 1001f4a:	00e6f363          	bgeu	a3,a4,1001f50 <MedianFilter+0x24>
 1001f4e:	88ba                	mv	a7,a4
 1001f50:	01089713          	slli	a4,a7,0x10
 1001f54:	8341                	srli	a4,a4,0x10
 1001f56:	88b6                	mv	a7,a3
 1001f58:	00d67363          	bgeu	a2,a3,1001f5e <MedianFilter+0x32>
 1001f5c:	88b2                	mv	a7,a2
 1001f5e:	0805                	addi	a6,a6,1
 1001f60:	01081693          	slli	a3,a6,0x10
 1001f64:	01089613          	slli	a2,a7,0x10
 1001f68:	82c1                	srli	a3,a3,0x10
 1001f6a:	8241                	srli	a2,a2,0x10
 1001f6c:	fcb6e8e3          	bltu	a3,a1,1001f3c <MedianFilter+0x10>
 1001f70:	8f99                	sub	a5,a5,a4
 1001f72:	8f91                	sub	a5,a5,a2
 1001f74:	ffe58513          	addi	a0,a1,-2
 1001f78:	02a7c533          	div	a0,a5,a0
 1001f7c:	0542                	slli	a0,a0,0x10
 1001f7e:	8141                	srli	a0,a0,0x10
 1001f80:	8082                	ret
 1001f82:	4501                	li	a0,0
 1001f84:	8082                	ret

01001f86 <ipcRx>:
ipcRx():
 1001f86:	10004637          	lui	a2,0x10004
 1001f8a:	4ac64683          	lbu	a3,1196(a2) # 100044ac <_sidata+0xeff48d4>
 1001f8e:	4ad64783          	lbu	a5,1197(a2)
 1001f92:	4ae64703          	lbu	a4,1198(a2)
 1001f96:	10000837          	lui	a6,0x10000
 1001f9a:	07a2                	slli	a5,a5,0x8
 1001f9c:	0742                	slli	a4,a4,0x10
 1001f9e:	8fd9                	or	a5,a5,a4
 1001fa0:	8fd5                	or	a5,a5,a3
 1001fa2:	0107e7b3          	or	a5,a5,a6
 1001fa6:	0007c883          	lbu	a7,0(a5)
 1001faa:	4ac64783          	lbu	a5,1196(a2)
 1001fae:	4ad64683          	lbu	a3,1197(a2)
 1001fb2:	4ae64703          	lbu	a4,1198(a2)
 1001fb6:	06a2                	slli	a3,a3,0x8
 1001fb8:	0742                	slli	a4,a4,0x10
 1001fba:	8ed9                	or	a3,a3,a4
 1001fbc:	8edd                	or	a3,a3,a5
 1001fbe:	0685                	addi	a3,a3,1
 1001fc0:	0106e6b3          	or	a3,a3,a6
 1001fc4:	0006c783          	lbu	a5,0(a3)
 1001fc8:	4ac64303          	lbu	t1,1196(a2)
 1001fcc:	4ad64703          	lbu	a4,1197(a2)
 1001fd0:	4ae64683          	lbu	a3,1198(a2)
 1001fd4:	07a2                	slli	a5,a5,0x8
 1001fd6:	0722                	slli	a4,a4,0x8
 1001fd8:	06c2                	slli	a3,a3,0x10
 1001fda:	8f55                	or	a4,a4,a3
 1001fdc:	00676733          	or	a4,a4,t1
 1001fe0:	0709                	addi	a4,a4,2
 1001fe2:	01076733          	or	a4,a4,a6
 1001fe6:	00074703          	lbu	a4,0(a4)
 1001fea:	4601                	li	a2,0
 1001fec:	100046b7          	lui	a3,0x10004
 1001ff0:	0742                	slli	a4,a4,0x10
 1001ff2:	8fd9                	or	a5,a5,a4
 1001ff4:	0117e7b3          	or	a5,a5,a7
 1001ff8:	100008b7          	lui	a7,0x10000
 1001ffc:	01061713          	slli	a4,a2,0x10
 1002000:	8341                	srli	a4,a4,0x10
 1002002:	08b76f63          	bltu	a4,a1,10020a0 <ipcRx+0x11a>
 1002006:	30047073          	csrci	mstatus,8
 100200a:	100115b7          	lui	a1,0x10011
 100200e:	cec5d703          	lhu	a4,-788(a1) # 10010cec <gOsEnterCriticalCnt>
 1002012:	10004637          	lui	a2,0x10004
 1002016:	0705                	addi	a4,a4,1
 1002018:	cee59623          	sh	a4,-788(a1)
 100201c:	4ac64503          	lbu	a0,1196(a2) # 100044ac <_sidata+0xeff48d4>
 1002020:	4ad64683          	lbu	a3,1197(a2)
 1002024:	4ae64703          	lbu	a4,1198(a2)
 1002028:	06a2                	slli	a3,a3,0x8
 100202a:	0742                	slli	a4,a4,0x10
 100202c:	8ed9                	or	a3,a3,a4
 100202e:	8ec9                	or	a3,a3,a0
 1002030:	10000537          	lui	a0,0x10000
 1002034:	0ff7f713          	andi	a4,a5,255
 1002038:	8ec9                	or	a3,a3,a0
 100203a:	00e68023          	sb	a4,0(a3) # 10004000 <_sidata+0xeff4428>
 100203e:	4ac64803          	lbu	a6,1196(a2)
 1002042:	4ad64683          	lbu	a3,1197(a2)
 1002046:	4ae64703          	lbu	a4,1198(a2)
 100204a:	06a2                	slli	a3,a3,0x8
 100204c:	0742                	slli	a4,a4,0x10
 100204e:	8ed9                	or	a3,a3,a4
 1002050:	0106e6b3          	or	a3,a3,a6
 1002054:	4087d713          	srai	a4,a5,0x8
 1002058:	0685                	addi	a3,a3,1
 100205a:	8ec9                	or	a3,a3,a0
 100205c:	0ff77713          	andi	a4,a4,255
 1002060:	00e68023          	sb	a4,0(a3)
 1002064:	4ac64803          	lbu	a6,1196(a2)
 1002068:	4ad64703          	lbu	a4,1197(a2)
 100206c:	4ae64683          	lbu	a3,1198(a2)
 1002070:	87c1                	srai	a5,a5,0x10
 1002072:	0722                	slli	a4,a4,0x8
 1002074:	06c2                	slli	a3,a3,0x10
 1002076:	8f55                	or	a4,a4,a3
 1002078:	01076733          	or	a4,a4,a6
 100207c:	0709                	addi	a4,a4,2
 100207e:	0ff7f793          	andi	a5,a5,255
 1002082:	8f49                	or	a4,a4,a0
 1002084:	00f70023          	sb	a5,0(a4)
 1002088:	cec5d783          	lhu	a5,-788(a1)
 100208c:	17fd                	addi	a5,a5,-1
 100208e:	07c2                	slli	a5,a5,0x10
 1002090:	83c1                	srli	a5,a5,0x10
 1002092:	cef59623          	sh	a5,-788(a1)
 1002096:	00079463          	bnez	a5,100209e <ipcRx+0x118>
 100209a:	30046073          	csrsi	mstatus,8
 100209e:	8082                	ret
 10020a0:	0117e733          	or	a4,a5,a7
 10020a4:	00074803          	lbu	a6,0(a4)
 10020a8:	00c50733          	add	a4,a0,a2
 10020ac:	0785                	addi	a5,a5,1
 10020ae:	01070023          	sb	a6,0(a4)
 10020b2:	4b26c303          	lbu	t1,1202(a3)
 10020b6:	4b36c703          	lbu	a4,1203(a3)
 10020ba:	4b46c803          	lbu	a6,1204(a3)
 10020be:	0722                	slli	a4,a4,0x8
 10020c0:	0842                	slli	a6,a6,0x10
 10020c2:	01076733          	or	a4,a4,a6
 10020c6:	00676733          	or	a4,a4,t1
 10020ca:	00e7ed63          	bltu	a5,a4,10020e4 <ipcRx+0x15e>
 10020ce:	4af6c803          	lbu	a6,1199(a3)
 10020d2:	4b06c783          	lbu	a5,1200(a3)
 10020d6:	4b16c703          	lbu	a4,1201(a3)
 10020da:	07a2                	slli	a5,a5,0x8
 10020dc:	0742                	slli	a4,a4,0x10
 10020de:	8fd9                	or	a5,a5,a4
 10020e0:	0107e7b3          	or	a5,a5,a6
 10020e4:	0605                	addi	a2,a2,1
 10020e6:	bf19                	j	1001ffc <ipcRx+0x76>

010020e8 <ipcTx>:
ipcTx():
 10020e8:	10004637          	lui	a2,0x10004
 10020ec:	4a364683          	lbu	a3,1187(a2) # 100044a3 <_sidata+0xeff48cb>
 10020f0:	4a464783          	lbu	a5,1188(a2)
 10020f4:	4a564703          	lbu	a4,1189(a2)
 10020f8:	10000837          	lui	a6,0x10000
 10020fc:	07a2                	slli	a5,a5,0x8
 10020fe:	0742                	slli	a4,a4,0x10
 1002100:	8fd9                	or	a5,a5,a4
 1002102:	8fd5                	or	a5,a5,a3
 1002104:	0107e7b3          	or	a5,a5,a6
 1002108:	0007c883          	lbu	a7,0(a5)
 100210c:	4a364783          	lbu	a5,1187(a2)
 1002110:	4a464683          	lbu	a3,1188(a2)
 1002114:	4a564703          	lbu	a4,1189(a2)
 1002118:	06a2                	slli	a3,a3,0x8
 100211a:	0742                	slli	a4,a4,0x10
 100211c:	8ed9                	or	a3,a3,a4
 100211e:	8edd                	or	a3,a3,a5
 1002120:	0685                	addi	a3,a3,1
 1002122:	0106e6b3          	or	a3,a3,a6
 1002126:	0006c783          	lbu	a5,0(a3)
 100212a:	4a364303          	lbu	t1,1187(a2)
 100212e:	4a464703          	lbu	a4,1188(a2)
 1002132:	4a564683          	lbu	a3,1189(a2)
 1002136:	07a2                	slli	a5,a5,0x8
 1002138:	0722                	slli	a4,a4,0x8
 100213a:	06c2                	slli	a3,a3,0x10
 100213c:	8f55                	or	a4,a4,a3
 100213e:	00676733          	or	a4,a4,t1
 1002142:	0709                	addi	a4,a4,2
 1002144:	01076733          	or	a4,a4,a6
 1002148:	00074703          	lbu	a4,0(a4)
 100214c:	4601                	li	a2,0
 100214e:	100046b7          	lui	a3,0x10004
 1002152:	0742                	slli	a4,a4,0x10
 1002154:	8fd9                	or	a5,a5,a4
 1002156:	0117e7b3          	or	a5,a5,a7
 100215a:	100008b7          	lui	a7,0x10000
 100215e:	01061713          	slli	a4,a2,0x10
 1002162:	8341                	srli	a4,a4,0x10
 1002164:	08b76f63          	bltu	a4,a1,1002202 <ipcTx+0x11a>
 1002168:	30047073          	csrci	mstatus,8
 100216c:	100115b7          	lui	a1,0x10011
 1002170:	cec5d703          	lhu	a4,-788(a1) # 10010cec <gOsEnterCriticalCnt>
 1002174:	10004637          	lui	a2,0x10004
 1002178:	0705                	addi	a4,a4,1
 100217a:	cee59623          	sh	a4,-788(a1)
 100217e:	4a364503          	lbu	a0,1187(a2) # 100044a3 <_sidata+0xeff48cb>
 1002182:	4a464683          	lbu	a3,1188(a2)
 1002186:	4a564703          	lbu	a4,1189(a2)
 100218a:	06a2                	slli	a3,a3,0x8
 100218c:	0742                	slli	a4,a4,0x10
 100218e:	8ed9                	or	a3,a3,a4
 1002190:	8ec9                	or	a3,a3,a0
 1002192:	10000537          	lui	a0,0x10000
 1002196:	0ff7f713          	andi	a4,a5,255
 100219a:	8ec9                	or	a3,a3,a0
 100219c:	00e68023          	sb	a4,0(a3) # 10004000 <_sidata+0xeff4428>
 10021a0:	4a364803          	lbu	a6,1187(a2)
 10021a4:	4a464683          	lbu	a3,1188(a2)
 10021a8:	4a564703          	lbu	a4,1189(a2)
 10021ac:	06a2                	slli	a3,a3,0x8
 10021ae:	0742                	slli	a4,a4,0x10
 10021b0:	8ed9                	or	a3,a3,a4
 10021b2:	0106e6b3          	or	a3,a3,a6
 10021b6:	4087d713          	srai	a4,a5,0x8
 10021ba:	0685                	addi	a3,a3,1
 10021bc:	8ec9                	or	a3,a3,a0
 10021be:	0ff77713          	andi	a4,a4,255
 10021c2:	00e68023          	sb	a4,0(a3)
 10021c6:	4a364803          	lbu	a6,1187(a2)
 10021ca:	4a464703          	lbu	a4,1188(a2)
 10021ce:	4a564683          	lbu	a3,1189(a2)
 10021d2:	87c1                	srai	a5,a5,0x10
 10021d4:	0722                	slli	a4,a4,0x8
 10021d6:	06c2                	slli	a3,a3,0x10
 10021d8:	8f55                	or	a4,a4,a3
 10021da:	01076733          	or	a4,a4,a6
 10021de:	0709                	addi	a4,a4,2
 10021e0:	0ff7f793          	andi	a5,a5,255
 10021e4:	8f49                	or	a4,a4,a0
 10021e6:	00f70023          	sb	a5,0(a4)
 10021ea:	cec5d783          	lhu	a5,-788(a1)
 10021ee:	17fd                	addi	a5,a5,-1
 10021f0:	07c2                	slli	a5,a5,0x10
 10021f2:	83c1                	srli	a5,a5,0x10
 10021f4:	cef59623          	sh	a5,-788(a1)
 10021f8:	00079463          	bnez	a5,1002200 <ipcTx+0x118>
 10021fc:	30046073          	csrsi	mstatus,8
 1002200:	8082                	ret
 1002202:	00c50833          	add	a6,a0,a2
 1002206:	00084803          	lbu	a6,0(a6) # 10000000 <_sidata+0xeff0428>
 100220a:	0117e733          	or	a4,a5,a7
 100220e:	0785                	addi	a5,a5,1
 1002210:	01070023          	sb	a6,0(a4)
 1002214:	4a06c303          	lbu	t1,1184(a3)
 1002218:	4a16c703          	lbu	a4,1185(a3)
 100221c:	4a26c803          	lbu	a6,1186(a3)
 1002220:	0722                	slli	a4,a4,0x8
 1002222:	0842                	slli	a6,a6,0x10
 1002224:	01076733          	or	a4,a4,a6
 1002228:	00676733          	or	a4,a4,t1
 100222c:	00e7ed63          	bltu	a5,a4,1002246 <ipcTx+0x15e>
 1002230:	49d6c803          	lbu	a6,1181(a3)
 1002234:	49e6c783          	lbu	a5,1182(a3)
 1002238:	49f6c703          	lbu	a4,1183(a3)
 100223c:	07a2                	slli	a5,a5,0x8
 100223e:	0742                	slli	a4,a4,0x10
 1002240:	8fd9                	or	a5,a5,a4
 1002242:	0107e7b3          	or	a5,a5,a6
 1002246:	0605                	addi	a2,a2,1
 1002248:	bf19                	j	100215e <ipcTx+0x76>

0100224a <IPC_IsTxBuffEmpty>:
IPC_IsTxBuffEmpty():
 100224a:	100047b7          	lui	a5,0x10004
 100224e:	4a37c603          	lbu	a2,1187(a5) # 100044a3 <_sidata+0xeff48cb>
 1002252:	4a47c703          	lbu	a4,1188(a5)
 1002256:	4a57c683          	lbu	a3,1189(a5)
 100225a:	10000837          	lui	a6,0x10000
 100225e:	0722                	slli	a4,a4,0x8
 1002260:	06c2                	slli	a3,a3,0x10
 1002262:	8f55                	or	a4,a4,a3
 1002264:	8f51                	or	a4,a4,a2
 1002266:	01076733          	or	a4,a4,a6
 100226a:	00074583          	lbu	a1,0(a4)
 100226e:	4a37c603          	lbu	a2,1187(a5)
 1002272:	4a47c703          	lbu	a4,1188(a5)
 1002276:	4a57c683          	lbu	a3,1189(a5)
 100227a:	0ff5f593          	andi	a1,a1,255
 100227e:	0722                	slli	a4,a4,0x8
 1002280:	06c2                	slli	a3,a3,0x10
 1002282:	8f55                	or	a4,a4,a3
 1002284:	8f51                	or	a4,a4,a2
 1002286:	0705                	addi	a4,a4,1
 1002288:	01076733          	or	a4,a4,a6
 100228c:	00074703          	lbu	a4,0(a4)
 1002290:	4a37c503          	lbu	a0,1187(a5)
 1002294:	4a47c683          	lbu	a3,1188(a5)
 1002298:	4a57c603          	lbu	a2,1189(a5)
 100229c:	0ff77713          	andi	a4,a4,255
 10022a0:	06a2                	slli	a3,a3,0x8
 10022a2:	0642                	slli	a2,a2,0x10
 10022a4:	8ed1                	or	a3,a3,a2
 10022a6:	8ec9                	or	a3,a3,a0
 10022a8:	0689                	addi	a3,a3,2
 10022aa:	0106e6b3          	or	a3,a3,a6
 10022ae:	0006c603          	lbu	a2,0(a3)
 10022b2:	4a67c883          	lbu	a7,1190(a5)
 10022b6:	4a77c683          	lbu	a3,1191(a5)
 10022ba:	4a87c503          	lbu	a0,1192(a5)
 10022be:	0ff67613          	andi	a2,a2,255
 10022c2:	06a2                	slli	a3,a3,0x8
 10022c4:	0542                	slli	a0,a0,0x10
 10022c6:	8ec9                	or	a3,a3,a0
 10022c8:	0116e6b3          	or	a3,a3,a7
 10022cc:	0106e6b3          	or	a3,a3,a6
 10022d0:	0006ce03          	lbu	t3,0(a3)
 10022d4:	4a67c503          	lbu	a0,1190(a5)
 10022d8:	4a77c683          	lbu	a3,1191(a5)
 10022dc:	4a87c303          	lbu	t1,1192(a5)
 10022e0:	06a2                	slli	a3,a3,0x8
 10022e2:	0342                	slli	t1,t1,0x10
 10022e4:	0066e6b3          	or	a3,a3,t1
 10022e8:	8ec9                	or	a3,a3,a0
 10022ea:	0685                	addi	a3,a3,1
 10022ec:	0106e6b3          	or	a3,a3,a6
 10022f0:	0006c503          	lbu	a0,0(a3)
 10022f4:	4a67c883          	lbu	a7,1190(a5)
 10022f8:	4a77c683          	lbu	a3,1191(a5)
 10022fc:	4a87c303          	lbu	t1,1192(a5)
 1002300:	0522                	slli	a0,a0,0x8
 1002302:	06a2                	slli	a3,a3,0x8
 1002304:	0342                	slli	t1,t1,0x10
 1002306:	0066e6b3          	or	a3,a3,t1
 100230a:	0116e6b3          	or	a3,a3,a7
 100230e:	0689                	addi	a3,a3,2
 1002310:	0106e6b3          	or	a3,a3,a6
 1002314:	0006c883          	lbu	a7,0(a3)
 1002318:	4a67c303          	lbu	t1,1190(a5)
 100231c:	4a77c683          	lbu	a3,1191(a5)
 1002320:	08c2                	slli	a7,a7,0x10
 1002322:	01156533          	or	a0,a0,a7
 1002326:	01c568b3          	or	a7,a0,t3
 100232a:	4a87c503          	lbu	a0,1192(a5)
 100232e:	06a2                	slli	a3,a3,0x8
 1002330:	0542                	slli	a0,a0,0x10
 1002332:	8ec9                	or	a3,a3,a0
 1002334:	0066e6b3          	or	a3,a3,t1
 1002338:	0106e6b3          	or	a3,a3,a6
 100233c:	0006ce03          	lbu	t3,0(a3)
 1002340:	4a67c303          	lbu	t1,1190(a5)
 1002344:	4a77c683          	lbu	a3,1191(a5)
 1002348:	4a87c503          	lbu	a0,1192(a5)
 100234c:	06a2                	slli	a3,a3,0x8
 100234e:	0542                	slli	a0,a0,0x10
 1002350:	8ec9                	or	a3,a3,a0
 1002352:	0066e6b3          	or	a3,a3,t1
 1002356:	0685                	addi	a3,a3,1
 1002358:	0106e6b3          	or	a3,a3,a6
 100235c:	0006c503          	lbu	a0,0(a3)
 1002360:	4a67ce83          	lbu	t4,1190(a5)
 1002364:	4a77c683          	lbu	a3,1191(a5)
 1002368:	4a87c303          	lbu	t1,1192(a5)
 100236c:	00869793          	slli	a5,a3,0x8
 1002370:	01031693          	slli	a3,t1,0x10
 1002374:	8fd5                	or	a5,a5,a3
 1002376:	01d7e7b3          	or	a5,a5,t4
 100237a:	0789                	addi	a5,a5,2
 100237c:	0107e7b3          	or	a5,a5,a6
 1002380:	0007c683          	lbu	a3,0(a5)
 1002384:	00851793          	slli	a5,a0,0x8
 1002388:	4501                	li	a0,0
 100238a:	06c2                	slli	a3,a3,0x10
 100238c:	8fd5                	or	a5,a5,a3
 100238e:	01c7e7b3          	or	a5,a5,t3
 1002392:	00f89b63          	bne	a7,a5,10023a8 <IPC_IsTxBuffEmpty+0x15e>
 1002396:	0722                	slli	a4,a4,0x8
 1002398:	01061513          	slli	a0,a2,0x10
 100239c:	8d59                	or	a0,a0,a4
 100239e:	8dc9                	or	a1,a1,a0
 10023a0:	41158533          	sub	a0,a1,a7
 10023a4:	00153513          	seqz	a0,a0
 10023a8:	8082                	ret

010023aa <IPC_IsRxBuffEmpty>:
IPC_IsRxBuffEmpty():
 10023aa:	100047b7          	lui	a5,0x10004
 10023ae:	4ac7c603          	lbu	a2,1196(a5) # 100044ac <_sidata+0xeff48d4>
 10023b2:	4ad7c703          	lbu	a4,1197(a5)
 10023b6:	4ae7c683          	lbu	a3,1198(a5)
 10023ba:	10000837          	lui	a6,0x10000
 10023be:	0722                	slli	a4,a4,0x8
 10023c0:	06c2                	slli	a3,a3,0x10
 10023c2:	8f55                	or	a4,a4,a3
 10023c4:	8f51                	or	a4,a4,a2
 10023c6:	01076733          	or	a4,a4,a6
 10023ca:	00074583          	lbu	a1,0(a4)
 10023ce:	4ac7c603          	lbu	a2,1196(a5)
 10023d2:	4ad7c703          	lbu	a4,1197(a5)
 10023d6:	4ae7c683          	lbu	a3,1198(a5)
 10023da:	0ff5f593          	andi	a1,a1,255
 10023de:	0722                	slli	a4,a4,0x8
 10023e0:	06c2                	slli	a3,a3,0x10
 10023e2:	8f55                	or	a4,a4,a3
 10023e4:	8f51                	or	a4,a4,a2
 10023e6:	0705                	addi	a4,a4,1
 10023e8:	01076733          	or	a4,a4,a6
 10023ec:	00074703          	lbu	a4,0(a4)
 10023f0:	4ac7c503          	lbu	a0,1196(a5)
 10023f4:	4ad7c683          	lbu	a3,1197(a5)
 10023f8:	4ae7c603          	lbu	a2,1198(a5)
 10023fc:	0ff77713          	andi	a4,a4,255
 1002400:	06a2                	slli	a3,a3,0x8
 1002402:	0642                	slli	a2,a2,0x10
 1002404:	8ed1                	or	a3,a3,a2
 1002406:	8ec9                	or	a3,a3,a0
 1002408:	0689                	addi	a3,a3,2
 100240a:	0106e6b3          	or	a3,a3,a6
 100240e:	0006c603          	lbu	a2,0(a3)
 1002412:	4a97c883          	lbu	a7,1193(a5)
 1002416:	4aa7c683          	lbu	a3,1194(a5)
 100241a:	4ab7c503          	lbu	a0,1195(a5)
 100241e:	0ff67613          	andi	a2,a2,255
 1002422:	06a2                	slli	a3,a3,0x8
 1002424:	0542                	slli	a0,a0,0x10
 1002426:	8ec9                	or	a3,a3,a0
 1002428:	0116e6b3          	or	a3,a3,a7
 100242c:	0106e6b3          	or	a3,a3,a6
 1002430:	0006ce03          	lbu	t3,0(a3)
 1002434:	4a97c503          	lbu	a0,1193(a5)
 1002438:	4aa7c683          	lbu	a3,1194(a5)
 100243c:	4ab7c303          	lbu	t1,1195(a5)
 1002440:	06a2                	slli	a3,a3,0x8
 1002442:	0342                	slli	t1,t1,0x10
 1002444:	0066e6b3          	or	a3,a3,t1
 1002448:	8ec9                	or	a3,a3,a0
 100244a:	0685                	addi	a3,a3,1
 100244c:	0106e6b3          	or	a3,a3,a6
 1002450:	0006c503          	lbu	a0,0(a3)
 1002454:	4a97c883          	lbu	a7,1193(a5)
 1002458:	4aa7c683          	lbu	a3,1194(a5)
 100245c:	4ab7c303          	lbu	t1,1195(a5)
 1002460:	0522                	slli	a0,a0,0x8
 1002462:	06a2                	slli	a3,a3,0x8
 1002464:	0342                	slli	t1,t1,0x10
 1002466:	0066e6b3          	or	a3,a3,t1
 100246a:	0116e6b3          	or	a3,a3,a7
 100246e:	0689                	addi	a3,a3,2
 1002470:	0106e6b3          	or	a3,a3,a6
 1002474:	0006c883          	lbu	a7,0(a3)
 1002478:	4a97c303          	lbu	t1,1193(a5)
 100247c:	4aa7c683          	lbu	a3,1194(a5)
 1002480:	08c2                	slli	a7,a7,0x10
 1002482:	01156533          	or	a0,a0,a7
 1002486:	01c568b3          	or	a7,a0,t3
 100248a:	4ab7c503          	lbu	a0,1195(a5)
 100248e:	06a2                	slli	a3,a3,0x8
 1002490:	0542                	slli	a0,a0,0x10
 1002492:	8ec9                	or	a3,a3,a0
 1002494:	0066e6b3          	or	a3,a3,t1
 1002498:	0106e6b3          	or	a3,a3,a6
 100249c:	0006ce03          	lbu	t3,0(a3)
 10024a0:	4a97c303          	lbu	t1,1193(a5)
 10024a4:	4aa7c683          	lbu	a3,1194(a5)
 10024a8:	4ab7c503          	lbu	a0,1195(a5)
 10024ac:	06a2                	slli	a3,a3,0x8
 10024ae:	0542                	slli	a0,a0,0x10
 10024b0:	8ec9                	or	a3,a3,a0
 10024b2:	0066e6b3          	or	a3,a3,t1
 10024b6:	0685                	addi	a3,a3,1
 10024b8:	0106e6b3          	or	a3,a3,a6
 10024bc:	0006c503          	lbu	a0,0(a3)
 10024c0:	4a97ce83          	lbu	t4,1193(a5)
 10024c4:	4aa7c683          	lbu	a3,1194(a5)
 10024c8:	4ab7c303          	lbu	t1,1195(a5)
 10024cc:	00869793          	slli	a5,a3,0x8
 10024d0:	01031693          	slli	a3,t1,0x10
 10024d4:	8fd5                	or	a5,a5,a3
 10024d6:	01d7e7b3          	or	a5,a5,t4
 10024da:	0789                	addi	a5,a5,2
 10024dc:	0107e7b3          	or	a5,a5,a6
 10024e0:	0007c683          	lbu	a3,0(a5)
 10024e4:	00851793          	slli	a5,a0,0x8
 10024e8:	4505                	li	a0,1
 10024ea:	06c2                	slli	a3,a3,0x10
 10024ec:	8fd5                	or	a5,a5,a3
 10024ee:	01c7e7b3          	or	a5,a5,t3
 10024f2:	00f89b63          	bne	a7,a5,1002508 <IPC_IsRxBuffEmpty+0x15e>
 10024f6:	0722                	slli	a4,a4,0x8
 10024f8:	01061513          	slli	a0,a2,0x10
 10024fc:	8d59                	or	a0,a0,a4
 10024fe:	8dc9                	or	a1,a1,a0
 1002500:	41158533          	sub	a0,a1,a7
 1002504:	00153513          	seqz	a0,a0
 1002508:	8082                	ret

0100250a <IPC_TxBufferIsEnough>:
IPC_TxBufferIsEnough():
 100250a:	100047b7          	lui	a5,0x10004
 100250e:	4a37c603          	lbu	a2,1187(a5) # 100044a3 <_sidata+0xeff48cb>
 1002512:	4a47c703          	lbu	a4,1188(a5)
 1002516:	4a57c683          	lbu	a3,1189(a5)
 100251a:	0722                	slli	a4,a4,0x8
 100251c:	06c2                	slli	a3,a3,0x10
 100251e:	8f55                	or	a4,a4,a3
 1002520:	8f51                	or	a4,a4,a2
 1002522:	10000637          	lui	a2,0x10000
 1002526:	8f51                	or	a4,a4,a2
 1002528:	00074803          	lbu	a6,0(a4)
 100252c:	4a37c703          	lbu	a4,1187(a5)
 1002530:	4a47c683          	lbu	a3,1188(a5)
 1002534:	4a57c583          	lbu	a1,1189(a5)
 1002538:	06a2                	slli	a3,a3,0x8
 100253a:	05c2                	slli	a1,a1,0x10
 100253c:	8ecd                	or	a3,a3,a1
 100253e:	8ed9                	or	a3,a3,a4
 1002540:	0685                	addi	a3,a3,1
 1002542:	8ed1                	or	a3,a3,a2
 1002544:	0006c703          	lbu	a4,0(a3)
 1002548:	4a37c883          	lbu	a7,1187(a5)
 100254c:	4a47c683          	lbu	a3,1188(a5)
 1002550:	4a57c583          	lbu	a1,1189(a5)
 1002554:	0722                	slli	a4,a4,0x8
 1002556:	06a2                	slli	a3,a3,0x8
 1002558:	05c2                	slli	a1,a1,0x10
 100255a:	8ecd                	or	a3,a3,a1
 100255c:	0116e6b3          	or	a3,a3,a7
 1002560:	0689                	addi	a3,a3,2
 1002562:	8ed1                	or	a3,a3,a2
 1002564:	0006c683          	lbu	a3,0(a3)
 1002568:	06c2                	slli	a3,a3,0x10
 100256a:	8f55                	or	a4,a4,a3
 100256c:	01076733          	or	a4,a4,a6
 1002570:	4a67c803          	lbu	a6,1190(a5)
 1002574:	4a77c683          	lbu	a3,1191(a5)
 1002578:	4a87c583          	lbu	a1,1192(a5)
 100257c:	06a2                	slli	a3,a3,0x8
 100257e:	05c2                	slli	a1,a1,0x10
 1002580:	8ecd                	or	a3,a3,a1
 1002582:	0106e6b3          	or	a3,a3,a6
 1002586:	8ed1                	or	a3,a3,a2
 1002588:	0006c803          	lbu	a6,0(a3)
 100258c:	4a67c883          	lbu	a7,1190(a5)
 1002590:	4a77c683          	lbu	a3,1191(a5)
 1002594:	4a87c583          	lbu	a1,1192(a5)
 1002598:	06a2                	slli	a3,a3,0x8
 100259a:	05c2                	slli	a1,a1,0x10
 100259c:	8ecd                	or	a3,a3,a1
 100259e:	0116e6b3          	or	a3,a3,a7
 10025a2:	0685                	addi	a3,a3,1
 10025a4:	8ed1                	or	a3,a3,a2
 10025a6:	0006c883          	lbu	a7,0(a3)
 10025aa:	4a67c303          	lbu	t1,1190(a5)
 10025ae:	4a77c683          	lbu	a3,1191(a5)
 10025b2:	4a87c583          	lbu	a1,1192(a5)
 10025b6:	08a2                	slli	a7,a7,0x8
 10025b8:	06a2                	slli	a3,a3,0x8
 10025ba:	05c2                	slli	a1,a1,0x10
 10025bc:	8ecd                	or	a3,a3,a1
 10025be:	0066e6b3          	or	a3,a3,t1
 10025c2:	0689                	addi	a3,a3,2
 10025c4:	8ed1                	or	a3,a3,a2
 10025c6:	0006c303          	lbu	t1,0(a3)
 10025ca:	4a67ce03          	lbu	t3,1190(a5)
 10025ce:	4a77c683          	lbu	a3,1191(a5)
 10025d2:	4a87c583          	lbu	a1,1192(a5)
 10025d6:	0342                	slli	t1,t1,0x10
 10025d8:	06a2                	slli	a3,a3,0x8
 10025da:	05c2                	slli	a1,a1,0x10
 10025dc:	8ecd                	or	a3,a3,a1
 10025de:	01c6e6b3          	or	a3,a3,t3
 10025e2:	8ed1                	or	a3,a3,a2
 10025e4:	0006ce83          	lbu	t4,0(a3)
 10025e8:	4a67ce03          	lbu	t3,1190(a5)
 10025ec:	4a77c583          	lbu	a1,1191(a5)
 10025f0:	4a87c683          	lbu	a3,1192(a5)
 10025f4:	0068e8b3          	or	a7,a7,t1
 10025f8:	05a2                	slli	a1,a1,0x8
 10025fa:	06c2                	slli	a3,a3,0x10
 10025fc:	8dd5                	or	a1,a1,a3
 10025fe:	01c5e5b3          	or	a1,a1,t3
 1002602:	0585                	addi	a1,a1,1
 1002604:	8dd1                	or	a1,a1,a2
 1002606:	0005c683          	lbu	a3,0(a1)
 100260a:	4a67cf03          	lbu	t5,1190(a5)
 100260e:	4a77c583          	lbu	a1,1191(a5)
 1002612:	4a87ce03          	lbu	t3,1192(a5)
 1002616:	06a2                	slli	a3,a3,0x8
 1002618:	05a2                	slli	a1,a1,0x8
 100261a:	0e42                	slli	t3,t3,0x10
 100261c:	01c5e5b3          	or	a1,a1,t3
 1002620:	01e5e5b3          	or	a1,a1,t5
 1002624:	0589                	addi	a1,a1,2
 1002626:	8dd1                	or	a1,a1,a2
 1002628:	0005c583          	lbu	a1,0(a1)
 100262c:	0108e833          	or	a6,a7,a6
 1002630:	05c2                	slli	a1,a1,0x10
 1002632:	8ecd                	or	a3,a3,a1
 1002634:	01d6e6b3          	or	a3,a3,t4
 1002638:	06d80563          	beq	a6,a3,10026a2 <IPC_TxBufferIsEnough+0x198>
 100263c:	4a67c803          	lbu	a6,1190(a5)
 1002640:	4a77c683          	lbu	a3,1191(a5)
 1002644:	4a87c583          	lbu	a1,1192(a5)
 1002648:	06a2                	slli	a3,a3,0x8
 100264a:	05c2                	slli	a1,a1,0x10
 100264c:	8ecd                	or	a3,a3,a1
 100264e:	0106e6b3          	or	a3,a3,a6
 1002652:	8ed1                	or	a3,a3,a2
 1002654:	0006c883          	lbu	a7,0(a3)
 1002658:	4a67c683          	lbu	a3,1190(a5)
 100265c:	4a77c583          	lbu	a1,1191(a5)
 1002660:	4a87c803          	lbu	a6,1192(a5)
 1002664:	05a2                	slli	a1,a1,0x8
 1002666:	0842                	slli	a6,a6,0x10
 1002668:	0105e5b3          	or	a1,a1,a6
 100266c:	8dd5                	or	a1,a1,a3
 100266e:	0585                	addi	a1,a1,1
 1002670:	8dd1                	or	a1,a1,a2
 1002672:	0005c683          	lbu	a3,0(a1)
 1002676:	4a67c303          	lbu	t1,1190(a5)
 100267a:	4a77c583          	lbu	a1,1191(a5)
 100267e:	4a87c803          	lbu	a6,1192(a5)
 1002682:	06a2                	slli	a3,a3,0x8
 1002684:	00859793          	slli	a5,a1,0x8
 1002688:	01081593          	slli	a1,a6,0x10
 100268c:	8fcd                	or	a5,a5,a1
 100268e:	0067e7b3          	or	a5,a5,t1
 1002692:	0789                	addi	a5,a5,2
 1002694:	8e5d                	or	a2,a2,a5
 1002696:	00064783          	lbu	a5,0(a2) # 10000000 <_sidata+0xeff0428>
 100269a:	07c2                	slli	a5,a5,0x10
 100269c:	8edd                	or	a3,a3,a5
 100269e:	0116e6b3          	or	a3,a3,a7
 10026a2:	0542                	slli	a0,a0,0x10
 10026a4:	4581                	li	a1,0
 10026a6:	8141                	srli	a0,a0,0x10
 10026a8:	10004637          	lui	a2,0x10004
 10026ac:	00a5e463          	bltu	a1,a0,10026b4 <IPC_TxBufferIsEnough+0x1aa>
 10026b0:	4505                	li	a0,1
 10026b2:	8082                	ret
 10026b4:	4a064883          	lbu	a7,1184(a2) # 100044a0 <_sidata+0xeff48c8>
 10026b8:	4a164783          	lbu	a5,1185(a2)
 10026bc:	4a264803          	lbu	a6,1186(a2)
 10026c0:	0705                	addi	a4,a4,1
 10026c2:	07a2                	slli	a5,a5,0x8
 10026c4:	0842                	slli	a6,a6,0x10
 10026c6:	0107e7b3          	or	a5,a5,a6
 10026ca:	0117e7b3          	or	a5,a5,a7
 10026ce:	00f76d63          	bltu	a4,a5,10026e8 <IPC_TxBufferIsEnough+0x1de>
 10026d2:	49d64803          	lbu	a6,1181(a2)
 10026d6:	49e64703          	lbu	a4,1182(a2)
 10026da:	49f64783          	lbu	a5,1183(a2)
 10026de:	0722                	slli	a4,a4,0x8
 10026e0:	07c2                	slli	a5,a5,0x10
 10026e2:	8f5d                	or	a4,a4,a5
 10026e4:	01076733          	or	a4,a4,a6
 10026e8:	00d70663          	beq	a4,a3,10026f4 <IPC_TxBufferIsEnough+0x1ea>
 10026ec:	0585                	addi	a1,a1,1
 10026ee:	05c2                	slli	a1,a1,0x10
 10026f0:	81c1                	srli	a1,a1,0x10
 10026f2:	bf6d                	j	10026ac <IPC_TxBufferIsEnough+0x1a2>
 10026f4:	4501                	li	a0,0
 10026f6:	8082                	ret

010026f8 <IPC_TxCommon>:
IPC_TxCommon():
 10026f8:	3660a2ef          	jal	t0,100ca5e <__riscv_save_4>
 10026fc:	100134b7          	lui	s1,0x10013
 1002700:	fff60793          	addi	a5,a2,-1
 1002704:	12a48c23          	sb	a0,312(s1) # 10013138 <ipcSendBuff>
 1002708:	0ff7f793          	andi	a5,a5,255
 100270c:	02400713          	li	a4,36
 1002710:	06f76d63          	bltu	a4,a5,100278a <IPC_TxCommon+0x92>
 1002714:	100047b7          	lui	a5,0x10004
 1002718:	4957c703          	lbu	a4,1173(a5) # 10004495 <_sidata+0xeff48bd>
 100271c:	4689                	li	a3,2
 100271e:	13848993          	addi	s3,s1,312
 1002722:	00e69463          	bne	a3,a4,100272a <IPC_TxCommon+0x32>
 1002726:	48078aa3          	sb	zero,1173(a5)
 100272a:	00161513          	slli	a0,a2,0x1
 100272e:	0fe57513          	andi	a0,a0,254
 1002732:	8432                	mv	s0,a2
 1002734:	892e                	mv	s2,a1
 1002736:	3bd1                	jal	100250a <IPC_TxBufferIsEnough>
 1002738:	02051763          	bnez	a0,1002766 <IPC_TxCommon+0x6e>
 100273c:	30047073          	csrci	mstatus,8
 1002740:	10011737          	lui	a4,0x10011
 1002744:	cec75783          	lhu	a5,-788(a4) # 10010cec <gOsEnterCriticalCnt>
 1002748:	0100d637          	lui	a2,0x100d
 100274c:	0100d537          	lui	a0,0x100d
 1002750:	0785                	addi	a5,a5,1
 1002752:	d7060613          	addi	a2,a2,-656 # 100cd70 <__FUNCTION__.3762>
 1002756:	08600593          	li	a1,134
 100275a:	d3050513          	addi	a0,a0,-720 # 100cd30 <__FUNCTION__.3696+0x10>
 100275e:	cef71623          	sh	a5,-788(a4)
 1002762:	900ff0ef          	jal	ra,1001862 <_assert_handler>
 1002766:	10013537          	lui	a0,0x10013
 100276a:	85ca                	mv	a1,s2
 100276c:	8622                	mv	a2,s0
 100276e:	13a50513          	addi	a0,a0,314 # 1001313a <ipcSendBuff+0x2>
 1002772:	008980a3          	sb	s0,1(s3)
 1002776:	3940a0ef          	jal	ra,100cb0a <memcpy>
 100277a:	00240593          	addi	a1,s0,2
 100277e:	0ff5f593          	andi	a1,a1,255
 1002782:	13848513          	addi	a0,s1,312
 1002786:	963ff0ef          	jal	ra,10020e8 <ipcTx>
 100278a:	3080a06f          	j	100ca92 <__riscv_restore_4>

0100278e <IPC_TxControlCmd>:
IPC_TxControlCmd():
 100278e:	2ea0a2ef          	jal	t0,100ca78 <__riscv_save_0>
 1002792:	1141                	addi	sp,sp,-16
 1002794:	10100793          	li	a5,257
 1002798:	00f11623          	sh	a5,12(sp)
 100279c:	00010723          	sb	zero,14(sp)
 10027a0:	100047b7          	lui	a5,0x10004
 10027a4:	4957c703          	lbu	a4,1173(a5) # 10004495 <_sidata+0xeff48bd>
 10027a8:	4689                	li	a3,2
 10027aa:	842a                	mv	s0,a0
 10027ac:	00e69463          	bne	a3,a4,10027b4 <IPC_TxControlCmd+0x26>
 10027b0:	48078aa3          	sb	zero,1173(a5)
 10027b4:	4519                	li	a0,6
 10027b6:	3b91                	jal	100250a <IPC_TxBufferIsEnough>
 10027b8:	02051763          	bnez	a0,10027e6 <IPC_TxControlCmd+0x58>
 10027bc:	30047073          	csrci	mstatus,8
 10027c0:	10011737          	lui	a4,0x10011
 10027c4:	cec75783          	lhu	a5,-788(a4) # 10010cec <gOsEnterCriticalCnt>
 10027c8:	0100d637          	lui	a2,0x100d
 10027cc:	0100d537          	lui	a0,0x100d
 10027d0:	0785                	addi	a5,a5,1
 10027d2:	d8060613          	addi	a2,a2,-640 # 100cd80 <__FUNCTION__.3767>
 10027d6:	09700593          	li	a1,151
 10027da:	d3050513          	addi	a0,a0,-720 # 100cd30 <__FUNCTION__.3696+0x10>
 10027de:	cef71623          	sh	a5,-788(a4)
 10027e2:	880ff0ef          	jal	ra,1001862 <_assert_handler>
 10027e6:	0068                	addi	a0,sp,12
 10027e8:	458d                	li	a1,3
 10027ea:	00810723          	sb	s0,14(sp)
 10027ee:	8fbff0ef          	jal	ra,10020e8 <ipcTx>
 10027f2:	0141                	addi	sp,sp,16
 10027f4:	2a80a06f          	j	100ca9c <__riscv_restore_0>

010027f8 <IPC_TxAclCmd>:
IPC_TxAclCmd():
 10027f8:	2800a2ef          	jal	t0,100ca78 <__riscv_save_0>
 10027fc:	1141                	addi	sp,sp,-16
 10027fe:	10d00793          	li	a5,269
 1002802:	00f11623          	sh	a5,12(sp)
 1002806:	00010723          	sb	zero,14(sp)
 100280a:	100047b7          	lui	a5,0x10004
 100280e:	4957c703          	lbu	a4,1173(a5) # 10004495 <_sidata+0xeff48bd>
 1002812:	4689                	li	a3,2
 1002814:	842a                	mv	s0,a0
 1002816:	00e69463          	bne	a3,a4,100281e <IPC_TxAclCmd+0x26>
 100281a:	48078aa3          	sb	zero,1173(a5)
 100281e:	4519                	li	a0,6
 1002820:	31ed                	jal	100250a <IPC_TxBufferIsEnough>
 1002822:	02051763          	bnez	a0,1002850 <IPC_TxAclCmd+0x58>
 1002826:	30047073          	csrci	mstatus,8
 100282a:	10011737          	lui	a4,0x10011
 100282e:	cec75783          	lhu	a5,-788(a4) # 10010cec <gOsEnterCriticalCnt>
 1002832:	0100d637          	lui	a2,0x100d
 1002836:	0100d537          	lui	a0,0x100d
 100283a:	0785                	addi	a5,a5,1
 100283c:	d9460613          	addi	a2,a2,-620 # 100cd94 <__FUNCTION__.3772>
 1002840:	0a700593          	li	a1,167
 1002844:	d3050513          	addi	a0,a0,-720 # 100cd30 <__FUNCTION__.3696+0x10>
 1002848:	cef71623          	sh	a5,-788(a4)
 100284c:	816ff0ef          	jal	ra,1001862 <_assert_handler>
 1002850:	0068                	addi	a0,sp,12
 1002852:	458d                	li	a1,3
 1002854:	00810723          	sb	s0,14(sp)
 1002858:	891ff0ef          	jal	ra,10020e8 <ipcTx>
 100285c:	0141                	addi	sp,sp,16
 100285e:	23e0a06f          	j	100ca9c <__riscv_restore_0>

01002862 <IPC_HandleRxPacket>:
IPC_HandleRxPacket():
 1002862:	2160a2ef          	jal	t0,100ca78 <__riscv_save_0>
 1002866:	3691                	jal	10023aa <IPC_IsRxBuffEmpty>
 1002868:	04051963          	bnez	a0,10028ba <IPC_HandleRxPacket+0x58>
 100286c:	10013437          	lui	s0,0x10013
 1002870:	4589                	li	a1,2
 1002872:	03840513          	addi	a0,s0,56 # 10013038 <ipcReadBuff>
 1002876:	f10ff0ef          	jal	ra,1001f86 <ipcRx>
 100287a:	03844783          	lbu	a5,56(s0)
 100287e:	472d                	li	a4,11
 1002880:	17fd                	addi	a5,a5,-1
 1002882:	0ff7f793          	andi	a5,a5,255
 1002886:	02f76c63          	bltu	a4,a5,10028be <IPC_HandleRxPacket+0x5c>
 100288a:	03840493          	addi	s1,s0,56
 100288e:	0014c583          	lbu	a1,1(s1)
 1002892:	10013937          	lui	s2,0x10013
 1002896:	03a90513          	addi	a0,s2,58 # 1001303a <ipcReadBuff+0x2>
 100289a:	eecff0ef          	jal	ra,1001f86 <ipcRx>
 100289e:	100107b7          	lui	a5,0x10010
 10028a2:	03844703          	lbu	a4,56(s0)
 10028a6:	6b07a783          	lw	a5,1712(a5) # 100106b0 <ipc_handle_cb_array>
 10028aa:	0014c503          	lbu	a0,1(s1)
 10028ae:	070a                	slli	a4,a4,0x2
 10028b0:	97ba                	add	a5,a5,a4
 10028b2:	439c                	lw	a5,0(a5)
 10028b4:	03a90593          	addi	a1,s2,58
 10028b8:	9782                	jalr	a5
 10028ba:	1e20a06f          	j	100ca9c <__riscv_restore_0>
 10028be:	30047073          	csrci	mstatus,8
 10028c2:	10011737          	lui	a4,0x10011
 10028c6:	cec75783          	lhu	a5,-788(a4) # 10010cec <gOsEnterCriticalCnt>
 10028ca:	0100d637          	lui	a2,0x100d
 10028ce:	0100d537          	lui	a0,0x100d
 10028d2:	0785                	addi	a5,a5,1
 10028d4:	da460613          	addi	a2,a2,-604 # 100cda4 <__FUNCTION__.3777>
 10028d8:	0ba00593          	li	a1,186
 10028dc:	d3050513          	addi	a0,a0,-720 # 100cd30 <__FUNCTION__.3696+0x10>
 10028e0:	cef71623          	sh	a5,-788(a4)
 10028e4:	f7ffe0ef          	jal	ra,1001862 <_assert_handler>
 10028e8:	bfc9                	j	10028ba <IPC_HandleRxPacket+0x58>

010028ea <IpcDefaultCallBack>:
IpcDefaultCallBack():
 10028ea:	18e0a2ef          	jal	t0,100ca78 <__riscv_save_0>
 10028ee:	0100d537          	lui	a0,0x100d
 10028f2:	d5850513          	addi	a0,a0,-680 # 100cd58 <__FUNCTION__.3696+0x38>
 10028f6:	e63fe0ef          	jal	ra,1001758 <print_string_log>
 10028fa:	a001                	j	10028fa <IpcDefaultCallBack+0x10>

010028fc <IPC_Init>:
IPC_Init():
 10028fc:	100107b7          	lui	a5,0x10010
 1002900:	6aa7a823          	sw	a0,1712(a5) # 100106b0 <ipc_handle_cb_array>
 1002904:	8082                	ret

01002906 <AUDIO_AdcInit>:
AUDIO_AdcInit():
 1002906:	14a0a2ef          	jal	t0,100ca50 <__riscv_save_10>
 100290a:	00052983          	lw	s3,0(a0)
 100290e:	1141                	addi	sp,sp,-16
 1002910:	1a098963          	beqz	s3,1002ac2 <AUDIO_AdcInit+0x1bc>
 1002914:	842a                	mv	s0,a0
 1002916:	00c52b83          	lw	s7,12(a0)
 100291a:	01c52a03          	lw	s4,28(a0)
 100291e:	02052a83          	lw	s5,32(a0)
 1002922:	5144                	lw	s1,36(a0)
 1002924:	4585                	li	a1,1
 1002926:	04000513          	li	a0,64
 100292a:	f6dfe0ef          	jal	ra,1001896 <CoreReg_ClkControl>
 100292e:	6541                	lui	a0,0x10
 1002930:	4585                	li	a1,1
 1002932:	0505                	addi	a0,a0,1
 1002934:	f63fe0ef          	jal	ra,1001896 <CoreReg_ClkControl>
 1002938:	00445903          	lhu	s2,4(s0)
 100293c:	2cd5                	jal	1002c30 <AUDIO_AdcFilterInit>
 100293e:	100087b7          	lui	a5,0x10008
 1002942:	11c7c703          	lbu	a4,284(a5) # 1000811c <_sidata+0xeff8544>
 1002946:	197d                	addi	s2,s2,-1
 1002948:	04400713          	li	a4,68
 100294c:	10e78e23          	sb	a4,284(a5)
 1002950:	1497c803          	lbu	a6,329(a5)
 1002954:	994e                	add	s2,s2,s3
 1002956:	0109db13          	srli	s6,s3,0x10
 100295a:	0f387813          	andi	a6,a6,243
 100295e:	00886813          	ori	a6,a6,8
 1002962:	0ff87713          	andi	a4,a6,255
 1002966:	14e784a3          	sb	a4,329(a5)
 100296a:	0ff9f713          	andi	a4,s3,255
 100296e:	4089d993          	srai	s3,s3,0x8
 1002972:	02e78e23          	sb	a4,60(a5)
 1002976:	0ff9f993          	andi	s3,s3,255
 100297a:	03378ea3          	sb	s3,61(a5)
 100297e:	0ff97713          	andi	a4,s2,255
 1002982:	40895913          	srai	s2,s2,0x8
 1002986:	02e78f23          	sb	a4,62(a5)
 100298a:	0ff97913          	andi	s2,s2,255
 100298e:	03278fa3          	sb	s2,63(a5)
 1002992:	1807c683          	lbu	a3,384(a5)
 1002996:	1817c703          	lbu	a4,385(a5)
 100299a:	001b7b13          	andi	s6,s6,1
 100299e:	0722                	slli	a4,a4,0x8
 10029a0:	8f55                	or	a4,a4,a3
 10029a2:	4814                	lw	a3,16(s0)
 10029a4:	00e11623          	sh	a4,12(sp)
 10029a8:	4705                	li	a4,1
 10029aa:	10e69f63          	bne	a3,a4,1002ac8 <AUDIO_AdcInit+0x1c2>
 10029ae:	01444703          	lbu	a4,20(s0)
 10029b2:	16e78fa3          	sb	a4,383(a5)
 10029b6:	00c15783          	lhu	a5,12(sp)
 10029ba:	07c6                	slli	a5,a5,0x11
 10029bc:	83c5                	srli	a5,a5,0x11
 10029be:	00f11623          	sh	a5,12(sp)
 10029c2:	00c15783          	lhu	a5,12(sp)
 10029c6:	7771                	lui	a4,0xffffc
 10029c8:	8ff9                	and	a5,a5,a4
 10029ca:	4c18                	lw	a4,24(s0)
 10029cc:	00f11623          	sh	a5,12(sp)
 10029d0:	4785                	li	a5,1
 10029d2:	10f71063          	bne	a4,a5,1002ad2 <AUDIO_AdcInit+0x1cc>
 10029d6:	00c15783          	lhu	a5,12(sp)
 10029da:	6711                	lui	a4,0x4
 10029dc:	8fd9                	or	a5,a5,a4
 10029de:	00f11623          	sh	a5,12(sp)
 10029e2:	00c14783          	lbu	a5,12(sp)
 10029e6:	10008637          	lui	a2,0x10008
 10029ea:	18f60023          	sb	a5,384(a2) # 10008180 <_sidata+0xeff85a8>
 10029ee:	00c15783          	lhu	a5,12(sp)
 10029f2:	83a1                	srli	a5,a5,0x8
 10029f4:	18f600a3          	sb	a5,385(a2)
 10029f8:	14864783          	lbu	a5,328(a2)
 10029fc:	04764703          	lbu	a4,71(a2)
 1002a00:	03b64583          	lbu	a1,59(a2)
 1002a04:	17d64883          	lbu	a7,381(a2)
 1002a08:	17e64603          	lbu	a2,382(a2)
 1002a0c:	0ff77513          	andi	a0,a4,255
 1002a10:	0ff5f593          	andi	a1,a1,255
 1002a14:	0622                	slli	a2,a2,0x8
 1002a16:	01166633          	or	a2,a2,a7
 1002a1a:	00c11423          	sh	a2,8(sp)
 1002a1e:	4605                	li	a2,1
 1002a20:	0ff7f793          	andi	a5,a5,255
 1002a24:	872a                	mv	a4,a0
 1002a26:	86ae                	mv	a3,a1
 1002a28:	0acb9b63          	bne	s7,a2,1002ade <AUDIO_AdcInit+0x1d8>
 1002a2c:	0bf7f793          	andi	a5,a5,191
 1002a30:	fa07e793          	ori	a5,a5,-96
 1002a34:	4410                	lw	a2,8(s0)
 1002a36:	9bbd                	andi	a5,a5,-17
 1002a38:	0047e893          	ori	a7,a5,4
 1002a3c:	4359                	li	t1,22
 1002a3e:	87c6                	mv	a5,a7
 1002a40:	16660563          	beq	a2,t1,1002baa <AUDIO_AdcInit+0x2a4>
 1002a44:	0cc36d63          	bltu	t1,a2,1002b1e <AUDIO_AdcInit+0x218>
 1002a48:	432d                	li	t1,11
 1002a4a:	12660c63          	beq	a2,t1,1002b82 <AUDIO_AdcInit+0x27c>
 1002a4e:	0ac36363          	bltu	t1,a2,1002af4 <AUDIO_AdcInit+0x1ee>
 1002a52:	4321                	li	t1,8
 1002a54:	10660463          	beq	a2,t1,1002b5c <AUDIO_AdcInit+0x256>
 1002a58:	10008637          	lui	a2,0x10008
 1002a5c:	04e603a3          	sb	a4,71(a2) # 10008047 <_sidata+0xeff846f>
 1002a60:	14f60423          	sb	a5,328(a2)
 1002a64:	02d60da3          	sb	a3,59(a2)
 1002a68:	00814783          	lbu	a5,8(sp)
 1002a6c:	ff387813          	andi	a6,a6,-13
 1002a70:	08086813          	ori	a6,a6,128
 1002a74:	16f60ea3          	sb	a5,381(a2)
 1002a78:	00815783          	lhu	a5,8(sp)
 1002a7c:	0b1a                	slli	s6,s6,0x6
 1002a7e:	fbf6f693          	andi	a3,a3,-65
 1002a82:	83a1                	srli	a5,a5,0x8
 1002a84:	16f60f23          	sb	a5,382(a2)
 1002a88:	03a64783          	lbu	a5,58(a2)
 1002a8c:	0166e6b3          	or	a3,a3,s6
 1002a90:	0807e793          	ori	a5,a5,128
 1002a94:	02f60d23          	sb	a5,58(a2)
 1002a98:	150604a3          	sb	a6,329(a2)
 1002a9c:	4791                	li	a5,4
 1002a9e:	14fa1f63          	bne	s4,a5,1002bfc <AUDIO_AdcInit+0x2f6>
 1002aa2:	9add                	andi	a3,a3,-9
 1002aa4:	100087b7          	lui	a5,0x10008
 1002aa8:	02d78da3          	sb	a3,59(a5) # 1000803b <_sidata+0xeff8463>
 1002aac:	160a8063          	beqz	s5,1002c0c <AUDIO_AdcInit+0x306>
 1002ab0:	8556                	mv	a0,s5
 1002ab2:	24d5                	jal	1002d96 <AUDIO_AdcHPFInit>
 1002ab4:	14049e63          	bnez	s1,1002c10 <AUDIO_AdcInit+0x30a>
 1002ab8:	029000ef          	jal	ra,10032e0 <AUDIO_AdcAnaSEWithCapacitor>
 1002abc:	01544503          	lbu	a0,21(s0)
 1002ac0:	26b1                	jal	1002e0c <AUDIO_AdcVolConfig>
 1002ac2:	0141                	addi	sp,sp,16
 1002ac4:	7c50906f          	j	100ca88 <__riscv_restore_10>
 1002ac8:	00c15783          	lhu	a5,12(sp)
 1002acc:	7761                	lui	a4,0xffff8
 1002ace:	8fd9                	or	a5,a5,a4
 1002ad0:	b5fd                	j	10029be <AUDIO_AdcInit+0xb8>
 1002ad2:	00c15783          	lhu	a5,12(sp)
 1002ad6:	7771                	lui	a4,0xffffc
 1002ad8:	177d                	addi	a4,a4,-1
 1002ada:	8ff9                	and	a5,a5,a4
 1002adc:	b709                	j	10029de <AUDIO_AdcInit+0xd8>
 1002ade:	4609                	li	a2,2
 1002ae0:	00cb9563          	bne	s7,a2,1002aea <AUDIO_AdcInit+0x1e4>
 1002ae4:	fe07e793          	ori	a5,a5,-32
 1002ae8:	b7b1                	j	1002a34 <AUDIO_AdcInit+0x12e>
 1002aea:	07f7f793          	andi	a5,a5,127
 1002aee:	0087e793          	ori	a5,a5,8
 1002af2:	b789                	j	1002a34 <AUDIO_AdcInit+0x12e>
 1002af4:	4331                	li	t1,12
 1002af6:	0a660363          	beq	a2,t1,1002b9c <AUDIO_AdcInit+0x296>
 1002afa:	4341                	li	t1,16
 1002afc:	f4661ee3          	bne	a2,t1,1002a58 <AUDIO_AdcInit+0x152>
 1002b00:	00815783          	lhu	a5,8(sp)
 1002b04:	03f57713          	andi	a4,a0,63
 1002b08:	f8076713          	ori	a4,a4,-128
 1002b0c:	e3f7f793          	andi	a5,a5,-449
 1002b10:	0407e793          	ori	a5,a5,64
 1002b14:	00f11423          	sh	a5,8(sp)
 1002b18:	fec8f793          	andi	a5,a7,-20
 1002b1c:	a085                	j	1002b7c <AUDIO_AdcInit+0x276>
 1002b1e:	02000313          	li	t1,32
 1002b22:	0a660163          	beq	a2,t1,1002bc4 <AUDIO_AdcInit+0x2be>
 1002b26:	00c36c63          	bltu	t1,a2,1002b3e <AUDIO_AdcInit+0x238>
 1002b2a:	4361                	li	t1,24
 1002b2c:	f26616e3          	bne	a2,t1,1002a58 <AUDIO_AdcInit+0x152>
 1002b30:	00815783          	lhu	a5,8(sp)
 1002b34:	e3f7f793          	andi	a5,a5,-449
 1002b38:	0407e793          	ori	a5,a5,64
 1002b3c:	a8ad                	j	1002bb6 <AUDIO_AdcInit+0x2b0>
 1002b3e:	02c00313          	li	t1,44
 1002b42:	0a660263          	beq	a2,t1,1002be6 <AUDIO_AdcInit+0x2e0>
 1002b46:	03000313          	li	t1,48
 1002b4a:	f06617e3          	bne	a2,t1,1002a58 <AUDIO_AdcInit+0x152>
 1002b4e:	00815783          	lhu	a5,8(sp)
 1002b52:	e3f7f793          	andi	a5,a5,-449
 1002b56:	0407e793          	ori	a5,a5,64
 1002b5a:	a861                	j	1002bf2 <AUDIO_AdcInit+0x2ec>
 1002b5c:	00815783          	lhu	a5,8(sp)
 1002b60:	03f57713          	andi	a4,a0,63
 1002b64:	f8076713          	ori	a4,a4,-128
 1002b68:	e3f7f793          	andi	a5,a5,-449
 1002b6c:	0407e793          	ori	a5,a5,64
 1002b70:	00f11423          	sh	a5,8(sp)
 1002b74:	ffc8f793          	andi	a5,a7,-4
 1002b78:	0017e793          	ori	a5,a5,1
 1002b7c:	0ef5f693          	andi	a3,a1,239
 1002b80:	bde1                	j	1002a58 <AUDIO_AdcInit+0x152>
 1002b82:	00815783          	lhu	a5,8(sp)
 1002b86:	e3f7f793          	andi	a5,a5,-449
 1002b8a:	0807e793          	ori	a5,a5,128
 1002b8e:	03f57713          	andi	a4,a0,63
 1002b92:	00f11423          	sh	a5,8(sp)
 1002b96:	04076713          	ori	a4,a4,64
 1002b9a:	bfe9                	j	1002b74 <AUDIO_AdcInit+0x26e>
 1002b9c:	00815783          	lhu	a5,8(sp)
 1002ba0:	e3f7f793          	andi	a5,a5,-449
 1002ba4:	0407e793          	ori	a5,a5,64
 1002ba8:	b7dd                	j	1002b8e <AUDIO_AdcInit+0x288>
 1002baa:	00815783          	lhu	a5,8(sp)
 1002bae:	e3f7f793          	andi	a5,a5,-449
 1002bb2:	0807e793          	ori	a5,a5,128
 1002bb6:	03f57713          	andi	a4,a0,63
 1002bba:	00f11423          	sh	a5,8(sp)
 1002bbe:	04076713          	ori	a4,a4,64
 1002bc2:	bf99                	j	1002b18 <AUDIO_AdcInit+0x212>
 1002bc4:	00815783          	lhu	a5,8(sp)
 1002bc8:	03f57713          	andi	a4,a0,63
 1002bcc:	f8076713          	ori	a4,a4,-128
 1002bd0:	e3f7f793          	andi	a5,a5,-449
 1002bd4:	0407e793          	ori	a5,a5,64
 1002bd8:	00f11423          	sh	a5,8(sp)
 1002bdc:	0105e693          	ori	a3,a1,16
 1002be0:	fec8f793          	andi	a5,a7,-20
 1002be4:	bd95                	j	1002a58 <AUDIO_AdcInit+0x152>
 1002be6:	00815783          	lhu	a5,8(sp)
 1002bea:	e3f7f793          	andi	a5,a5,-449
 1002bee:	0807e793          	ori	a5,a5,128
 1002bf2:	00f11423          	sh	a5,8(sp)
 1002bf6:	03f57713          	andi	a4,a0,63
 1002bfa:	bf39                	j	1002b18 <AUDIO_AdcInit+0x212>
 1002bfc:	0086e693          	ori	a3,a3,8
 1002c00:	003a7a13          	andi	s4,s4,3
 1002c04:	9ae1                	andi	a3,a3,-8
 1002c06:	0146e6b3          	or	a3,a3,s4
 1002c0a:	bd69                	j	1002aa4 <AUDIO_AdcInit+0x19e>
 1002c0c:	2ad9                	jal	1002de2 <AUDIO_AdcHPFClr>
 1002c0e:	b55d                	j	1002ab4 <AUDIO_AdcInit+0x1ae>
 1002c10:	4785                	li	a5,1
 1002c12:	00f49463          	bne	s1,a5,1002c1a <AUDIO_AdcInit+0x314>
 1002c16:	29b5                	jal	1003092 <AUDIO_AdcAnaSENoCapacitor>
 1002c18:	b555                	j	1002abc <AUDIO_AdcInit+0x1b6>
 1002c1a:	4789                	li	a5,2
 1002c1c:	00f49463          	bne	s1,a5,1002c24 <AUDIO_AdcInit+0x31e>
 1002c20:	2c35                	jal	1002e5c <AUDIO_AdcAnaDiffConfig>
 1002c22:	bd69                	j	1002abc <AUDIO_AdcInit+0x1b6>
 1002c24:	478d                	li	a5,3
 1002c26:	e8f49be3          	bne	s1,a5,1002abc <AUDIO_AdcInit+0x1b6>
 1002c2a:	0eb000ef          	jal	ra,1003514 <AUDIO_AdcAnaVcomConfig>
 1002c2e:	b579                	j	1002abc <AUDIO_AdcInit+0x1b6>

01002c30 <AUDIO_AdcFilterInit>:
AUDIO_AdcFilterInit():
 1002c30:	100086b7          	lui	a3,0x10008
 1002c34:	47c1                	li	a5,16
 1002c36:	10f68ea3          	sb	a5,285(a3) # 1000811d <_sidata+0xeff8545>
 1002c3a:	11d6c783          	lbu	a5,285(a3)
 1002c3e:	10010537          	lui	a0,0x10010
 1002c42:	10008637          	lui	a2,0x10008
 1002c46:	0107e793          	ori	a5,a5,16
 1002c4a:	873e                	mv	a4,a5
 1002c4c:	0ff7f793          	andi	a5,a5,255
 1002c50:	10f68ea3          	sb	a5,285(a3)
 1002c54:	0100d7b7          	lui	a5,0x100d
 1002c58:	db878793          	addi	a5,a5,-584 # 100cdb8 <g_adc_cicfircoeffTtablel>
 1002c5c:	10078e13          	addi	t3,a5,256
 1002c60:	88aa                	mv	a7,a0
 1002c62:	0007c683          	lbu	a3,0(a5)
 1002c66:	02076713          	ori	a4,a4,32
 1002c6a:	07a1                	addi	a5,a5,8
 1002c6c:	10d60ca3          	sb	a3,281(a2) # 10008119 <_sidata+0xeff8541>
 1002c70:	ff97c683          	lbu	a3,-7(a5)
 1002c74:	10d60d23          	sb	a3,282(a2)
 1002c78:	ffa7c683          	lbu	a3,-6(a5)
 1002c7c:	10d60da3          	sb	a3,283(a2)
 1002c80:	ff87a683          	lw	a3,-8(a5)
 1002c84:	ffc7a303          	lw	t1,-4(a5)
 1002c88:	6b454583          	lbu	a1,1716(a0) # 100106b4 <g_adc_chksum>
 1002c8c:	0086d813          	srli	a6,a3,0x8
 1002c90:	0362                	slli	t1,t1,0x18
 1002c92:	95b6                	add	a1,a1,a3
 1002c94:	01036833          	or	a6,t1,a6
 1002c98:	95c2                	add	a1,a1,a6
 1002c9a:	82c1                	srli	a3,a3,0x10
 1002c9c:	96ae                	add	a3,a3,a1
 1002c9e:	6ad50a23          	sb	a3,1716(a0)
 1002ca2:	0ff77693          	andi	a3,a4,255
 1002ca6:	10d60ea3          	sb	a3,285(a2)
 1002caa:	fdf77693          	andi	a3,a4,-33
 1002cae:	8736                	mv	a4,a3
 1002cb0:	0ff6f693          	andi	a3,a3,255
 1002cb4:	10d60ea3          	sb	a3,285(a2)
 1002cb8:	fbc795e3          	bne	a5,t3,1002c62 <AUDIO_AdcFilterInit+0x32>
 1002cbc:	0100d7b7          	lui	a5,0x100d
 1002cc0:	fb078793          	addi	a5,a5,-80 # 100cfb0 <g_adc_halfbandcoeftablel>
 1002cc4:	0e078313          	addi	t1,a5,224
 1002cc8:	10008637          	lui	a2,0x10008
 1002ccc:	0007c683          	lbu	a3,0(a5)
 1002cd0:	02076713          	ori	a4,a4,32
 1002cd4:	07a1                	addi	a5,a5,8
 1002cd6:	10d60ca3          	sb	a3,281(a2) # 10008119 <_sidata+0xeff8541>
 1002cda:	ff97c683          	lbu	a3,-7(a5)
 1002cde:	10d60d23          	sb	a3,282(a2)
 1002ce2:	ffa7c683          	lbu	a3,-6(a5)
 1002ce6:	10d60da3          	sb	a3,283(a2)
 1002cea:	ff87a683          	lw	a3,-8(a5)
 1002cee:	ffc7a803          	lw	a6,-4(a5)
 1002cf2:	6b48c583          	lbu	a1,1716(a7) # 100006b4 <_sidata+0xeff0adc>
 1002cf6:	0086d513          	srli	a0,a3,0x8
 1002cfa:	0862                	slli	a6,a6,0x18
 1002cfc:	95b6                	add	a1,a1,a3
 1002cfe:	00a86533          	or	a0,a6,a0
 1002d02:	95aa                	add	a1,a1,a0
 1002d04:	82c1                	srli	a3,a3,0x10
 1002d06:	96ae                	add	a3,a3,a1
 1002d08:	6ad88a23          	sb	a3,1716(a7)
 1002d0c:	0ff77693          	andi	a3,a4,255
 1002d10:	10d60ea3          	sb	a3,285(a2)
 1002d14:	fdf77693          	andi	a3,a4,-33
 1002d18:	8736                	mv	a4,a3
 1002d1a:	0ff6f693          	andi	a3,a3,255
 1002d1e:	10d60ea3          	sb	a3,285(a2)
 1002d22:	faf315e3          	bne	t1,a5,1002ccc <AUDIO_AdcFilterInit+0x9c>
 1002d26:	08000613          	li	a2,128
 1002d2a:	100086b7          	lui	a3,0x10008
 1002d2e:	10068ca3          	sb	zero,281(a3) # 10008119 <_sidata+0xeff8541>
 1002d32:	10068d23          	sb	zero,282(a3)
 1002d36:	02076713          	ori	a4,a4,32
 1002d3a:	0ff77793          	andi	a5,a4,255
 1002d3e:	10068da3          	sb	zero,283(a3)
 1002d42:	10f68ea3          	sb	a5,285(a3)
 1002d46:	167d                	addi	a2,a2,-1
 1002d48:	fdf77793          	andi	a5,a4,-33
 1002d4c:	873e                	mv	a4,a5
 1002d4e:	0642                	slli	a2,a2,0x10
 1002d50:	0ff7f793          	andi	a5,a5,255
 1002d54:	10f68ea3          	sb	a5,285(a3)
 1002d58:	8241                	srli	a2,a2,0x10
 1002d5a:	fc061ae3          	bnez	a2,1002d2e <AUDIO_AdcFilterInit+0xfe>
 1002d5e:	0cf77713          	andi	a4,a4,207
 1002d62:	10e68ea3          	sb	a4,285(a3)
 1002d66:	8082                	ret

01002d68 <AUDIO_AdcDmaSet>:
AUDIO_AdcDmaSet():
 1002d68:	10008737          	lui	a4,0x10008
 1002d6c:	03b74783          	lbu	a5,59(a4) # 1000803b <_sidata+0xeff8463>
 1002d70:	051e                	slli	a0,a0,0x7
 1002d72:	07f7f793          	andi	a5,a5,127
 1002d76:	8fc9                	or	a5,a5,a0
 1002d78:	0ff7f793          	andi	a5,a5,255
 1002d7c:	02f70da3          	sb	a5,59(a4)
 1002d80:	8082                	ret

01002d82 <AUDIO_AdcStop>:
AUDIO_AdcStop():
 1002d82:	4f7092ef          	jal	t0,100ca78 <__riscv_save_0>
 1002d86:	100087b7          	lui	a5,0x10008
 1002d8a:	02078d23          	sb	zero,58(a5) # 1000803a <_sidata+0xeff8462>
 1002d8e:	15f000ef          	jal	ra,10036ec <AUDIO_AdcAnaStop>
 1002d92:	50b0906f          	j	100ca9c <__riscv_restore_0>

01002d96 <AUDIO_AdcHPFInit>:
AUDIO_AdcHPFInit():
 1002d96:	4e3092ef          	jal	t0,100ca78 <__riscv_save_0>
 1002d9a:	10008737          	lui	a4,0x10008
 1002d9e:	0ff57793          	andi	a5,a0,255
 1002da2:	1141                	addi	sp,sp,-16
 1002da4:	0cf70223          	sb	a5,196(a4) # 100080c4 <_sidata+0xeff84ec>
 1002da8:	00010623          	sb	zero,12(sp)
 1002dac:	00c14783          	lbu	a5,12(sp)
 1002db0:	8121                	srli	a0,a0,0x8
 1002db2:	893d                	andi	a0,a0,15
 1002db4:	9bc1                	andi	a5,a5,-16
 1002db6:	8d5d                	or	a0,a0,a5
 1002db8:	00a10623          	sb	a0,12(sp)
 1002dbc:	00c14783          	lbu	a5,12(sp)
 1002dc0:	0cf702a3          	sb	a5,197(a4)
 1002dc4:	2021                	jal	1002dcc <AUDIO_AdcHPFEnable>
 1002dc6:	0141                	addi	sp,sp,16
 1002dc8:	4d50906f          	j	100ca9c <__riscv_restore_0>

01002dcc <AUDIO_AdcHPFEnable>:
AUDIO_AdcHPFEnable():
 1002dcc:	10008737          	lui	a4,0x10008
 1002dd0:	0c574783          	lbu	a5,197(a4) # 100080c5 <_sidata+0xeff84ed>
 1002dd4:	0107e793          	ori	a5,a5,16
 1002dd8:	0df7f793          	andi	a5,a5,223
 1002ddc:	0cf702a3          	sb	a5,197(a4)
 1002de0:	8082                	ret

01002de2 <AUDIO_AdcHPFClr>:
AUDIO_AdcHPFClr():
 1002de2:	10008737          	lui	a4,0x10008
 1002de6:	0c474783          	lbu	a5,196(a4) # 100080c4 <_sidata+0xeff84ec>
 1002dea:	0ef7f793          	andi	a5,a5,239
 1002dee:	0ff7f693          	andi	a3,a5,255
 1002df2:	0207e793          	ori	a5,a5,32
 1002df6:	0cd702a3          	sb	a3,197(a4)
 1002dfa:	0ff7f693          	andi	a3,a5,255
 1002dfe:	0cd702a3          	sb	a3,197(a4)
 1002e02:	0cf7f793          	andi	a5,a5,207
 1002e06:	0cf702a3          	sb	a5,197(a4)
 1002e0a:	8082                	ret

01002e0c <AUDIO_AdcVolConfig>:
AUDIO_AdcVolConfig():
 1002e0c:	46a9                	li	a3,10
 1002e0e:	04a6e563          	bltu	a3,a0,1002e58 <AUDIO_AdcVolConfig+0x4c>
 1002e12:	0532                	slli	a0,a0,0xc
 1002e14:	02d54533          	div	a0,a0,a3
 1002e18:	10008737          	lui	a4,0x10008
 1002e1c:	18074603          	lbu	a2,384(a4) # 10008180 <_sidata+0xeff85a8>
 1002e20:	18174783          	lbu	a5,385(a4)
 1002e24:	1141                	addi	sp,sp,-16
 1002e26:	76f1                	lui	a3,0xffffc
 1002e28:	07a2                	slli	a5,a5,0x8
 1002e2a:	8fd1                	or	a5,a5,a2
 1002e2c:	00f11623          	sh	a5,12(sp)
 1002e30:	00c15783          	lhu	a5,12(sp)
 1002e34:	8ff5                	and	a5,a5,a3
 1002e36:	054a                	slli	a0,a0,0x12
 1002e38:	8149                	srli	a0,a0,0x12
 1002e3a:	8d5d                	or	a0,a0,a5
 1002e3c:	00a11623          	sh	a0,12(sp)
 1002e40:	00c14783          	lbu	a5,12(sp)
 1002e44:	4505                	li	a0,1
 1002e46:	18f70023          	sb	a5,384(a4)
 1002e4a:	00c15783          	lhu	a5,12(sp)
 1002e4e:	83a1                	srli	a5,a5,0x8
 1002e50:	18f700a3          	sb	a5,385(a4)
 1002e54:	0141                	addi	sp,sp,16
 1002e56:	8082                	ret
 1002e58:	4501                	li	a0,0
 1002e5a:	8082                	ret

01002e5c <AUDIO_AdcAnaDiffConfig>:
AUDIO_AdcAnaDiffConfig():
 1002e5c:	100097b7          	lui	a5,0x10009
 1002e60:	b007c703          	lbu	a4,-1280(a5) # 10008b00 <_sidata+0xeff8f28>
 1002e64:	1101                	addi	sp,sp,-32
 1002e66:	03e76713          	ori	a4,a4,62
 1002e6a:	b0e78023          	sb	a4,-1280(a5)
 1002e6e:	b017c703          	lbu	a4,-1279(a5)
 1002e72:	8b11                	andi	a4,a4,4
 1002e74:	05176713          	ori	a4,a4,81
 1002e78:	b0e780a3          	sb	a4,-1279(a5)
 1002e7c:	b027c703          	lbu	a4,-1278(a5)
 1002e80:	05500713          	li	a4,85
 1002e84:	b0e78123          	sb	a4,-1278(a5)
 1002e88:	02a00713          	li	a4,42
 1002e8c:	b0e78223          	sb	a4,-1276(a5)
 1002e90:	b057c703          	lbu	a4,-1275(a5)
 1002e94:	0fe77713          	andi	a4,a4,254
 1002e98:	03676713          	ori	a4,a4,54
 1002e9c:	b0e782a3          	sb	a4,-1275(a5)
 1002ea0:	b067c703          	lbu	a4,-1274(a5)
 1002ea4:	0e077713          	andi	a4,a4,224
 1002ea8:	00876713          	ori	a4,a4,8
 1002eac:	b0e78323          	sb	a4,-1274(a5)
 1002eb0:	b077c703          	lbu	a4,-1273(a5)
 1002eb4:	0e077713          	andi	a4,a4,224
 1002eb8:	06876713          	ori	a4,a4,104
 1002ebc:	b0e783a3          	sb	a4,-1273(a5)
 1002ec0:	b087c703          	lbu	a4,-1272(a5)
 1002ec4:	00576713          	ori	a4,a4,5
 1002ec8:	b0e78423          	sb	a4,-1272(a5)
 1002ecc:	b097c703          	lbu	a4,-1271(a5)
 1002ed0:	08400713          	li	a4,132
 1002ed4:	b0e784a3          	sb	a4,-1271(a5)
 1002ed8:	00010023          	sb	zero,0(sp)
 1002edc:	00014703          	lbu	a4,0(sp)
 1002ee0:	9b75                	andi	a4,a4,-3
 1002ee2:	00e10023          	sb	a4,0(sp)
 1002ee6:	00014703          	lbu	a4,0(sp)
 1002eea:	00476713          	ori	a4,a4,4
 1002eee:	00e10023          	sb	a4,0(sp)
 1002ef2:	00014703          	lbu	a4,0(sp)
 1002ef6:	02076713          	ori	a4,a4,32
 1002efa:	00e10023          	sb	a4,0(sp)
 1002efe:	00014703          	lbu	a4,0(sp)
 1002f02:	04076713          	ori	a4,a4,64
 1002f06:	00e10023          	sb	a4,0(sp)
 1002f0a:	00014703          	lbu	a4,0(sp)
 1002f0e:	f8076713          	ori	a4,a4,-128
 1002f12:	00e10023          	sb	a4,0(sp)
 1002f16:	00014703          	lbu	a4,0(sp)
 1002f1a:	b0e785a3          	sb	a4,-1269(a5)
 1002f1e:	00014703          	lbu	a4,0(sp)
 1002f22:	9b6d                	andi	a4,a4,-5
 1002f24:	00e10023          	sb	a4,0(sp)
 1002f28:	00014703          	lbu	a4,0(sp)
 1002f2c:	b0e785a3          	sb	a4,-1269(a5)
 1002f30:	00010223          	sb	zero,4(sp)
 1002f34:	00414703          	lbu	a4,4(sp)
 1002f38:	00176713          	ori	a4,a4,1
 1002f3c:	00e10223          	sb	a4,4(sp)
 1002f40:	00414703          	lbu	a4,4(sp)
 1002f44:	00276713          	ori	a4,a4,2
 1002f48:	00e10223          	sb	a4,4(sp)
 1002f4c:	00414703          	lbu	a4,4(sp)
 1002f50:	00476713          	ori	a4,a4,4
 1002f54:	00e10223          	sb	a4,4(sp)
 1002f58:	00414703          	lbu	a4,4(sp)
 1002f5c:	9b5d                	andi	a4,a4,-9
 1002f5e:	00e10223          	sb	a4,4(sp)
 1002f62:	00414703          	lbu	a4,4(sp)
 1002f66:	b0e78623          	sb	a4,-1268(a5)
 1002f6a:	00010423          	sb	zero,8(sp)
 1002f6e:	00814703          	lbu	a4,8(sp)
 1002f72:	9b71                	andi	a4,a4,-4
 1002f74:	00176713          	ori	a4,a4,1
 1002f78:	00e10423          	sb	a4,8(sp)
 1002f7c:	00814703          	lbu	a4,8(sp)
 1002f80:	9b4d                	andi	a4,a4,-13
 1002f82:	00476713          	ori	a4,a4,4
 1002f86:	00e10423          	sb	a4,8(sp)
 1002f8a:	00814703          	lbu	a4,8(sp)
 1002f8e:	fcf77713          	andi	a4,a4,-49
 1002f92:	01076713          	ori	a4,a4,16
 1002f96:	00e10423          	sb	a4,8(sp)
 1002f9a:	00814703          	lbu	a4,8(sp)
 1002f9e:	03f77713          	andi	a4,a4,63
 1002fa2:	04076713          	ori	a4,a4,64
 1002fa6:	00e10423          	sb	a4,8(sp)
 1002faa:	00814703          	lbu	a4,8(sp)
 1002fae:	b0e786a3          	sb	a4,-1267(a5)
 1002fb2:	00010623          	sb	zero,12(sp)
 1002fb6:	00c14703          	lbu	a4,12(sp)
 1002fba:	9b71                	andi	a4,a4,-4
 1002fbc:	00176713          	ori	a4,a4,1
 1002fc0:	00e10623          	sb	a4,12(sp)
 1002fc4:	00c14703          	lbu	a4,12(sp)
 1002fc8:	fcf77713          	andi	a4,a4,-49
 1002fcc:	02076713          	ori	a4,a4,32
 1002fd0:	00e10623          	sb	a4,12(sp)
 1002fd4:	00c14703          	lbu	a4,12(sp)
 1002fd8:	03f77713          	andi	a4,a4,63
 1002fdc:	f8076713          	ori	a4,a4,-128
 1002fe0:	00e10623          	sb	a4,12(sp)
 1002fe4:	00c14703          	lbu	a4,12(sp)
 1002fe8:	b0e78723          	sb	a4,-1266(a5)
 1002fec:	4715                	li	a4,5
 1002fee:	b0e787a3          	sb	a4,-1265(a5)
 1002ff2:	00010823          	sb	zero,16(sp)
 1002ff6:	01014703          	lbu	a4,16(sp)
 1002ffa:	9b01                	andi	a4,a4,-32
 1002ffc:	01476713          	ori	a4,a4,20
 1003000:	00e10823          	sb	a4,16(sp)
 1003004:	01014703          	lbu	a4,16(sp)
 1003008:	b0e78823          	sb	a4,-1264(a5)
 100300c:	00010a23          	sb	zero,20(sp)
 1003010:	01414703          	lbu	a4,20(sp)
 1003014:	9b71                	andi	a4,a4,-4
 1003016:	00176713          	ori	a4,a4,1
 100301a:	00e10a23          	sb	a4,20(sp)
 100301e:	01414703          	lbu	a4,20(sp)
 1003022:	9b4d                	andi	a4,a4,-13
 1003024:	00476713          	ori	a4,a4,4
 1003028:	00e10a23          	sb	a4,20(sp)
 100302c:	01414703          	lbu	a4,20(sp)
 1003030:	b0e788a3          	sb	a4,-1263(a5)
 1003034:	00010c23          	sb	zero,24(sp)
 1003038:	01814703          	lbu	a4,24(sp)
 100303c:	9b61                	andi	a4,a4,-8
 100303e:	00676713          	ori	a4,a4,6
 1003042:	00e10c23          	sb	a4,24(sp)
 1003046:	01814703          	lbu	a4,24(sp)
 100304a:	9b1d                	andi	a4,a4,-25
 100304c:	00876713          	ori	a4,a4,8
 1003050:	00e10c23          	sb	a4,24(sp)
 1003054:	01814703          	lbu	a4,24(sp)
 1003058:	8b7d                	andi	a4,a4,31
 100305a:	04076713          	ori	a4,a4,64
 100305e:	00e10c23          	sb	a4,24(sp)
 1003062:	01814703          	lbu	a4,24(sp)
 1003066:	b0e78923          	sb	a4,-1262(a5)
 100306a:	00010e23          	sb	zero,28(sp)
 100306e:	01c14703          	lbu	a4,28(sp)
 1003072:	03f77713          	andi	a4,a4,63
 1003076:	00e10e23          	sb	a4,28(sp)
 100307a:	01c14703          	lbu	a4,28(sp)
 100307e:	fc077713          	andi	a4,a4,-64
 1003082:	00e10e23          	sb	a4,28(sp)
 1003086:	01c14703          	lbu	a4,28(sp)
 100308a:	b0e789a3          	sb	a4,-1261(a5)
 100308e:	6105                	addi	sp,sp,32
 1003090:	8082                	ret

01003092 <AUDIO_AdcAnaSENoCapacitor>:
AUDIO_AdcAnaSENoCapacitor():
 1003092:	1e7092ef          	jal	t0,100ca78 <__riscv_save_0>
 1003096:	1101                	addi	sp,sp,-32
 1003098:	00010223          	sb	zero,4(sp)
 100309c:	00414783          	lbu	a5,4(sp)
 10030a0:	10009437          	lui	s0,0x10009
 10030a4:	0c800513          	li	a0,200
 10030a8:	0017e793          	ori	a5,a5,1
 10030ac:	00f10223          	sb	a5,4(sp)
 10030b0:	00414783          	lbu	a5,4(sp)
 10030b4:	0027e793          	ori	a5,a5,2
 10030b8:	00f10223          	sb	a5,4(sp)
 10030bc:	00414783          	lbu	a5,4(sp)
 10030c0:	9bed                	andi	a5,a5,-5
 10030c2:	00f10223          	sb	a5,4(sp)
 10030c6:	00414783          	lbu	a5,4(sp)
 10030ca:	0087e793          	ori	a5,a5,8
 10030ce:	00f10223          	sb	a5,4(sp)
 10030d2:	00414783          	lbu	a5,4(sp)
 10030d6:	b0f40623          	sb	a5,-1268(s0) # 10008b0c <_sidata+0xeff8f34>
 10030da:	b0044783          	lbu	a5,-1280(s0)
 10030de:	03e7e793          	ori	a5,a5,62
 10030e2:	b0f40023          	sb	a5,-1280(s0)
 10030e6:	b0144783          	lbu	a5,-1279(s0)
 10030ea:	8b91                	andi	a5,a5,4
 10030ec:	0517e793          	ori	a5,a5,81
 10030f0:	b0f400a3          	sb	a5,-1279(s0)
 10030f4:	b0244783          	lbu	a5,-1278(s0)
 10030f8:	05500793          	li	a5,85
 10030fc:	b0f40123          	sb	a5,-1278(s0)
 1003100:	02a00793          	li	a5,42
 1003104:	b0f40223          	sb	a5,-1276(s0)
 1003108:	b0544783          	lbu	a5,-1275(s0)
 100310c:	0fe7f793          	andi	a5,a5,254
 1003110:	0367e793          	ori	a5,a5,54
 1003114:	b0f402a3          	sb	a5,-1275(s0)
 1003118:	b0644783          	lbu	a5,-1274(s0)
 100311c:	0e07f793          	andi	a5,a5,224
 1003120:	0087e793          	ori	a5,a5,8
 1003124:	b0f40323          	sb	a5,-1274(s0)
 1003128:	b0744783          	lbu	a5,-1273(s0)
 100312c:	0e07f793          	andi	a5,a5,224
 1003130:	0687e793          	ori	a5,a5,104
 1003134:	b0f403a3          	sb	a5,-1273(s0)
 1003138:	b0844783          	lbu	a5,-1272(s0)
 100313c:	0057e793          	ori	a5,a5,5
 1003140:	b0f40423          	sb	a5,-1272(s0)
 1003144:	b0944783          	lbu	a5,-1271(s0)
 1003148:	08400793          	li	a5,132
 100314c:	b0f404a3          	sb	a5,-1271(s0)
 1003150:	00010023          	sb	zero,0(sp)
 1003154:	00014783          	lbu	a5,0(sp)
 1003158:	0027e793          	ori	a5,a5,2
 100315c:	00f10023          	sb	a5,0(sp)
 1003160:	00014783          	lbu	a5,0(sp)
 1003164:	0047e793          	ori	a5,a5,4
 1003168:	00f10023          	sb	a5,0(sp)
 100316c:	00014783          	lbu	a5,0(sp)
 1003170:	0207e793          	ori	a5,a5,32
 1003174:	00f10023          	sb	a5,0(sp)
 1003178:	00014783          	lbu	a5,0(sp)
 100317c:	0407e793          	ori	a5,a5,64
 1003180:	00f10023          	sb	a5,0(sp)
 1003184:	00014783          	lbu	a5,0(sp)
 1003188:	f807e793          	ori	a5,a5,-128
 100318c:	00f10023          	sb	a5,0(sp)
 1003190:	00014783          	lbu	a5,0(sp)
 1003194:	b0f405a3          	sb	a5,-1269(s0)
 1003198:	9a1fe0ef          	jal	ra,1001b38 <wait_lpodelay>
 100319c:	00014783          	lbu	a5,0(sp)
 10031a0:	9bed                	andi	a5,a5,-5
 10031a2:	00f10023          	sb	a5,0(sp)
 10031a6:	00014783          	lbu	a5,0(sp)
 10031aa:	b0f405a3          	sb	a5,-1269(s0)
 10031ae:	00010423          	sb	zero,8(sp)
 10031b2:	00814783          	lbu	a5,8(sp)
 10031b6:	9bf1                	andi	a5,a5,-4
 10031b8:	0017e793          	ori	a5,a5,1
 10031bc:	00f10423          	sb	a5,8(sp)
 10031c0:	00814783          	lbu	a5,8(sp)
 10031c4:	9bcd                	andi	a5,a5,-13
 10031c6:	0047e793          	ori	a5,a5,4
 10031ca:	00f10423          	sb	a5,8(sp)
 10031ce:	00814783          	lbu	a5,8(sp)
 10031d2:	fcf7f793          	andi	a5,a5,-49
 10031d6:	0107e793          	ori	a5,a5,16
 10031da:	00f10423          	sb	a5,8(sp)
 10031de:	00814783          	lbu	a5,8(sp)
 10031e2:	03f7f793          	andi	a5,a5,63
 10031e6:	0407e793          	ori	a5,a5,64
 10031ea:	00f10423          	sb	a5,8(sp)
 10031ee:	00814783          	lbu	a5,8(sp)
 10031f2:	b0f406a3          	sb	a5,-1267(s0)
 10031f6:	00010623          	sb	zero,12(sp)
 10031fa:	00c14783          	lbu	a5,12(sp)
 10031fe:	9bf1                	andi	a5,a5,-4
 1003200:	0017e793          	ori	a5,a5,1
 1003204:	00f10623          	sb	a5,12(sp)
 1003208:	00c14783          	lbu	a5,12(sp)
 100320c:	fcf7f793          	andi	a5,a5,-49
 1003210:	0207e793          	ori	a5,a5,32
 1003214:	00f10623          	sb	a5,12(sp)
 1003218:	00c14783          	lbu	a5,12(sp)
 100321c:	03f7f793          	andi	a5,a5,63
 1003220:	f807e793          	ori	a5,a5,-128
 1003224:	00f10623          	sb	a5,12(sp)
 1003228:	00c14783          	lbu	a5,12(sp)
 100322c:	b0f40723          	sb	a5,-1266(s0)
 1003230:	4795                	li	a5,5
 1003232:	b0f407a3          	sb	a5,-1265(s0)
 1003236:	00010823          	sb	zero,16(sp)
 100323a:	01014783          	lbu	a5,16(sp)
 100323e:	9b81                	andi	a5,a5,-32
 1003240:	00f7e793          	ori	a5,a5,15
 1003244:	00f10823          	sb	a5,16(sp)
 1003248:	01014783          	lbu	a5,16(sp)
 100324c:	b0f40823          	sb	a5,-1264(s0)
 1003250:	00010a23          	sb	zero,20(sp)
 1003254:	01414783          	lbu	a5,20(sp)
 1003258:	9bf1                	andi	a5,a5,-4
 100325a:	0017e793          	ori	a5,a5,1
 100325e:	00f10a23          	sb	a5,20(sp)
 1003262:	01414783          	lbu	a5,20(sp)
 1003266:	9bcd                	andi	a5,a5,-13
 1003268:	0047e793          	ori	a5,a5,4
 100326c:	00f10a23          	sb	a5,20(sp)
 1003270:	01414783          	lbu	a5,20(sp)
 1003274:	b0f408a3          	sb	a5,-1263(s0)
 1003278:	00010c23          	sb	zero,24(sp)
 100327c:	01814783          	lbu	a5,24(sp)
 1003280:	9be1                	andi	a5,a5,-8
 1003282:	0067e793          	ori	a5,a5,6
 1003286:	00f10c23          	sb	a5,24(sp)
 100328a:	01814783          	lbu	a5,24(sp)
 100328e:	9b9d                	andi	a5,a5,-25
 1003290:	0087e793          	ori	a5,a5,8
 1003294:	00f10c23          	sb	a5,24(sp)
 1003298:	01814783          	lbu	a5,24(sp)
 100329c:	8bfd                	andi	a5,a5,31
 100329e:	0407e793          	ori	a5,a5,64
 10032a2:	00f10c23          	sb	a5,24(sp)
 10032a6:	01814783          	lbu	a5,24(sp)
 10032aa:	b0f40923          	sb	a5,-1262(s0)
 10032ae:	00010e23          	sb	zero,28(sp)
 10032b2:	01c14783          	lbu	a5,28(sp)
 10032b6:	03f7f793          	andi	a5,a5,63
 10032ba:	0407e793          	ori	a5,a5,64
 10032be:	00f10e23          	sb	a5,28(sp)
 10032c2:	01c14783          	lbu	a5,28(sp)
 10032c6:	fc07f793          	andi	a5,a5,-64
 10032ca:	0067e793          	ori	a5,a5,6
 10032ce:	00f10e23          	sb	a5,28(sp)
 10032d2:	01c14783          	lbu	a5,28(sp)
 10032d6:	b0f409a3          	sb	a5,-1261(s0)
 10032da:	6105                	addi	sp,sp,32
 10032dc:	7c00906f          	j	100ca9c <__riscv_restore_0>

010032e0 <AUDIO_AdcAnaSEWithCapacitor>:
AUDIO_AdcAnaSEWithCapacitor():
 10032e0:	100097b7          	lui	a5,0x10009
 10032e4:	b007c703          	lbu	a4,-1280(a5) # 10008b00 <_sidata+0xeff8f28>
 10032e8:	1101                	addi	sp,sp,-32
 10032ea:	03e76713          	ori	a4,a4,62
 10032ee:	b0e78023          	sb	a4,-1280(a5)
 10032f2:	b017c703          	lbu	a4,-1279(a5)
 10032f6:	8b11                	andi	a4,a4,4
 10032f8:	05176713          	ori	a4,a4,81
 10032fc:	b0e780a3          	sb	a4,-1279(a5)
 1003300:	b027c703          	lbu	a4,-1278(a5)
 1003304:	05500713          	li	a4,85
 1003308:	b0e78123          	sb	a4,-1278(a5)
 100330c:	02a00713          	li	a4,42
 1003310:	b0e78223          	sb	a4,-1276(a5)
 1003314:	b057c703          	lbu	a4,-1275(a5)
 1003318:	0fe77713          	andi	a4,a4,254
 100331c:	03676713          	ori	a4,a4,54
 1003320:	b0e782a3          	sb	a4,-1275(a5)
 1003324:	b067c703          	lbu	a4,-1274(a5)
 1003328:	0e077713          	andi	a4,a4,224
 100332c:	00876713          	ori	a4,a4,8
 1003330:	b0e78323          	sb	a4,-1274(a5)
 1003334:	b077c703          	lbu	a4,-1273(a5)
 1003338:	0e077713          	andi	a4,a4,224
 100333c:	06876713          	ori	a4,a4,104
 1003340:	b0e783a3          	sb	a4,-1273(a5)
 1003344:	b087c703          	lbu	a4,-1272(a5)
 1003348:	00576713          	ori	a4,a4,5
 100334c:	b0e78423          	sb	a4,-1272(a5)
 1003350:	b097c703          	lbu	a4,-1271(a5)
 1003354:	08400713          	li	a4,132
 1003358:	b0e784a3          	sb	a4,-1271(a5)
 100335c:	00010023          	sb	zero,0(sp)
 1003360:	00014703          	lbu	a4,0(sp)
 1003364:	9b75                	andi	a4,a4,-3
 1003366:	00e10023          	sb	a4,0(sp)
 100336a:	00014703          	lbu	a4,0(sp)
 100336e:	00476713          	ori	a4,a4,4
 1003372:	00e10023          	sb	a4,0(sp)
 1003376:	00014703          	lbu	a4,0(sp)
 100337a:	02076713          	ori	a4,a4,32
 100337e:	00e10023          	sb	a4,0(sp)
 1003382:	00014703          	lbu	a4,0(sp)
 1003386:	04076713          	ori	a4,a4,64
 100338a:	00e10023          	sb	a4,0(sp)
 100338e:	00014703          	lbu	a4,0(sp)
 1003392:	f8076713          	ori	a4,a4,-128
 1003396:	00e10023          	sb	a4,0(sp)
 100339a:	00014703          	lbu	a4,0(sp)
 100339e:	b0e785a3          	sb	a4,-1269(a5)
 10033a2:	00014703          	lbu	a4,0(sp)
 10033a6:	9b6d                	andi	a4,a4,-5
 10033a8:	00e10023          	sb	a4,0(sp)
 10033ac:	00014703          	lbu	a4,0(sp)
 10033b0:	b0e785a3          	sb	a4,-1269(a5)
 10033b4:	00010223          	sb	zero,4(sp)
 10033b8:	00414703          	lbu	a4,4(sp)
 10033bc:	00176713          	ori	a4,a4,1
 10033c0:	00e10223          	sb	a4,4(sp)
 10033c4:	00414703          	lbu	a4,4(sp)
 10033c8:	00276713          	ori	a4,a4,2
 10033cc:	00e10223          	sb	a4,4(sp)
 10033d0:	00414703          	lbu	a4,4(sp)
 10033d4:	9b6d                	andi	a4,a4,-5
 10033d6:	00e10223          	sb	a4,4(sp)
 10033da:	00414703          	lbu	a4,4(sp)
 10033de:	9b5d                	andi	a4,a4,-9
 10033e0:	00e10223          	sb	a4,4(sp)
 10033e4:	00414703          	lbu	a4,4(sp)
 10033e8:	b0e78623          	sb	a4,-1268(a5)
 10033ec:	00010423          	sb	zero,8(sp)
 10033f0:	00814703          	lbu	a4,8(sp)
 10033f4:	9b71                	andi	a4,a4,-4
 10033f6:	00176713          	ori	a4,a4,1
 10033fa:	00e10423          	sb	a4,8(sp)
 10033fe:	00814703          	lbu	a4,8(sp)
 1003402:	9b4d                	andi	a4,a4,-13
 1003404:	00476713          	ori	a4,a4,4
 1003408:	00e10423          	sb	a4,8(sp)
 100340c:	00814703          	lbu	a4,8(sp)
 1003410:	fcf77713          	andi	a4,a4,-49
 1003414:	01076713          	ori	a4,a4,16
 1003418:	00e10423          	sb	a4,8(sp)
 100341c:	00814703          	lbu	a4,8(sp)
 1003420:	03f77713          	andi	a4,a4,63
 1003424:	04076713          	ori	a4,a4,64
 1003428:	00e10423          	sb	a4,8(sp)
 100342c:	00814703          	lbu	a4,8(sp)
 1003430:	b0e786a3          	sb	a4,-1267(a5)
 1003434:	00010623          	sb	zero,12(sp)
 1003438:	00c14703          	lbu	a4,12(sp)
 100343c:	9b71                	andi	a4,a4,-4
 100343e:	00176713          	ori	a4,a4,1
 1003442:	00e10623          	sb	a4,12(sp)
 1003446:	00c14703          	lbu	a4,12(sp)
 100344a:	fcf77713          	andi	a4,a4,-49
 100344e:	02076713          	ori	a4,a4,32
 1003452:	00e10623          	sb	a4,12(sp)
 1003456:	00c14703          	lbu	a4,12(sp)
 100345a:	03f77713          	andi	a4,a4,63
 100345e:	f8076713          	ori	a4,a4,-128
 1003462:	00e10623          	sb	a4,12(sp)
 1003466:	00c14703          	lbu	a4,12(sp)
 100346a:	b0e78723          	sb	a4,-1266(a5)
 100346e:	4715                	li	a4,5
 1003470:	b0e787a3          	sb	a4,-1265(a5)
 1003474:	00010823          	sb	zero,16(sp)
 1003478:	01014703          	lbu	a4,16(sp)
 100347c:	9b01                	andi	a4,a4,-32
 100347e:	01a76713          	ori	a4,a4,26
 1003482:	00e10823          	sb	a4,16(sp)
 1003486:	01014703          	lbu	a4,16(sp)
 100348a:	b0e78823          	sb	a4,-1264(a5)
 100348e:	00010a23          	sb	zero,20(sp)
 1003492:	01414703          	lbu	a4,20(sp)
 1003496:	9b71                	andi	a4,a4,-4
 1003498:	00176713          	ori	a4,a4,1
 100349c:	00e10a23          	sb	a4,20(sp)
 10034a0:	01414703          	lbu	a4,20(sp)
 10034a4:	9b4d                	andi	a4,a4,-13
 10034a6:	00476713          	ori	a4,a4,4
 10034aa:	00e10a23          	sb	a4,20(sp)
 10034ae:	01414703          	lbu	a4,20(sp)
 10034b2:	b0e788a3          	sb	a4,-1263(a5)
 10034b6:	00010c23          	sb	zero,24(sp)
 10034ba:	01814703          	lbu	a4,24(sp)
 10034be:	9b61                	andi	a4,a4,-8
 10034c0:	00676713          	ori	a4,a4,6
 10034c4:	00e10c23          	sb	a4,24(sp)
 10034c8:	01814703          	lbu	a4,24(sp)
 10034cc:	9b1d                	andi	a4,a4,-25
 10034ce:	00876713          	ori	a4,a4,8
 10034d2:	00e10c23          	sb	a4,24(sp)
 10034d6:	01814703          	lbu	a4,24(sp)
 10034da:	8b7d                	andi	a4,a4,31
 10034dc:	04076713          	ori	a4,a4,64
 10034e0:	00e10c23          	sb	a4,24(sp)
 10034e4:	01814703          	lbu	a4,24(sp)
 10034e8:	b0e78923          	sb	a4,-1262(a5)
 10034ec:	00010e23          	sb	zero,28(sp)
 10034f0:	01c14703          	lbu	a4,28(sp)
 10034f4:	03f77713          	andi	a4,a4,63
 10034f8:	00e10e23          	sb	a4,28(sp)
 10034fc:	01c14703          	lbu	a4,28(sp)
 1003500:	fc077713          	andi	a4,a4,-64
 1003504:	00e10e23          	sb	a4,28(sp)
 1003508:	01c14703          	lbu	a4,28(sp)
 100350c:	b0e789a3          	sb	a4,-1261(a5)
 1003510:	6105                	addi	sp,sp,32
 1003512:	8082                	ret

01003514 <AUDIO_AdcAnaVcomConfig>:
AUDIO_AdcAnaVcomConfig():
 1003514:	100097b7          	lui	a5,0x10009
 1003518:	b007c703          	lbu	a4,-1280(a5) # 10008b00 <_sidata+0xeff8f28>
 100351c:	1101                	addi	sp,sp,-32
 100351e:	03c76713          	ori	a4,a4,60
 1003522:	b0e78023          	sb	a4,-1280(a5)
 1003526:	b017c703          	lbu	a4,-1279(a5)
 100352a:	8b11                	andi	a4,a4,4
 100352c:	05176713          	ori	a4,a4,81
 1003530:	b0e780a3          	sb	a4,-1279(a5)
 1003534:	b027c703          	lbu	a4,-1278(a5)
 1003538:	8b11                	andi	a4,a4,4
 100353a:	05176713          	ori	a4,a4,81
 100353e:	b0e78123          	sb	a4,-1278(a5)
 1003542:	b057c703          	lbu	a4,-1275(a5)
 1003546:	0fe77713          	andi	a4,a4,254
 100354a:	02676713          	ori	a4,a4,38
 100354e:	b0e782a3          	sb	a4,-1275(a5)
 1003552:	b067c703          	lbu	a4,-1274(a5)
 1003556:	0e077713          	andi	a4,a4,224
 100355a:	00876713          	ori	a4,a4,8
 100355e:	b0e78323          	sb	a4,-1274(a5)
 1003562:	b077c703          	lbu	a4,-1273(a5)
 1003566:	0e077713          	andi	a4,a4,224
 100356a:	06876713          	ori	a4,a4,104
 100356e:	b0e783a3          	sb	a4,-1273(a5)
 1003572:	b087c703          	lbu	a4,-1272(a5)
 1003576:	00576713          	ori	a4,a4,5
 100357a:	b0e78423          	sb	a4,-1272(a5)
 100357e:	b097c703          	lbu	a4,-1271(a5)
 1003582:	08400713          	li	a4,132
 1003586:	b0e784a3          	sb	a4,-1271(a5)
 100358a:	00010223          	sb	zero,4(sp)
 100358e:	00414703          	lbu	a4,4(sp)
 1003592:	02076713          	ori	a4,a4,32
 1003596:	00e10223          	sb	a4,4(sp)
 100359a:	00414703          	lbu	a4,4(sp)
 100359e:	04076713          	ori	a4,a4,64
 10035a2:	00e10223          	sb	a4,4(sp)
 10035a6:	00414703          	lbu	a4,4(sp)
 10035aa:	f8076713          	ori	a4,a4,-128
 10035ae:	00e10223          	sb	a4,4(sp)
 10035b2:	00414703          	lbu	a4,4(sp)
 10035b6:	b0e785a3          	sb	a4,-1269(a5)
 10035ba:	00010423          	sb	zero,8(sp)
 10035be:	00814703          	lbu	a4,8(sp)
 10035c2:	00176713          	ori	a4,a4,1
 10035c6:	00e10423          	sb	a4,8(sp)
 10035ca:	00814703          	lbu	a4,8(sp)
 10035ce:	00276713          	ori	a4,a4,2
 10035d2:	00e10423          	sb	a4,8(sp)
 10035d6:	00814703          	lbu	a4,8(sp)
 10035da:	9b6d                	andi	a4,a4,-5
 10035dc:	00e10423          	sb	a4,8(sp)
 10035e0:	00814703          	lbu	a4,8(sp)
 10035e4:	b0e78623          	sb	a4,-1268(a5)
 10035e8:	00010623          	sb	zero,12(sp)
 10035ec:	00c14703          	lbu	a4,12(sp)
 10035f0:	9b71                	andi	a4,a4,-4
 10035f2:	00176713          	ori	a4,a4,1
 10035f6:	00e10623          	sb	a4,12(sp)
 10035fa:	00c14703          	lbu	a4,12(sp)
 10035fe:	9b4d                	andi	a4,a4,-13
 1003600:	00476713          	ori	a4,a4,4
 1003604:	00e10623          	sb	a4,12(sp)
 1003608:	00c14703          	lbu	a4,12(sp)
 100360c:	fcf77713          	andi	a4,a4,-49
 1003610:	01076713          	ori	a4,a4,16
 1003614:	00e10623          	sb	a4,12(sp)
 1003618:	00c14703          	lbu	a4,12(sp)
 100361c:	03f77713          	andi	a4,a4,63
 1003620:	04076713          	ori	a4,a4,64
 1003624:	00e10623          	sb	a4,12(sp)
 1003628:	00c14703          	lbu	a4,12(sp)
 100362c:	b0e786a3          	sb	a4,-1267(a5)
 1003630:	00010823          	sb	zero,16(sp)
 1003634:	01014703          	lbu	a4,16(sp)
 1003638:	9b71                	andi	a4,a4,-4
 100363a:	00176713          	ori	a4,a4,1
 100363e:	00e10823          	sb	a4,16(sp)
 1003642:	01014703          	lbu	a4,16(sp)
 1003646:	fcf77713          	andi	a4,a4,-49
 100364a:	02076713          	ori	a4,a4,32
 100364e:	00e10823          	sb	a4,16(sp)
 1003652:	01014703          	lbu	a4,16(sp)
 1003656:	03f77713          	andi	a4,a4,63
 100365a:	f8076713          	ori	a4,a4,-128
 100365e:	00e10823          	sb	a4,16(sp)
 1003662:	01014703          	lbu	a4,16(sp)
 1003666:	b0e78723          	sb	a4,-1266(a5)
 100366a:	4715                	li	a4,5
 100366c:	b0e787a3          	sb	a4,-1265(a5)
 1003670:	00010a23          	sb	zero,20(sp)
 1003674:	01414703          	lbu	a4,20(sp)
 1003678:	9b01                	andi	a4,a4,-32
 100367a:	00476713          	ori	a4,a4,4
 100367e:	00e10a23          	sb	a4,20(sp)
 1003682:	01414703          	lbu	a4,20(sp)
 1003686:	b0e78823          	sb	a4,-1264(a5)
 100368a:	00010c23          	sb	zero,24(sp)
 100368e:	01814703          	lbu	a4,24(sp)
 1003692:	9b71                	andi	a4,a4,-4
 1003694:	00176713          	ori	a4,a4,1
 1003698:	00e10c23          	sb	a4,24(sp)
 100369c:	01814703          	lbu	a4,24(sp)
 10036a0:	9b4d                	andi	a4,a4,-13
 10036a2:	00476713          	ori	a4,a4,4
 10036a6:	00e10c23          	sb	a4,24(sp)
 10036aa:	01814703          	lbu	a4,24(sp)
 10036ae:	b0e788a3          	sb	a4,-1263(a5)
 10036b2:	00010e23          	sb	zero,28(sp)
 10036b6:	01c14703          	lbu	a4,28(sp)
 10036ba:	9b61                	andi	a4,a4,-8
 10036bc:	00276713          	ori	a4,a4,2
 10036c0:	00e10e23          	sb	a4,28(sp)
 10036c4:	01c14703          	lbu	a4,28(sp)
 10036c8:	9b1d                	andi	a4,a4,-25
 10036ca:	00876713          	ori	a4,a4,8
 10036ce:	00e10e23          	sb	a4,28(sp)
 10036d2:	01c14703          	lbu	a4,28(sp)
 10036d6:	8b7d                	andi	a4,a4,31
 10036d8:	04076713          	ori	a4,a4,64
 10036dc:	00e10e23          	sb	a4,28(sp)
 10036e0:	01c14703          	lbu	a4,28(sp)
 10036e4:	b0e78923          	sb	a4,-1262(a5)
 10036e8:	6105                	addi	sp,sp,32
 10036ea:	8082                	ret

010036ec <AUDIO_AdcAnaStop>:
AUDIO_AdcAnaStop():
 10036ec:	100097b7          	lui	a5,0x10009
 10036f0:	b007c703          	lbu	a4,-1280(a5) # 10008b00 <_sidata+0xeff8f28>
 10036f4:	1141                	addi	sp,sp,-16
 10036f6:	0ef77713          	andi	a4,a4,239
 10036fa:	b0e78023          	sb	a4,-1280(a5)
 10036fe:	00010623          	sb	zero,12(sp)
 1003702:	00c14703          	lbu	a4,12(sp)
 1003706:	02076713          	ori	a4,a4,32
 100370a:	00e10623          	sb	a4,12(sp)
 100370e:	00c14703          	lbu	a4,12(sp)
 1003712:	b0e785a3          	sb	a4,-1269(a5)
 1003716:	b0078623          	sb	zero,-1268(a5)
 100371a:	0141                	addi	sp,sp,16
 100371c:	8082                	ret

0100371e <GPIO_Init>:
GPIO_Init():
 100371e:	35a092ef          	jal	t0,100ca78 <__riscv_save_0>
 1003722:	02500793          	li	a5,37
 1003726:	842a                	mv	s0,a0
 1003728:	84ae                	mv	s1,a1
 100372a:	02a7f163          	bgeu	a5,a0,100374c <GPIO_Init+0x2e>
 100372e:	0100d637          	lui	a2,0x100d
 1003732:	0100d537          	lui	a0,0x100d
 1003736:	19060613          	addi	a2,a2,400 # 100d190 <__FUNCTION__.2294>
 100373a:	45e1                	li	a1,24
 100373c:	16850513          	addi	a0,a0,360 # 100d168 <g_adc_halfbandcoeftablel+0x1b8>
 1003740:	922fe0ef          	jal	ra,1001862 <_assert_handler>
 1003744:	67a1                	lui	a5,0x8
 1003746:	12a78793          	addi	a5,a5,298 # 812a <__EN_MIE-0xff7f54>
 100374a:	a039                	j	1003758 <GPIO_Init+0x3a>
 100374c:	47fd                	li	a5,31
 100374e:	fea7ebe3          	bltu	a5,a0,1003744 <GPIO_Init+0x26>
 1003752:	67a1                	lui	a5,0x8
 1003754:	08078793          	addi	a5,a5,128 # 8080 <__EN_MIE-0xff7ffe>
 1003758:	887d                	andi	s0,s0,31
 100375a:	943e                	add	s0,s0,a5
 100375c:	100007b7          	lui	a5,0x10000
 1003760:	8c5d                	or	s0,s0,a5
 1003762:	0ff4f493          	andi	s1,s1,255
 1003766:	00940023          	sb	s1,0(s0)
 100376a:	3320906f          	j	100ca9c <__riscv_restore_0>

0100376e <GPIO_ReadDataBit>:
GPIO_ReadDataBit():
 100376e:	30a092ef          	jal	t0,100ca78 <__riscv_save_0>
 1003772:	02500793          	li	a5,37
 1003776:	842a                	mv	s0,a0
 1003778:	02a7f363          	bgeu	a5,a0,100379e <GPIO_ReadDataBit+0x30>
 100377c:	0100d637          	lui	a2,0x100d
 1003780:	0100d537          	lui	a0,0x100d
 1003784:	19c60613          	addi	a2,a2,412 # 100d19c <__FUNCTION__.2298>
 1003788:	02600593          	li	a1,38
 100378c:	16850513          	addi	a0,a0,360 # 100d168 <g_adc_halfbandcoeftablel+0x1b8>
 1003790:	8d2fe0ef          	jal	ra,1001862 <_assert_handler>
 1003794:	100087b7          	lui	a5,0x10008
 1003798:	31a78793          	addi	a5,a5,794 # 1000831a <_sidata+0xeff8742>
 100379c:	a801                	j	10037ac <GPIO_ReadDataBit+0x3e>
 100379e:	47fd                	li	a5,31
 10037a0:	fea7eae3          	bltu	a5,a0,1003794 <GPIO_ReadDataBit+0x26>
 10037a4:	100087b7          	lui	a5,0x10008
 10037a8:	31c78793          	addi	a5,a5,796 # 1000831c <_sidata+0xeff8744>
 10037ac:	0007c703          	lbu	a4,0(a5)
 10037b0:	47fd                	li	a5,31
 10037b2:	0ff77513          	andi	a0,a4,255
 10037b6:	0487e963          	bltu	a5,s0,1003808 <GPIO_ReadDataBit+0x9a>
 10037ba:	100087b7          	lui	a5,0x10008
 10037be:	31d78793          	addi	a5,a5,797 # 1000831d <_sidata+0xeff8745>
 10037c2:	0007c703          	lbu	a4,0(a5)
 10037c6:	47fd                	li	a5,31
 10037c8:	0722                	slli	a4,a4,0x8
 10037ca:	8f49                	or	a4,a4,a0
 10037cc:	0487e363          	bltu	a5,s0,1003812 <GPIO_ReadDataBit+0xa4>
 10037d0:	100087b7          	lui	a5,0x10008
 10037d4:	31e78793          	addi	a5,a5,798 # 1000831e <_sidata+0xeff8746>
 10037d8:	0007c503          	lbu	a0,0(a5)
 10037dc:	47fd                	li	a5,31
 10037de:	0542                	slli	a0,a0,0x10
 10037e0:	8f49                	or	a4,a4,a0
 10037e2:	0287ed63          	bltu	a5,s0,100381c <GPIO_ReadDataBit+0xae>
 10037e6:	100087b7          	lui	a5,0x10008
 10037ea:	31f78793          	addi	a5,a5,799 # 1000831f <_sidata+0xeff8747>
 10037ee:	0007c783          	lbu	a5,0(a5)
 10037f2:	4505                	li	a0,1
 10037f4:	00851433          	sll	s0,a0,s0
 10037f8:	01879513          	slli	a0,a5,0x18
 10037fc:	8d59                	or	a0,a0,a4
 10037fe:	8d61                	and	a0,a0,s0
 1003800:	00a03533          	snez	a0,a0
 1003804:	2980906f          	j	100ca9c <__riscv_restore_0>
 1003808:	100087b7          	lui	a5,0x10008
 100380c:	31b78793          	addi	a5,a5,795 # 1000831b <_sidata+0xeff8743>
 1003810:	bf4d                	j	10037c2 <GPIO_ReadDataBit+0x54>
 1003812:	100087b7          	lui	a5,0x10008
 1003816:	31c78793          	addi	a5,a5,796 # 1000831c <_sidata+0xeff8744>
 100381a:	bf7d                	j	10037d8 <GPIO_ReadDataBit+0x6a>
 100381c:	100087b7          	lui	a5,0x10008
 1003820:	31d78793          	addi	a5,a5,797 # 1000831d <_sidata+0xeff8745>
 1003824:	b7e9                	j	10037ee <GPIO_ReadDataBit+0x80>

01003826 <GPIO_WakeUp>:
GPIO_WakeUp():
 1003826:	01f57893          	andi	a7,a0,31
 100382a:	47fd                	li	a5,31
 100382c:	10004837          	lui	a6,0x10004
 1003830:	16058063          	beqz	a1,1003990 <GPIO_WakeUp+0x16a>
 1003834:	12a7e263          	bltu	a5,a0,1003958 <GPIO_WakeUp+0x132>
 1003838:	33780813          	addi	a6,a6,823 # 10004337 <_sidata+0xeff475f>
 100383c:	00084683          	lbu	a3,0(a6)
 1003840:	47fd                	li	a5,31
 1003842:	100045b7          	lui	a1,0x10004
 1003846:	0ff6f693          	andi	a3,a3,255
 100384a:	10a7ea63          	bltu	a5,a0,100395e <GPIO_WakeUp+0x138>
 100384e:	33858593          	addi	a1,a1,824 # 10004338 <_sidata+0xeff4760>
 1003852:	0005c303          	lbu	t1,0(a1)
 1003856:	47fd                	li	a5,31
 1003858:	10004637          	lui	a2,0x10004
 100385c:	0322                	slli	t1,t1,0x8
 100385e:	00d366b3          	or	a3,t1,a3
 1003862:	10a7e163          	bltu	a5,a0,1003964 <GPIO_WakeUp+0x13e>
 1003866:	33960613          	addi	a2,a2,825 # 10004339 <_sidata+0xeff4761>
 100386a:	00064303          	lbu	t1,0(a2)
 100386e:	47fd                	li	a5,31
 1003870:	10004737          	lui	a4,0x10004
 1003874:	0342                	slli	t1,t1,0x10
 1003876:	00d36333          	or	t1,t1,a3
 100387a:	0ea7e863          	bltu	a5,a0,100396a <GPIO_WakeUp+0x144>
 100387e:	33a70713          	addi	a4,a4,826 # 1000433a <_sidata+0xeff4762>
 1003882:	00074683          	lbu	a3,0(a4)
 1003886:	4785                	li	a5,1
 1003888:	011797b3          	sll	a5,a5,a7
 100388c:	06e2                	slli	a3,a3,0x18
 100388e:	0ff7f893          	andi	a7,a5,255
 1003892:	0066e333          	or	t1,a3,t1
 1003896:	fff8c693          	not	a3,a7
 100389a:	0066f6b3          	and	a3,a3,t1
 100389e:	0ff6f693          	andi	a3,a3,255
 10038a2:	00d80023          	sb	a3,0(a6)
 10038a6:	fff7c693          	not	a3,a5
 10038aa:	0066f6b3          	and	a3,a3,t1
 10038ae:	4086d813          	srai	a6,a3,0x8
 10038b2:	0ff87813          	andi	a6,a6,255
 10038b6:	01058023          	sb	a6,0(a1)
 10038ba:	4106d593          	srai	a1,a3,0x10
 10038be:	0ff5f593          	andi	a1,a1,255
 10038c2:	00b60023          	sb	a1,0(a2)
 10038c6:	82e1                	srli	a3,a3,0x18
 10038c8:	00d70023          	sb	a3,0(a4)
 10038cc:	477d                	li	a4,31
 10038ce:	100045b7          	lui	a1,0x10004
 10038d2:	08a76f63          	bltu	a4,a0,1003970 <GPIO_WakeUp+0x14a>
 10038d6:	33b58593          	addi	a1,a1,827 # 1000433b <_sidata+0xeff4763>
 10038da:	0005c703          	lbu	a4,0(a1)
 10038de:	46fd                	li	a3,31
 10038e0:	10004637          	lui	a2,0x10004
 10038e4:	0ff77713          	andi	a4,a4,255
 10038e8:	08a6e763          	bltu	a3,a0,1003976 <GPIO_WakeUp+0x150>
 10038ec:	33c60613          	addi	a2,a2,828 # 1000433c <_sidata+0xeff4764>
 10038f0:	00064803          	lbu	a6,0(a2)
 10038f4:	46fd                	li	a3,31
 10038f6:	0822                	slli	a6,a6,0x8
 10038f8:	00e86733          	or	a4,a6,a4
 10038fc:	08a6e063          	bltu	a3,a0,100397c <GPIO_WakeUp+0x156>
 1003900:	100046b7          	lui	a3,0x10004
 1003904:	33d68693          	addi	a3,a3,829 # 1000433d <_sidata+0xeff4765>
 1003908:	0006c803          	lbu	a6,0(a3)
 100390c:	0842                	slli	a6,a6,0x10
 100390e:	00e86833          	or	a6,a6,a4
 1003912:	477d                	li	a4,31
 1003914:	06a76963          	bltu	a4,a0,1003986 <GPIO_WakeUp+0x160>
 1003918:	10004737          	lui	a4,0x10004
 100391c:	33e70713          	addi	a4,a4,830 # 1000433e <_sidata+0xeff4766>
 1003920:	00074503          	lbu	a0,0(a4)
 1003924:	0562                	slli	a0,a0,0x18
 1003926:	01056533          	or	a0,a0,a6
 100392a:	00a8e8b3          	or	a7,a7,a0
 100392e:	8fc9                	or	a5,a5,a0
 1003930:	0ff8f893          	andi	a7,a7,255
 1003934:	01158023          	sb	a7,0(a1)
 1003938:	4087d593          	srai	a1,a5,0x8
 100393c:	0ff5f593          	andi	a1,a1,255
 1003940:	00b60023          	sb	a1,0(a2)
 1003944:	4107d613          	srai	a2,a5,0x10
 1003948:	0ff67613          	andi	a2,a2,255
 100394c:	00c68023          	sb	a2,0(a3)
 1003950:	83e1                	srli	a5,a5,0x18
 1003952:	00f70023          	sb	a5,0(a4)
 1003956:	8082                	ret
 1003958:	34180813          	addi	a6,a6,833
 100395c:	b5c5                	j	100383c <GPIO_WakeUp+0x16>
 100395e:	34258593          	addi	a1,a1,834
 1003962:	bdc5                	j	1003852 <GPIO_WakeUp+0x2c>
 1003964:	34360613          	addi	a2,a2,835
 1003968:	b709                	j	100386a <GPIO_WakeUp+0x44>
 100396a:	34470713          	addi	a4,a4,836
 100396e:	bf11                	j	1003882 <GPIO_WakeUp+0x5c>
 1003970:	34058593          	addi	a1,a1,832
 1003974:	b79d                	j	10038da <GPIO_WakeUp+0xb4>
 1003976:	34160613          	addi	a2,a2,833
 100397a:	bf9d                	j	10038f0 <GPIO_WakeUp+0xca>
 100397c:	100046b7          	lui	a3,0x10004
 1003980:	34268693          	addi	a3,a3,834 # 10004342 <_sidata+0xeff476a>
 1003984:	b751                	j	1003908 <GPIO_WakeUp+0xe2>
 1003986:	10004737          	lui	a4,0x10004
 100398a:	34370713          	addi	a4,a4,835 # 10004343 <_sidata+0xeff476b>
 100398e:	bf49                	j	1003920 <GPIO_WakeUp+0xfa>
 1003990:	0ea7e763          	bltu	a5,a0,1003a7e <GPIO_WakeUp+0x258>
 1003994:	33b80813          	addi	a6,a6,827
 1003998:	00084683          	lbu	a3,0(a6)
 100399c:	47fd                	li	a5,31
 100399e:	100045b7          	lui	a1,0x10004
 10039a2:	0ff6f693          	andi	a3,a3,255
 10039a6:	0ca7ef63          	bltu	a5,a0,1003a84 <GPIO_WakeUp+0x25e>
 10039aa:	33c58593          	addi	a1,a1,828 # 1000433c <_sidata+0xeff4764>
 10039ae:	0005c303          	lbu	t1,0(a1)
 10039b2:	47fd                	li	a5,31
 10039b4:	10004637          	lui	a2,0x10004
 10039b8:	0322                	slli	t1,t1,0x8
 10039ba:	00d366b3          	or	a3,t1,a3
 10039be:	0ca7e663          	bltu	a5,a0,1003a8a <GPIO_WakeUp+0x264>
 10039c2:	33d60613          	addi	a2,a2,829 # 1000433d <_sidata+0xeff4765>
 10039c6:	00064303          	lbu	t1,0(a2)
 10039ca:	47fd                	li	a5,31
 10039cc:	10004737          	lui	a4,0x10004
 10039d0:	0342                	slli	t1,t1,0x10
 10039d2:	00d36333          	or	t1,t1,a3
 10039d6:	0aa7ed63          	bltu	a5,a0,1003a90 <GPIO_WakeUp+0x26a>
 10039da:	33e70713          	addi	a4,a4,830 # 1000433e <_sidata+0xeff4766>
 10039de:	00074683          	lbu	a3,0(a4)
 10039e2:	4785                	li	a5,1
 10039e4:	011797b3          	sll	a5,a5,a7
 10039e8:	06e2                	slli	a3,a3,0x18
 10039ea:	0ff7f893          	andi	a7,a5,255
 10039ee:	0066e333          	or	t1,a3,t1
 10039f2:	fff8c693          	not	a3,a7
 10039f6:	0066f6b3          	and	a3,a3,t1
 10039fa:	0ff6f693          	andi	a3,a3,255
 10039fe:	00d80023          	sb	a3,0(a6)
 1003a02:	fff7c693          	not	a3,a5
 1003a06:	0066f6b3          	and	a3,a3,t1
 1003a0a:	4086d813          	srai	a6,a3,0x8
 1003a0e:	0ff87813          	andi	a6,a6,255
 1003a12:	01058023          	sb	a6,0(a1)
 1003a16:	4106d593          	srai	a1,a3,0x10
 1003a1a:	0ff5f593          	andi	a1,a1,255
 1003a1e:	00b60023          	sb	a1,0(a2)
 1003a22:	82e1                	srli	a3,a3,0x18
 1003a24:	00d70023          	sb	a3,0(a4)
 1003a28:	477d                	li	a4,31
 1003a2a:	100045b7          	lui	a1,0x10004
 1003a2e:	06a76463          	bltu	a4,a0,1003a96 <GPIO_WakeUp+0x270>
 1003a32:	33758593          	addi	a1,a1,823 # 10004337 <_sidata+0xeff475f>
 1003a36:	0005c703          	lbu	a4,0(a1)
 1003a3a:	46fd                	li	a3,31
 1003a3c:	10004637          	lui	a2,0x10004
 1003a40:	0ff77713          	andi	a4,a4,255
 1003a44:	04a6ec63          	bltu	a3,a0,1003a9c <GPIO_WakeUp+0x276>
 1003a48:	33860613          	addi	a2,a2,824 # 10004338 <_sidata+0xeff4760>
 1003a4c:	00064803          	lbu	a6,0(a2)
 1003a50:	46fd                	li	a3,31
 1003a52:	0822                	slli	a6,a6,0x8
 1003a54:	00e86733          	or	a4,a6,a4
 1003a58:	04a6e563          	bltu	a3,a0,1003aa2 <GPIO_WakeUp+0x27c>
 1003a5c:	100046b7          	lui	a3,0x10004
 1003a60:	33968693          	addi	a3,a3,825 # 10004339 <_sidata+0xeff4761>
 1003a64:	0006c803          	lbu	a6,0(a3)
 1003a68:	0842                	slli	a6,a6,0x10
 1003a6a:	00e86833          	or	a6,a6,a4
 1003a6e:	477d                	li	a4,31
 1003a70:	02a76e63          	bltu	a4,a0,1003aac <GPIO_WakeUp+0x286>
 1003a74:	10004737          	lui	a4,0x10004
 1003a78:	33a70713          	addi	a4,a4,826 # 1000433a <_sidata+0xeff4762>
 1003a7c:	b555                	j	1003920 <GPIO_WakeUp+0xfa>
 1003a7e:	34080813          	addi	a6,a6,832
 1003a82:	bf19                	j	1003998 <GPIO_WakeUp+0x172>
 1003a84:	34158593          	addi	a1,a1,833
 1003a88:	b71d                	j	10039ae <GPIO_WakeUp+0x188>
 1003a8a:	34260613          	addi	a2,a2,834
 1003a8e:	bf25                	j	10039c6 <GPIO_WakeUp+0x1a0>
 1003a90:	34370713          	addi	a4,a4,835
 1003a94:	b7a9                	j	10039de <GPIO_WakeUp+0x1b8>
 1003a96:	34158593          	addi	a1,a1,833
 1003a9a:	bf71                	j	1003a36 <GPIO_WakeUp+0x210>
 1003a9c:	34260613          	addi	a2,a2,834
 1003aa0:	b775                	j	1003a4c <GPIO_WakeUp+0x226>
 1003aa2:	100046b7          	lui	a3,0x10004
 1003aa6:	34368693          	addi	a3,a3,835 # 10004343 <_sidata+0xeff476b>
 1003aaa:	bf6d                	j	1003a64 <GPIO_WakeUp+0x23e>
 1003aac:	10004737          	lui	a4,0x10004
 1003ab0:	34470713          	addi	a4,a4,836 # 10004344 <_sidata+0xeff476c>
 1003ab4:	b5b5                	j	1003920 <GPIO_WakeUp+0xfa>

01003ab6 <IWDG_SetReload>:
IWDG_SetReload():
 1003ab6:	7c3082ef          	jal	t0,100ca78 <__riscv_save_0>
 1003aba:	411c                	lw	a5,0(a0)
 1003abc:	6721                	lui	a4,0x8
 1003abe:	0711                	addi	a4,a4,4
 1003ac0:	078e                	slli	a5,a5,0x3
 1003ac2:	97ba                	add	a5,a5,a4
 1003ac4:	10000737          	lui	a4,0x10000
 1003ac8:	8fd9                	or	a5,a5,a4
 1003aca:	00854703          	lbu	a4,8(a0)
 1003ace:	05a00513          	li	a0,90
 1003ad2:	00e78023          	sb	a4,0(a5)
 1003ad6:	862fe0ef          	jal	ra,1001b38 <wait_lpodelay>
 1003ada:	7c30806f          	j	100ca9c <__riscv_restore_0>

01003ade <IWDG_ReloadCounter>:
IWDG_ReloadCounter():
 1003ade:	79b082ef          	jal	t0,100ca78 <__riscv_save_0>
 1003ae2:	3fd1                	jal	1003ab6 <IWDG_SetReload>
 1003ae4:	7b90806f          	j	100ca9c <__riscv_restore_0>

01003ae8 <IWDG_Disable>:
IWDG_Disable():
 1003ae8:	791082ef          	jal	t0,100ca78 <__riscv_save_0>
 1003aec:	4785                	li	a5,1
 1003aee:	842a                	mv	s0,a0
 1003af0:	00a7fe63          	bgeu	a5,a0,1003b0c <IWDG_Disable+0x24>
 1003af4:	0100d637          	lui	a2,0x100d
 1003af8:	0100d537          	lui	a0,0x100d
 1003afc:	1d860613          	addi	a2,a2,472 # 100d1d8 <__FUNCTION__.2182>
 1003b00:	05100593          	li	a1,81
 1003b04:	1b050513          	addi	a0,a0,432 # 100d1b0 <__FUNCTION__.2298+0x14>
 1003b08:	d5bfd0ef          	jal	ra,1001862 <_assert_handler>
 1003b0c:	0405                	addi	s0,s0,1
 1003b0e:	0406                	slli	s0,s0,0x1
 1003b10:	ef1fd0ef          	jal	ra,1001a00 <CoreReg_LpmGetIceWdtLongRst>
 1003b14:	fff44413          	not	s0,s0
 1003b18:	8d61                	and	a0,a0,s0
 1003b1a:	ed9fd0ef          	jal	ra,10019f2 <CoreReg_LpmWrite2IceWdtLongRst>
 1003b1e:	77f0806f          	j	100ca9c <__riscv_restore_0>

01003b22 <prefetch>:
prefetch():
 1003b22:	9901                	andi	a0,a0,-32
 1003b24:	05fd                	addi	a1,a1,31
 1003b26:	00a5d363          	bge	a1,a0,1003b2c <prefetch+0xa>
 1003b2a:	8082                	ret
 1003b2c:	00052023          	sw	zero,0(a0)
 1003b30:	02050513          	addi	a0,a0,32
 1003b34:	bfcd                	j	1003b26 <prefetch+0x4>

01003b36 <qspi0_dma_start>:
qspi0_dma_start():
 1003b36:	100087b7          	lui	a5,0x10008
 1003b3a:	0ff57713          	andi	a4,a0,255
 1003b3e:	8521                	srai	a0,a0,0x8
 1003b40:	0ae78223          	sb	a4,164(a5) # 100080a4 <_sidata+0xeff84cc>
 1003b44:	0ff57513          	andi	a0,a0,255
 1003b48:	0aa782a3          	sb	a0,165(a5)
 1003b4c:	0ff5f713          	andi	a4,a1,255
 1003b50:	85a1                	srai	a1,a1,0x8
 1003b52:	0ae78123          	sb	a4,162(a5)
 1003b56:	0ff5f593          	andi	a1,a1,255
 1003b5a:	0ab781a3          	sb	a1,163(a5)
 1003b5e:	0ff67713          	andi	a4,a2,255
 1003b62:	8621                	srai	a2,a2,0x8
 1003b64:	0ae78323          	sb	a4,166(a5)
 1003b68:	0ff67613          	andi	a2,a2,255
 1003b6c:	0ac783a3          	sb	a2,167(a5)
 1003b70:	0ff6f713          	andi	a4,a3,255
 1003b74:	86a1                	srai	a3,a3,0x8
 1003b76:	0ae78423          	sb	a4,168(a5)
 1003b7a:	0ff6f693          	andi	a3,a3,255
 1003b7e:	0ad784a3          	sb	a3,169(a5)
 1003b82:	4721                	li	a4,8
 1003b84:	00e78523          	sb	a4,10(a5)
 1003b88:	8082                	ret

01003b8a <qspi0_dma_wait>:
qspi0_dma_wait():
 1003b8a:	67c1                	lui	a5,0x10
 1003b8c:	0785                	addi	a5,a5,1
 1003b8e:	10008737          	lui	a4,0x10008
 1003b92:	33074503          	lbu	a0,816(a4) # 10008330 <_sidata+0xeff8758>
 1003b96:	8921                	andi	a0,a0,8
 1003b98:	00050463          	beqz	a0,1003ba0 <qspi0_dma_wait+0x16>
 1003b9c:	4505                	li	a0,1
 1003b9e:	a021                	j	1003ba6 <qspi0_dma_wait+0x1c>
 1003ba0:	17fd                	addi	a5,a5,-1
 1003ba2:	fe0798e3          	bnez	a5,1003b92 <qspi0_dma_wait+0x8>
 1003ba6:	8082                	ret

01003ba8 <qspi0_write>:
qspi0_write():
 1003ba8:	6d1082ef          	jal	t0,100ca78 <__riscv_save_0>
 1003bac:	10008437          	lui	s0,0x10008
 1003bb0:	0a044903          	lbu	s2,160(s0) # 100080a0 <_sidata+0xeff84c8>
 1003bb4:	04400793          	li	a5,68
 1003bb8:	0a144483          	lbu	s1,161(s0)
 1003bbc:	0af40023          	sb	a5,160(s0)
 1003bc0:	f8000793          	li	a5,-128
 1003bc4:	0af400a3          	sb	a5,161(s0)
 1003bc8:	4681                	li	a3,0
 1003bca:	4601                	li	a2,0
 1003bcc:	0ff97913          	andi	s2,s2,255
 1003bd0:	379d                	jal	1003b36 <qspi0_dma_start>
 1003bd2:	3f65                	jal	1003b8a <qspi0_dma_wait>
 1003bd4:	0ff4f493          	andi	s1,s1,255
 1003bd8:	0b240023          	sb	s2,160(s0)
 1003bdc:	0a9400a3          	sb	s1,161(s0)
 1003be0:	6bd0806f          	j	100ca9c <__riscv_restore_0>

01003be4 <qspi0_read_write>:
qspi0_read_write():
 1003be4:	695082ef          	jal	t0,100ca78 <__riscv_save_0>
 1003be8:	10008437          	lui	s0,0x10008
 1003bec:	0a044903          	lbu	s2,160(s0) # 100080a0 <_sidata+0xeff84c8>
 1003bf0:	04400793          	li	a5,68
 1003bf4:	0a144483          	lbu	s1,161(s0)
 1003bf8:	0af40023          	sb	a5,160(s0)
 1003bfc:	f8000793          	li	a5,-128
 1003c00:	0af400a3          	sb	a5,161(s0)
 1003c04:	0ff97913          	andi	s2,s2,255
 1003c08:	373d                	jal	1003b36 <qspi0_dma_start>
 1003c0a:	3741                	jal	1003b8a <qspi0_dma_wait>
 1003c0c:	0ff4f493          	andi	s1,s1,255
 1003c10:	0b240023          	sb	s2,160(s0)
 1003c14:	0a9400a3          	sb	s1,161(s0)
 1003c18:	6850806f          	j	100ca9c <__riscv_restore_0>

01003c1c <qspi0_flash_cmd>:
qspi0_flash_cmd():
 1003c1c:	65d082ef          	jal	t0,100ca78 <__riscv_save_0>
 1003c20:	1141                	addi	sp,sp,-16
 1003c22:	00a10623          	sb	a0,12(sp)
 1003c26:	4585                	li	a1,1
 1003c28:	0068                	addi	a0,sp,12
 1003c2a:	3fbd                	jal	1003ba8 <qspi0_write>
 1003c2c:	0141                	addi	sp,sp,16
 1003c2e:	66f0806f          	j	100ca9c <__riscv_restore_0>

01003c32 <qspi0_flash_readstatus1>:
qspi0_flash_readstatus1():
 1003c32:	647082ef          	jal	t0,100ca78 <__riscv_save_0>
 1003c36:	1141                	addi	sp,sp,-16
 1003c38:	4795                	li	a5,5
 1003c3a:	862a                	mv	a2,a0
 1003c3c:	4685                	li	a3,1
 1003c3e:	4585                	li	a1,1
 1003c40:	0068                	addi	a0,sp,12
 1003c42:	00f10623          	sb	a5,12(sp)
 1003c46:	3f79                	jal	1003be4 <qspi0_read_write>
 1003c48:	0141                	addi	sp,sp,16
 1003c4a:	6530806f          	j	100ca9c <__riscv_restore_0>

01003c4e <qspi0_flash_readstatus2>:
qspi0_flash_readstatus2():
 1003c4e:	62b082ef          	jal	t0,100ca78 <__riscv_save_0>
 1003c52:	1141                	addi	sp,sp,-16
 1003c54:	03500793          	li	a5,53
 1003c58:	862a                	mv	a2,a0
 1003c5a:	4685                	li	a3,1
 1003c5c:	4585                	li	a1,1
 1003c5e:	0068                	addi	a0,sp,12
 1003c60:	00f10623          	sb	a5,12(sp)
 1003c64:	3741                	jal	1003be4 <qspi0_read_write>
 1003c66:	0141                	addi	sp,sp,16
 1003c68:	6350806f          	j	100ca9c <__riscv_restore_0>

01003c6c <qspi0_flash_waitfinish>:
qspi0_flash_waitfinish():
 1003c6c:	60d082ef          	jal	t0,100ca78 <__riscv_save_0>
 1003c70:	1141                	addi	sp,sp,-16
 1003c72:	4785                	li	a5,1
 1003c74:	01000437          	lui	s0,0x1000
 1003c78:	00f107a3          	sb	a5,15(sp)
 1003c7c:	0405                	addi	s0,s0,1
 1003c7e:	00f10513          	addi	a0,sp,15
 1003c82:	147d                	addi	s0,s0,-1
 1003c84:	377d                	jal	1003c32 <qspi0_flash_readstatus1>
 1003c86:	00040b63          	beqz	s0,1003c9c <qspi0_flash_waitfinish+0x30>
 1003c8a:	00f14783          	lbu	a5,15(sp)
 1003c8e:	8b85                	andi	a5,a5,1
 1003c90:	fe0797e3          	bnez	a5,1003c7e <qspi0_flash_waitfinish+0x12>
 1003c94:	4505                	li	a0,1
 1003c96:	0141                	addi	sp,sp,16
 1003c98:	6050806f          	j	100ca9c <__riscv_restore_0>
 1003c9c:	4501                	li	a0,0
 1003c9e:	bfe5                	j	1003c96 <qspi0_flash_waitfinish+0x2a>

01003ca0 <qspi0_flash_writestatus>:
qspi0_flash_writestatus():
 1003ca0:	5d9082ef          	jal	t0,100ca78 <__riscv_save_0>
 1003ca4:	1141                	addi	sp,sp,-16
 1003ca6:	4785                	li	a5,1
 1003ca8:	00f10623          	sb	a5,12(sp)
 1003cac:	00054783          	lbu	a5,0(a0)
 1003cb0:	00f106a3          	sb	a5,13(sp)
 1003cb4:	00154783          	lbu	a5,1(a0)
 1003cb8:	4519                	li	a0,6
 1003cba:	00f10723          	sb	a5,14(sp)
 1003cbe:	3fb9                	jal	1003c1c <qspi0_flash_cmd>
 1003cc0:	00050663          	beqz	a0,1003ccc <qspi0_flash_writestatus+0x2c>
 1003cc4:	458d                	li	a1,3
 1003cc6:	0068                	addi	a0,sp,12
 1003cc8:	35c5                	jal	1003ba8 <qspi0_write>
 1003cca:	374d                	jal	1003c6c <qspi0_flash_waitfinish>
 1003ccc:	0141                	addi	sp,sp,16
 1003cce:	5cf0806f          	j	100ca9c <__riscv_restore_0>

01003cd2 <qspi0_flash_writeenable>:
qspi0_flash_writeenable():
 1003cd2:	5a7082ef          	jal	t0,100ca78 <__riscv_save_0>
 1003cd6:	4519                	li	a0,6
 1003cd8:	3791                	jal	1003c1c <qspi0_flash_cmd>
 1003cda:	5c30806f          	j	100ca9c <__riscv_restore_0>

01003cde <_qspi0_flash_write>:
_qspi0_flash_write():
 1003cde:	581082ef          	jal	t0,100ca5e <__riscv_save_4>
 1003ce2:	89ae                	mv	s3,a1
 1003ce4:	716d                	addi	sp,sp,-272
 1003ce6:	0ff98913          	addi	s2,s3,255
 1003cea:	8432                	mv	s0,a2
 1003cec:	8a2a                	mv	s4,a0
 1003cee:	10400613          	li	a2,260
 1003cf2:	4581                	li	a1,0
 1003cf4:	0068                	addi	a0,sp,12
 1003cf6:	f0097913          	andi	s2,s2,-256
 1003cfa:	6cb080ef          	jal	ra,100cbc4 <memset>
 1003cfe:	9922                	add	s2,s2,s0
 1003d00:	10000a93          	li	s5,256
 1003d04:	408a0a33          	sub	s4,s4,s0
 1003d08:	4b09                	li	s6,2
 1003d0a:	01241463          	bne	s0,s2,1003d12 <_qspi0_flash_write+0x34>
 1003d0e:	4505                	li	a0,1
 1003d10:	a83d                	j	1003d4e <_qspi0_flash_write+0x70>
 1003d12:	86ce                	mv	a3,s3
 1003d14:	013af463          	bgeu	s5,s3,1003d1c <_qspi0_flash_write+0x3e>
 1003d18:	10000693          	li	a3,256
 1003d1c:	008a07b3          	add	a5,s4,s0
 1003d20:	0107d713          	srli	a4,a5,0x10
 1003d24:	00e106a3          	sb	a4,13(sp)
 1003d28:	00879713          	slli	a4,a5,0x8
 1003d2c:	07c2                	slli	a5,a5,0x10
 1003d2e:	83c1                	srli	a5,a5,0x10
 1003d30:	83a1                	srli	a5,a5,0x8
 1003d32:	8fd9                	or	a5,a5,a4
 1003d34:	00f11723          	sh	a5,14(sp)
 1003d38:	01610623          	sb	s6,12(sp)
 1003d3c:	007c                	addi	a5,sp,12
 1003d3e:	4481                	li	s1,0
 1003d40:	0785                	addi	a5,a5,1
 1003d42:	00d49963          	bne	s1,a3,1003d54 <_qspi0_flash_write+0x76>
 1003d46:	3771                	jal	1003cd2 <qspi0_flash_writeenable>
 1003d48:	00051e63          	bnez	a0,1003d64 <_qspi0_flash_write+0x86>
 1003d4c:	4501                	li	a0,0
 1003d4e:	6151                	addi	sp,sp,272
 1003d50:	5430806f          	j	100ca92 <__riscv_restore_4>
 1003d54:	00940733          	add	a4,s0,s1
 1003d58:	00074703          	lbu	a4,0(a4)
 1003d5c:	0485                	addi	s1,s1,1
 1003d5e:	00e781a3          	sb	a4,3(a5) # 10003 <__EN_MIE-0xff007b>
 1003d62:	bff9                	j	1003d40 <_qspi0_flash_write+0x62>
 1003d64:	00448593          	addi	a1,s1,4
 1003d68:	0068                	addi	a0,sp,12
 1003d6a:	3d3d                	jal	1003ba8 <qspi0_write>
 1003d6c:	fe0500e3          	beqz	a0,1003d4c <_qspi0_flash_write+0x6e>
 1003d70:	3df5                	jal	1003c6c <qspi0_flash_waitfinish>
 1003d72:	10040413          	addi	s0,s0,256 # 1000100 <Default_IRQHandler+0x58>
 1003d76:	fc050be3          	beqz	a0,1003d4c <_qspi0_flash_write+0x6e>
 1003d7a:	409989b3          	sub	s3,s3,s1
 1003d7e:	b771                	j	1003d0a <_qspi0_flash_write+0x2c>

01003d80 <_qspi0_flash_erase>:
_qspi0_flash_erase():
 1003d80:	4f9082ef          	jal	t0,100ca78 <__riscv_save_0>
 1003d84:	1101                	addi	sp,sp,-32
 1003d86:	c62e                	sw	a1,12(sp)
 1003d88:	842a                	mv	s0,a0
 1003d8a:	ce02                	sw	zero,28(sp)
 1003d8c:	3799                	jal	1003cd2 <qspi0_flash_writeenable>
 1003d8e:	45b2                	lw	a1,12(sp)
 1003d90:	00051663          	bnez	a0,1003d9c <_qspi0_flash_erase+0x1c>
 1003d94:	4501                	li	a0,0
 1003d96:	6105                	addi	sp,sp,32
 1003d98:	5050806f          	j	100ca9c <__riscv_restore_0>
 1003d9c:	0105d793          	srli	a5,a1,0x10
 1003da0:	00f10ea3          	sb	a5,29(sp)
 1003da4:	00859793          	slli	a5,a1,0x8
 1003da8:	05c2                	slli	a1,a1,0x10
 1003daa:	81c1                	srli	a1,a1,0x10
 1003dac:	81a1                	srli	a1,a1,0x8
 1003dae:	8ddd                	or	a1,a1,a5
 1003db0:	00b11f23          	sh	a1,30(sp)
 1003db4:	0868                	addi	a0,sp,28
 1003db6:	4591                	li	a1,4
 1003db8:	00810e23          	sb	s0,28(sp)
 1003dbc:	33f5                	jal	1003ba8 <qspi0_write>
 1003dbe:	fc050be3          	beqz	a0,1003d94 <_qspi0_flash_erase+0x14>
 1003dc2:	356d                	jal	1003c6c <qspi0_flash_waitfinish>
 1003dc4:	bfc9                	j	1003d96 <_qspi0_flash_erase+0x16>

01003dc6 <_qspi0_flash_read>:
_qspi0_flash_read():
 1003dc6:	4b3082ef          	jal	t0,100ca78 <__riscv_save_0>
 1003dca:	1141                	addi	sp,sp,-16
 1003dcc:	c402                	sw	zero,8(sp)
 1003dce:	0105d713          	srli	a4,a1,0x10
 1003dd2:	00010623          	sb	zero,12(sp)
 1003dd6:	100087b7          	lui	a5,0x10008
 1003dda:	0a07c483          	lbu	s1,160(a5) # 100080a0 <_sidata+0xeff84c8>
 1003dde:	0a17c403          	lbu	s0,161(a5)
 1003de2:	00e104a3          	sb	a4,9(sp)
 1003de6:	00859713          	slli	a4,a1,0x8
 1003dea:	05c2                	slli	a1,a1,0x10
 1003dec:	81c1                	srli	a1,a1,0x10
 1003dee:	81a1                	srli	a1,a1,0x8
 1003df0:	8dd9                	or	a1,a1,a4
 1003df2:	00a10423          	sb	a0,8(sp)
 1003df6:	00b11523          	sh	a1,10(sp)
 1003dfa:	0bb00713          	li	a4,187
 1003dfe:	8832                	mv	a6,a2
 1003e00:	0ff4f493          	andi	s1,s1,255
 1003e04:	8636                	mv	a2,a3
 1003e06:	0ff47413          	andi	s0,s0,255
 1003e0a:	04e50d63          	beq	a0,a4,1003e64 <_qspi0_flash_read+0x9e>
 1003e0e:	02a76363          	bltu	a4,a0,1003e34 <_qspi0_flash_read+0x6e>
 1003e12:	03b00713          	li	a4,59
 1003e16:	02e50e63          	beq	a0,a4,1003e52 <_qspi0_flash_read+0x8c>
 1003e1a:	06b00713          	li	a4,107
 1003e1e:	06e50963          	beq	a0,a4,1003e90 <_qspi0_flash_read+0xca>
 1003e22:	100087b7          	lui	a5,0x10008
 1003e26:	04400713          	li	a4,68
 1003e2a:	0ae78023          	sb	a4,160(a5) # 100080a0 <_sidata+0xeff84c8>
 1003e2e:	0a0780a3          	sb	zero,161(a5)
 1003e32:	a03d                	j	1003e60 <_qspi0_flash_read+0x9a>
 1003e34:	0e700713          	li	a4,231
 1003e38:	04e50f63          	beq	a0,a4,1003e96 <_qspi0_flash_read+0xd0>
 1003e3c:	0eb00713          	li	a4,235
 1003e40:	fee511e3          	bne	a0,a4,1003e22 <_qspi0_flash_read+0x5c>
 1003e44:	05200713          	li	a4,82
 1003e48:	0ae78023          	sb	a4,160(a5)
 1003e4c:	06400713          	li	a4,100
 1003e50:	a005                	j	1003e70 <_qspi0_flash_read+0xaa>
 1003e52:	04100713          	li	a4,65
 1003e56:	0ae78023          	sb	a4,160(a5)
 1003e5a:	4721                	li	a4,8
 1003e5c:	0ae780a3          	sb	a4,161(a5)
 1003e60:	4591                	li	a1,4
 1003e62:	a811                	j	1003e76 <_qspi0_flash_read+0xb0>
 1003e64:	05100713          	li	a4,81
 1003e68:	0ae78023          	sb	a4,160(a5)
 1003e6c:	06000713          	li	a4,96
 1003e70:	0ae780a3          	sb	a4,161(a5)
 1003e74:	4595                	li	a1,5
 1003e76:	86c2                	mv	a3,a6
 1003e78:	0028                	addi	a0,sp,8
 1003e7a:	3975                	jal	1003b36 <qspi0_dma_start>
 1003e7c:	3339                	jal	1003b8a <qspi0_dma_wait>
 1003e7e:	100087b7          	lui	a5,0x10008
 1003e82:	0a978023          	sb	s1,160(a5) # 100080a0 <_sidata+0xeff84c8>
 1003e86:	0a8780a3          	sb	s0,161(a5)
 1003e8a:	0141                	addi	sp,sp,16
 1003e8c:	4110806f          	j	100ca9c <__riscv_restore_0>
 1003e90:	04200713          	li	a4,66
 1003e94:	b7c9                	j	1003e56 <_qspi0_flash_read+0x90>
 1003e96:	05200713          	li	a4,82
 1003e9a:	0ae78023          	sb	a4,160(a5)
 1003e9e:	06200713          	li	a4,98
 1003ea2:	b7f9                	j	1003e70 <_qspi0_flash_read+0xaa>

01003ea4 <qspi0_flash_sectorerase>:
qspi0_flash_sectorerase():
 1003ea4:	3d5082ef          	jal	t0,100ca78 <__riscv_save_0>
 1003ea8:	842a                	mv	s0,a0
 1003eaa:	010045b7          	lui	a1,0x1004
 1003eae:	01004537          	lui	a0,0x1004
 1003eb2:	ea458593          	addi	a1,a1,-348 # 1003ea4 <qspi0_flash_sectorerase>
 1003eb6:	b3650513          	addi	a0,a0,-1226 # 1003b36 <qspi0_dma_start>
 1003eba:	31a5                	jal	1003b22 <prefetch>
 1003ebc:	85a2                	mv	a1,s0
 1003ebe:	02000513          	li	a0,32
 1003ec2:	3d7d                	jal	1003d80 <_qspi0_flash_erase>
 1003ec4:	3d90806f          	j	100ca9c <__riscv_restore_0>

01003ec8 <qspi0_flash_write>:
qspi0_flash_write():
 1003ec8:	3b1082ef          	jal	t0,100ca78 <__riscv_save_0>
 1003ecc:	842a                	mv	s0,a0
 1003ece:	84ae                	mv	s1,a1
 1003ed0:	01004537          	lui	a0,0x1004
 1003ed4:	010045b7          	lui	a1,0x1004
 1003ed8:	1141                	addi	sp,sp,-16
 1003eda:	ec858593          	addi	a1,a1,-312 # 1003ec8 <qspi0_flash_write>
 1003ede:	b3650513          	addi	a0,a0,-1226 # 1003b36 <qspi0_dma_start>
 1003ee2:	c632                	sw	a2,12(sp)
 1003ee4:	393d                	jal	1003b22 <prefetch>
 1003ee6:	4632                	lw	a2,12(sp)
 1003ee8:	85a6                	mv	a1,s1
 1003eea:	8522                	mv	a0,s0
 1003eec:	3bcd                	jal	1003cde <_qspi0_flash_write>
 1003eee:	0141                	addi	sp,sp,16
 1003ef0:	3ad0806f          	j	100ca9c <__riscv_restore_0>

01003ef4 <qspi0_flash_read>:
qspi0_flash_read():
 1003ef4:	385082ef          	jal	t0,100ca78 <__riscv_save_0>
 1003ef8:	842a                	mv	s0,a0
 1003efa:	84ae                	mv	s1,a1
 1003efc:	01004537          	lui	a0,0x1004
 1003f00:	010045b7          	lui	a1,0x1004
 1003f04:	1141                	addi	sp,sp,-16
 1003f06:	ef458593          	addi	a1,a1,-268 # 1003ef4 <qspi0_flash_read>
 1003f0a:	b3650513          	addi	a0,a0,-1226 # 1003b36 <qspi0_dma_start>
 1003f0e:	c632                	sw	a2,12(sp)
 1003f10:	c436                	sw	a3,8(sp)
 1003f12:	3901                	jal	1003b22 <prefetch>
 1003f14:	46a2                	lw	a3,8(sp)
 1003f16:	4632                	lw	a2,12(sp)
 1003f18:	85a6                	mv	a1,s1
 1003f1a:	8522                	mv	a0,s0
 1003f1c:	356d                	jal	1003dc6 <_qspi0_flash_read>
 1003f1e:	0141                	addi	sp,sp,16
 1003f20:	37d0806f          	j	100ca9c <__riscv_restore_0>

01003f24 <qspi0_flash_arealock>:
qspi0_flash_arealock():
 1003f24:	355082ef          	jal	t0,100ca78 <__riscv_save_0>
 1003f28:	1141                	addi	sp,sp,-16
 1003f2a:	84aa                	mv	s1,a0
 1003f2c:	0068                	addi	a0,sp,12
 1003f2e:	842e                	mv	s0,a1
 1003f30:	3309                	jal	1003c32 <qspi0_flash_readstatus1>
 1003f32:	00051663          	bnez	a0,1003f3e <qspi0_flash_arealock+0x1a>
 1003f36:	4501                	li	a0,0
 1003f38:	0141                	addi	sp,sp,16
 1003f3a:	3630806f          	j	100ca9c <__riscv_restore_0>
 1003f3e:	00d10513          	addi	a0,sp,13
 1003f42:	3331                	jal	1003c4e <qspi0_flash_readstatus2>
 1003f44:	fe0509e3          	beqz	a0,1003f36 <qspi0_flash_arealock+0x12>
 1003f48:	00c14703          	lbu	a4,12(sp)
 1003f4c:	00d14783          	lbu	a5,13(sp)
 1003f50:	08377713          	andi	a4,a4,131
 1003f54:	0837f793          	andi	a5,a5,131
 1003f58:	00e10623          	sb	a4,12(sp)
 1003f5c:	00f106a3          	sb	a5,13(sp)
 1003f60:	00048563          	beqz	s1,1003f6a <qspi0_flash_arealock+0x46>
 1003f64:	8f41                	or	a4,a4,s0
 1003f66:	00e10623          	sb	a4,12(sp)
 1003f6a:	0fe00713          	li	a4,254
 1003f6e:	00877663          	bgeu	a4,s0,1003f7a <qspi0_flash_arealock+0x56>
 1003f72:	0407e793          	ori	a5,a5,64
 1003f76:	00f106a3          	sb	a5,13(sp)
 1003f7a:	0068                	addi	a0,sp,12
 1003f7c:	3315                	jal	1003ca0 <qspi0_flash_writestatus>
 1003f7e:	bf6d                	j	1003f38 <qspi0_flash_arealock+0x14>

01003f80 <qspi0_flashwrite_lock>:
qspi0_flashwrite_lock():
 1003f80:	2f9082ef          	jal	t0,100ca78 <__riscv_save_0>
 1003f84:	842a                	mv	s0,a0
 1003f86:	84ae                	mv	s1,a1
 1003f88:	01004537          	lui	a0,0x1004
 1003f8c:	010045b7          	lui	a1,0x1004
 1003f90:	f8058593          	addi	a1,a1,-128 # 1003f80 <qspi0_flashwrite_lock>
 1003f94:	b3650513          	addi	a0,a0,-1226 # 1003b36 <qspi0_dma_start>
 1003f98:	b8bff0ef          	jal	ra,1003b22 <prefetch>
 1003f9c:	85a6                	mv	a1,s1
 1003f9e:	8522                	mv	a0,s0
 1003fa0:	3751                	jal	1003f24 <qspi0_flash_arealock>
 1003fa2:	2fb0806f          	j	100ca9c <__riscv_restore_0>

01003fa6 <SysTick_Config>:
SysTick_Config():
 1003fa6:	157d                	addi	a0,a0,-1
 1003fa8:	010007b7          	lui	a5,0x1000
 1003fac:	02f57163          	bgeu	a0,a5,1003fce <SysTick_Config+0x28>
 1003fb0:	1001f7b7          	lui	a5,0x1001f
 1003fb4:	4398                	lw	a4,0(a5)
 1003fb6:	66c1                	lui	a3,0x10
 1003fb8:	f0a68693          	addi	a3,a3,-246 # ff0a <__EN_MIE-0xff0174>
 1003fbc:	9b5d                	andi	a4,a4,-9
 1003fbe:	c398                	sw	a4,0(a5)
 1003fc0:	c788                	sw	a0,8(a5)
 1003fc2:	c7c8                	sw	a0,12(a5)
 1003fc4:	4398                	lw	a4,0(a5)
 1003fc6:	4501                	li	a0,0
 1003fc8:	8f55                	or	a4,a4,a3
 1003fca:	c398                	sw	a4,0(a5)
 1003fcc:	8082                	ret
 1003fce:	4505                	li	a0,1
 1003fd0:	8082                	ret

01003fd2 <SysTick_TimerGet1usTicks>:
SysTick_TimerGet1usTicks():
 1003fd2:	100087b7          	lui	a5,0x10008
 1003fd6:	0427c703          	lbu	a4,66(a5) # 10008042 <_sidata+0xeff846a>
 1003fda:	0437c783          	lbu	a5,67(a5)
 1003fde:	4561                	li	a0,24
 1003fe0:	8b0d                	andi	a4,a4,3
 1003fe2:	8385                	srli	a5,a5,0x1
 1003fe4:	8b8d                	andi	a5,a5,3
 1003fe6:	00070963          	beqz	a4,1003ff8 <SysTick_TimerGet1usTicks+0x26>
 1003fea:	0100d737          	lui	a4,0x100d
 1003fee:	1e870713          	addi	a4,a4,488 # 100d1e8 <CSWTCH.10>
 1003ff2:	97ba                	add	a5,a5,a4
 1003ff4:	0007c503          	lbu	a0,0(a5)
 1003ff8:	8082                	ret

01003ffa <SysTick_IrqInit>:
SysTick_IrqInit():
 1003ffa:	27f082ef          	jal	t0,100ca78 <__riscv_save_0>
 1003ffe:	100107b7          	lui	a5,0x10010
 1004002:	6ac7ac23          	sw	a2,1720(a5) # 100106b8 <g_systickIrqCallback>
 1004006:	100107b7          	lui	a5,0x10010
 100400a:	6ab7ae23          	sw	a1,1724(a5) # 100106bc <g_systick_unitUs>
 100400e:	84aa                	mv	s1,a0
 1004010:	843e                	mv	s0,a5
 1004012:	00060863          	beqz	a2,1004022 <SysTick_IrqInit+0x28>
 1004016:	4605                	li	a2,1
 1004018:	45b9                	li	a1,14
 100401a:	03000513          	li	a0,48
 100401e:	ff6fd0ef          	jal	ra,1001814 <NVIC_Configuration>
 1004022:	4791                	li	a5,4
 1004024:	00f49c63          	bne	s1,a5,100403c <SysTick_IrqInit+0x42>
 1004028:	4501                	li	a0,0
 100402a:	2821                	jal	1004042 <System_LdoCoreVsel>
 100402c:	375d                	jal	1003fd2 <SysTick_TimerGet1usTicks>
 100402e:	6bc42783          	lw	a5,1724(s0)
 1004032:	02f50533          	mul	a0,a0,a5
 1004036:	3f85                	jal	1003fa6 <SysTick_Config>
 1004038:	2650806f          	j	100ca9c <__riscv_restore_0>
 100403c:	8526                	mv	a0,s1
 100403e:	28b1                	jal	100409a <System_ChangeDPLL>
 1004040:	bfe5                	j	1004038 <SysTick_IrqInit+0x3e>

01004042 <System_LdoCoreVsel>:
System_LdoCoreVsel():
 1004042:	237082ef          	jal	t0,100ca78 <__riscv_save_0>
 1004046:	10008737          	lui	a4,0x10008
 100404a:	3a174603          	lbu	a2,929(a4) # 100083a1 <_sidata+0xeff87c9>
 100404e:	3a274783          	lbu	a5,930(a4)
 1004052:	3a374683          	lbu	a3,931(a4)
 1004056:	3a474703          	lbu	a4,932(a4)
 100405a:	07a2                	slli	a5,a5,0x8
 100405c:	06c2                	slli	a3,a3,0x10
 100405e:	8fd5                	or	a5,a5,a3
 1004060:	8fd1                	or	a5,a5,a2
 1004062:	0762                	slli	a4,a4,0x18
 1004064:	8fd9                	or	a5,a5,a4
 1004066:	f9000737          	lui	a4,0xf9000
 100406a:	891d                	andi	a0,a0,7
 100406c:	177d                	addi	a4,a4,-1
 100406e:	0562                	slli	a0,a0,0x18
 1004070:	8f7d                	and	a4,a4,a5
 1004072:	8f49                	or	a4,a4,a0
 1004074:	0087d513          	srli	a0,a5,0x8
 1004078:	0ff57513          	andi	a0,a0,255
 100407c:	0ff7f693          	andi	a3,a5,255
 1004080:	0522                	slli	a0,a0,0x8
 1004082:	9536                	add	a0,a0,a3
 1004084:	00ff06b7          	lui	a3,0xff0
 1004088:	8ff5                	and	a5,a5,a3
 100408a:	8361                	srli	a4,a4,0x18
 100408c:	953e                	add	a0,a0,a5
 100408e:	0762                	slli	a4,a4,0x18
 1004090:	953a                	add	a0,a0,a4
 1004092:	955fd0ef          	jal	ra,10019e6 <CoreReg_LpmWrite2LdoControl>
 1004096:	2070806f          	j	100ca9c <__riscv_restore_0>

0100409a <System_ChangeDPLL>:
System_ChangeDPLL():
 100409a:	1df082ef          	jal	t0,100ca78 <__riscv_save_0>
 100409e:	100084b7          	lui	s1,0x10008
 10040a2:	0434c403          	lbu	s0,67(s1) # 10008043 <_sidata+0xeff846b>
 10040a6:	0506                	slli	a0,a0,0x1
 10040a8:	0f947413          	andi	s0,s0,249
 10040ac:	8c49                	or	s0,s0,a0
 10040ae:	4511                	li	a0,4
 10040b0:	3f49                	jal	1004042 <System_LdoCoreVsel>
 10040b2:	0ff47413          	andi	s0,s0,255
 10040b6:	048481a3          	sb	s0,67(s1)
 10040ba:	4795                	li	a5,5
 10040bc:	04f48123          	sb	a5,66(s1)
 10040c0:	3f09                	jal	1003fd2 <SysTick_TimerGet1usTicks>
 10040c2:	100107b7          	lui	a5,0x10010
 10040c6:	6bc7a783          	lw	a5,1724(a5) # 100106bc <g_systick_unitUs>
 10040ca:	02f50533          	mul	a0,a0,a5
 10040ce:	3de1                	jal	1003fa6 <SysTick_Config>
 10040d0:	4509                	li	a0,2
 10040d2:	a67fd0ef          	jal	ra,1001b38 <wait_lpodelay>
 10040d6:	1c70806f          	j	100ca9c <__riscv_restore_0>

010040da <System_ChangeXtal24M>:
System_ChangeXtal24M():
 10040da:	19f082ef          	jal	t0,100ca78 <__riscv_save_0>
 10040de:	4711                	li	a4,4
 10040e0:	100087b7          	lui	a5,0x10008
 10040e4:	04e78123          	sb	a4,66(a5) # 10008042 <_sidata+0xeff846a>
 10040e8:	35ed                	jal	1003fd2 <SysTick_TimerGet1usTicks>
 10040ea:	100107b7          	lui	a5,0x10010
 10040ee:	6bc7a783          	lw	a5,1724(a5) # 100106bc <g_systick_unitUs>
 10040f2:	02f50533          	mul	a0,a0,a5
 10040f6:	3d45                	jal	1003fa6 <SysTick_Config>
 10040f8:	4509                	li	a0,2
 10040fa:	a3ffd0ef          	jal	ra,1001b38 <wait_lpodelay>
 10040fe:	4501                	li	a0,0
 1004100:	3789                	jal	1004042 <System_LdoCoreVsel>
 1004102:	19b0806f          	j	100ca9c <__riscv_restore_0>

01004106 <System_WorkClockGet>:
System_WorkClockGet():
 1004106:	100087b7          	lui	a5,0x10008
 100410a:	0427c703          	lbu	a4,66(a5) # 10008042 <_sidata+0xeff846a>
 100410e:	0437c783          	lbu	a5,67(a5)
 1004112:	8b0d                	andi	a4,a4,3
 1004114:	0ff7f793          	andi	a5,a5,255
 1004118:	02070263          	beqz	a4,100413c <System_WorkClockGet+0x36>
 100411c:	4685                	li	a3,1
 100411e:	4501                	li	a0,0
 1004120:	04d71163          	bne	a4,a3,1004162 <System_WorkClockGet+0x5c>
 1004124:	8785                	srai	a5,a5,0x1
 1004126:	8b8d                	andi	a5,a5,3
 1004128:	00078f63          	beqz	a5,1004146 <System_WorkClockGet+0x40>
 100412c:	02e78263          	beq	a5,a4,1004150 <System_WorkClockGet+0x4a>
 1004130:	4709                	li	a4,2
 1004132:	02e78463          	beq	a5,a4,100415a <System_WorkClockGet+0x54>
 1004136:	0b71b537          	lui	a0,0xb71b
 100413a:	8082                	ret
 100413c:	016e3537          	lui	a0,0x16e3
 1004140:	60050513          	addi	a0,a0,1536 # 16e3600 <_sidata+0x6d3a28>
 1004144:	8082                	ret
 1004146:	02dc7537          	lui	a0,0x2dc7
 100414a:	c0050513          	addi	a0,a0,-1024 # 2dc6c00 <_sidata+0x1db7028>
 100414e:	8082                	ret
 1004150:	091ea537          	lui	a0,0x91ea
 1004154:	84050513          	addi	a0,a0,-1984 # 91e9840 <_sidata+0x81d9c68>
 1004158:	8082                	ret
 100415a:	05b8e537          	lui	a0,0x5b8e
 100415e:	80050513          	addi	a0,a0,-2048 # 5b8d800 <_sidata+0x4b7dc28>
 1004162:	8082                	ret

01004164 <SysTick_DelayMs>:
SysTick_DelayMs():
 1004164:	115082ef          	jal	t0,100ca78 <__riscv_save_0>
 1004168:	3e800793          	li	a5,1000
 100416c:	02f50533          	mul	a0,a0,a5
 1004170:	2019                	jal	1004176 <SysTick_DelayUs>
 1004172:	12b0806f          	j	100ca9c <__riscv_restore_0>

01004176 <SysTick_DelayUs>:
SysTick_DelayUs():
 1004176:	103082ef          	jal	t0,100ca78 <__riscv_save_0>
 100417a:	842a                	mv	s0,a0
 100417c:	3d99                	jal	1003fd2 <SysTick_TimerGet1usTicks>
 100417e:	02850433          	mul	s0,a0,s0
 1004182:	3d81                	jal	1003fd2 <SysTick_TimerGet1usTicks>
 1004184:	100107b7          	lui	a5,0x10010
 1004188:	6bc7a783          	lw	a5,1724(a5) # 100106bc <g_systick_unitUs>
 100418c:	1001f637          	lui	a2,0x1001f
 1004190:	02f50533          	mul	a0,a0,a5
 1004194:	1001f7b7          	lui	a5,0x1001f
 1004198:	47d4                	lw	a3,12(a5)
 100419a:	4781                	li	a5,0
 100419c:	157d                	addi	a0,a0,-1
 100419e:	4658                	lw	a4,12(a2)
 10041a0:	fee68fe3          	beq	a3,a4,100419e <SysTick_DelayUs+0x28>
 10041a4:	97b6                	add	a5,a5,a3
 10041a6:	00d77863          	bgeu	a4,a3,10041b6 <SysTick_DelayUs+0x40>
 10041aa:	8f99                	sub	a5,a5,a4
 10041ac:	86ba                	mv	a3,a4
 10041ae:	fe87e8e3          	bltu	a5,s0,100419e <SysTick_DelayUs+0x28>
 10041b2:	0eb0806f          	j	100ca9c <__riscv_restore_0>
 10041b6:	97aa                	add	a5,a5,a0
 10041b8:	bfcd                	j	10041aa <SysTick_DelayUs+0x34>

010041ba <RV_TM_IRQHandler>:
RV_TM_IRQHandler():
 10041ba:	100107b7          	lui	a5,0x10010
 10041be:	6b87a783          	lw	a5,1720(a5) # 100106b8 <g_systickIrqCallback>
 10041c2:	00078763          	beqz	a5,10041d0 <RV_TM_IRQHandler+0x16>
 10041c6:	0b3082ef          	jal	t0,100ca78 <__riscv_save_0>
 10041ca:	9782                	jalr	a5
 10041cc:	0d10806f          	j	100ca9c <__riscv_restore_0>
 10041d0:	8082                	ret

010041d2 <TIM_Init>:
TIM_Init():
 10041d2:	0a7082ef          	jal	t0,100ca78 <__riscv_save_0>
 10041d6:	4118                	lw	a4,0(a0)
 10041d8:	479d                	li	a5,7
 10041da:	842a                	mv	s0,a0
 10041dc:	00e7fd63          	bgeu	a5,a4,10041f6 <TIM_Init+0x24>
 10041e0:	0100d637          	lui	a2,0x100d
 10041e4:	0100d537          	lui	a0,0x100d
 10041e8:	21460613          	addi	a2,a2,532 # 100d214 <__FUNCTION__.3483>
 10041ec:	45d1                	li	a1,20
 10041ee:	1ec50513          	addi	a0,a0,492 # 100d1ec <CSWTCH.10+0x4>
 10041f2:	e70fd0ef          	jal	ra,1001862 <_assert_handler>
 10041f6:	4018                	lw	a4,0(s0)
 10041f8:	4410                	lw	a2,8(s0)
 10041fa:	4795                	li	a5,5
 10041fc:	0e000693          	li	a3,224
 1004200:	02e78733          	mul	a4,a5,a4
 1004204:	08d61163          	bne	a2,a3,1004286 <TIM_Init+0xb4>
 1004208:	6621                	lui	a2,0x8
 100420a:	0cd60513          	addi	a0,a2,205 # 80cd <__EN_MIE-0xff7fb1>
 100420e:	00444803          	lbu	a6,4(s0)
 1004212:	100006b7          	lui	a3,0x10000
 1004216:	972a                	add	a4,a4,a0
 1004218:	8f55                	or	a4,a4,a3
 100421a:	00644583          	lbu	a1,6(s0)
 100421e:	01070023          	sb	a6,0(a4) # f9000000 <_stack+0xe8fe2800>
 1004222:	4018                	lw	a4,0(s0)
 1004224:	0d160613          	addi	a2,a2,209
 1004228:	0e05e593          	ori	a1,a1,224
 100422c:	02e78733          	mul	a4,a5,a4
 1004230:	972a                	add	a4,a4,a0
 1004232:	00445503          	lhu	a0,4(s0)
 1004236:	8f55                	or	a4,a4,a3
 1004238:	0705                	addi	a4,a4,1
 100423a:	8f55                	or	a4,a4,a3
 100423c:	8121                	srli	a0,a0,0x8
 100423e:	00a70023          	sb	a0,0(a4)
 1004242:	4018                	lw	a4,0(s0)
 1004244:	02e787b3          	mul	a5,a5,a4
 1004248:	97b2                	add	a5,a5,a2
 100424a:	8fd5                	or	a5,a5,a3
 100424c:	00b78023          	sb	a1,0(a5)
 1004250:	401c                	lw	a5,0(s0)
 1004252:	0017f713          	andi	a4,a5,1
 1004256:	02070663          	beqz	a4,1004282 <TIM_Init+0xb0>
 100425a:	17fd                	addi	a5,a5,-1
 100425c:	4715                	li	a4,5
 100425e:	0ff7f793          	andi	a5,a5,255
 1004262:	02e787b3          	mul	a5,a5,a4
 1004266:	6721                	lui	a4,0x8
 1004268:	0d170713          	addi	a4,a4,209 # 80d1 <__EN_MIE-0xff7fad>
 100426c:	00644683          	lbu	a3,6(s0)
 1004270:	97ba                	add	a5,a5,a4
 1004272:	10000737          	lui	a4,0x10000
 1004276:	8fd9                	or	a5,a5,a4
 1004278:	0007c703          	lbu	a4,0(a5)
 100427c:	8f55                	or	a4,a4,a3
 100427e:	00e78023          	sb	a4,0(a5)
 1004282:	01b0806f          	j	100ca9c <__riscv_restore_0>
 1004286:	66a1                	lui	a3,0x8
 1004288:	0d168513          	addi	a0,a3,209 # 80d1 <__EN_MIE-0xff7fad>
 100428c:	100005b7          	lui	a1,0x10000
 1004290:	972a                	add	a4,a4,a0
 1004292:	8f4d                	or	a4,a4,a1
 1004294:	00074603          	lbu	a2,0(a4) # 10000000 <_sidata+0xeff0428>
 1004298:	0cd68893          	addi	a7,a3,205
 100429c:	07f67613          	andi	a2,a2,127
 10042a0:	00c70023          	sb	a2,0(a4)
 10042a4:	01844603          	lbu	a2,24(s0)
 10042a8:	00644703          	lbu	a4,6(s0)
 10042ac:	00042803          	lw	a6,0(s0)
 10042b0:	8f51                	or	a4,a4,a2
 10042b2:	03078833          	mul	a6,a5,a6
 10042b6:	4410                	lw	a2,8(s0)
 10042b8:	8f51                	or	a4,a4,a2
 10042ba:	4810                	lw	a2,16(s0)
 10042bc:	8f51                	or	a4,a4,a2
 10042be:	4850                	lw	a2,20(s0)
 10042c0:	9846                	add	a6,a6,a7
 10042c2:	00b86833          	or	a6,a6,a1
 10042c6:	8f51                	or	a4,a4,a2
 10042c8:	00e44603          	lbu	a2,14(s0)
 10042cc:	0ff77713          	andi	a4,a4,255
 10042d0:	00c80023          	sb	a2,0(a6)
 10042d4:	4010                	lw	a2,0(s0)
 10042d6:	00e45803          	lhu	a6,14(s0)
 10042da:	02c78633          	mul	a2,a5,a2
 10042de:	00885813          	srli	a6,a6,0x8
 10042e2:	9646                	add	a2,a2,a7
 10042e4:	8e4d                	or	a2,a2,a1
 10042e6:	0605                	addi	a2,a2,1
 10042e8:	8e4d                	or	a2,a2,a1
 10042ea:	01060023          	sb	a6,0(a2)
 10042ee:	4010                	lw	a2,0(s0)
 10042f0:	0cf68813          	addi	a6,a3,207
 10042f4:	00c44683          	lbu	a3,12(s0)
 10042f8:	02c78633          	mul	a2,a5,a2
 10042fc:	9642                	add	a2,a2,a6
 10042fe:	8e4d                	or	a2,a2,a1
 1004300:	00d60023          	sb	a3,0(a2)
 1004304:	4014                	lw	a3,0(s0)
 1004306:	00c45603          	lhu	a2,12(s0)
 100430a:	02d786b3          	mul	a3,a5,a3
 100430e:	8221                	srli	a2,a2,0x8
 1004310:	96c2                	add	a3,a3,a6
 1004312:	8ecd                	or	a3,a3,a1
 1004314:	0685                	addi	a3,a3,1
 1004316:	8ecd                	or	a3,a3,a1
 1004318:	00c68023          	sb	a2,0(a3)
 100431c:	4014                	lw	a3,0(s0)
 100431e:	02d787b3          	mul	a5,a5,a3
 1004322:	97aa                	add	a5,a5,a0
 1004324:	8fcd                	or	a5,a5,a1
 1004326:	00e78023          	sb	a4,0(a5)
 100432a:	b71d                	j	1004250 <TIM_Init+0x7e>

0100432c <TIM_Cmd>:
TIM_Cmd():
 100432c:	74c082ef          	jal	t0,100ca78 <__riscv_save_0>
 1004330:	479d                	li	a5,7
 1004332:	84aa                	mv	s1,a0
 1004334:	842e                	mv	s0,a1
 1004336:	00a7fe63          	bgeu	a5,a0,1004352 <TIM_Cmd+0x26>
 100433a:	0100d637          	lui	a2,0x100d
 100433e:	0100d537          	lui	a0,0x100d
 1004342:	22060613          	addi	a2,a2,544 # 100d220 <__FUNCTION__.3490>
 1004346:	03a00593          	li	a1,58
 100434a:	1ec50513          	addi	a0,a0,492 # 100d1ec <CSWTCH.10+0x4>
 100434e:	d14fd0ef          	jal	ra,1001862 <_assert_handler>
 1004352:	100087b7          	lui	a5,0x10008
 1004356:	1187c703          	lbu	a4,280(a5) # 10008118 <_sidata+0xeff8540>
 100435a:	4585                	li	a1,1
 100435c:	009595b3          	sll	a1,a1,s1
 1004360:	fff5c593          	not	a1,a1
 1004364:	00941433          	sll	s0,s0,s1
 1004368:	8df9                	and	a1,a1,a4
 100436a:	8dc1                	or	a1,a1,s0
 100436c:	0ff5f593          	andi	a1,a1,255
 1004370:	10b78c23          	sb	a1,280(a5)
 1004374:	7280806f          	j	100ca9c <__riscv_restore_0>

01004378 <Lpm_SleepWork>:
Lpm_SleepWork():
 1004378:	100047b7          	lui	a5,0x10004
 100437c:	470d                	li	a4,3
 100437e:	48e78aa3          	sb	a4,1173(a5) # 10004495 <_sidata+0xeff48bd>
 1004382:	100046b7          	lui	a3,0x10004
 1004386:	4956c783          	lbu	a5,1173(a3) # 10004495 <_sidata+0xeff48bd>
 100438a:	fef70ee3          	beq	a4,a5,1004386 <Lpm_SleepWork+0xe>
 100438e:	8082                	ret

01004390 <Lpm_GetWakeFlag>:
Lpm_GetWakeFlag():
 1004390:	100047b7          	lui	a5,0x10004
 1004394:	4d27c503          	lbu	a0,1234(a5) # 100044d2 <_sidata+0xeff48fa>
 1004398:	8082                	ret

0100439a <Lpm_CheckLpmFlag>:
Lpm_CheckLpmFlag():
 100439a:	10004737          	lui	a4,0x10004
 100439e:	4d374683          	lbu	a3,1235(a4) # 100044d3 <_sidata+0xeff48fb>
 10043a2:	4d474783          	lbu	a5,1236(a4)
 10043a6:	4501                	li	a0,0
 10043a8:	07a2                	slli	a5,a5,0x8
 10043aa:	8fd5                	or	a5,a5,a3
 10043ac:	00079863          	bnez	a5,10043bc <Lpm_CheckLpmFlag+0x22>
 10043b0:	1a974503          	lbu	a0,425(a4)
 10043b4:	0ff57513          	andi	a0,a0,255
 10043b8:	00a03533          	snez	a0,a0
 10043bc:	8082                	ret

010043be <Lpm_PollingWork>:
Lpm_PollingWork():
 10043be:	6ba082ef          	jal	t0,100ca78 <__riscv_save_0>
 10043c2:	100047b7          	lui	a5,0x10004
 10043c6:	4957c783          	lbu	a5,1173(a5) # 10004495 <_sidata+0xeff48bd>
 10043ca:	4705                	li	a4,1
 10043cc:	0ff7f793          	andi	a5,a5,255
 10043d0:	06e78563          	beq	a5,a4,100443a <Lpm_PollingWork+0x7c>
 10043d4:	00078763          	beqz	a5,10043e2 <Lpm_PollingWork+0x24>
 10043d8:	4709                	li	a4,2
 10043da:	00e78863          	beq	a5,a4,10043ea <Lpm_PollingWork+0x2c>
 10043de:	6be0806f          	j	100ca9c <__riscv_restore_0>
 10043e2:	04000513          	li	a0,64
 10043e6:	20bd                	jal	1004454 <Lpm_unLockLpm>
 10043e8:	bfdd                	j	10043de <Lpm_PollingWork+0x20>
 10043ea:	30047073          	csrci	mstatus,8
 10043ee:	10011437          	lui	s0,0x10011
 10043f2:	cec45783          	lhu	a5,-788(s0) # 10010cec <gOsEnterCriticalCnt>
 10043f6:	0785                	addi	a5,a5,1
 10043f8:	cef41623          	sh	a5,-788(s0)
 10043fc:	e4ffd0ef          	jal	ra,100224a <IPC_IsTxBuffEmpty>
 1004400:	02050863          	beqz	a0,1004430 <Lpm_PollingWork+0x72>
 1004404:	3f59                	jal	100439a <Lpm_CheckLpmFlag>
 1004406:	02050563          	beqz	a0,1004430 <Lpm_PollingWork+0x72>
 100440a:	6d6020ef          	jal	ra,1006ae0 <app_sleep_check>
 100440e:	02050163          	beqz	a0,1004430 <Lpm_PollingWork+0x72>
 1004412:	602020ef          	jal	ra,1006a14 <prepare_before_sleep>
 1004416:	378d                	jal	1004378 <Lpm_SleepWork>
 1004418:	cec45783          	lhu	a5,-788(s0)
 100441c:	17fd                	addi	a5,a5,-1
 100441e:	07c2                	slli	a5,a5,0x10
 1004420:	83c1                	srli	a5,a5,0x10
 1004422:	cef41623          	sh	a5,-788(s0)
 1004426:	fa079ce3          	bnez	a5,10043de <Lpm_PollingWork+0x20>
 100442a:	30046073          	csrsi	mstatus,8
 100442e:	bf45                	j	10043de <Lpm_PollingWork+0x20>
 1004430:	100047b7          	lui	a5,0x10004
 1004434:	48078aa3          	sb	zero,1173(a5) # 10004495 <_sidata+0xeff48bd>
 1004438:	b7c5                	j	1004418 <Lpm_PollingWork+0x5a>
 100443a:	30047073          	csrci	mstatus,8
 100443e:	10011737          	lui	a4,0x10011
 1004442:	cec75783          	lhu	a5,-788(a4) # 10010cec <gOsEnterCriticalCnt>
 1004446:	0785                	addi	a5,a5,1
 1004448:	cef71623          	sh	a5,-788(a4)
 100444c:	5c8020ef          	jal	ra,1006a14 <prepare_before_sleep>
 1004450:	3725                	jal	1004378 <Lpm_SleepWork>
 1004452:	b771                	j	10043de <Lpm_PollingWork+0x20>

01004454 <Lpm_unLockLpm>:
Lpm_unLockLpm():
 1004454:	10004737          	lui	a4,0x10004
 1004458:	4d374683          	lbu	a3,1235(a4) # 100044d3 <_sidata+0xeff48fb>
 100445c:	4d474783          	lbu	a5,1236(a4)
 1004460:	fff54513          	not	a0,a0
 1004464:	07a2                	slli	a5,a5,0x8
 1004466:	8fd5                	or	a5,a5,a3
 1004468:	8d7d                	and	a0,a0,a5
 100446a:	0542                	slli	a0,a0,0x10
 100446c:	8541                	srai	a0,a0,0x10
 100446e:	0ff57793          	andi	a5,a0,255
 1004472:	0542                	slli	a0,a0,0x10
 1004474:	8141                	srli	a0,a0,0x10
 1004476:	4cf709a3          	sb	a5,1235(a4)
 100447a:	8121                	srli	a0,a0,0x8
 100447c:	4ca70a23          	sb	a0,1236(a4)
 1004480:	8082                	ret

01004482 <Lpm_LockLpm>:
Lpm_LockLpm():
 1004482:	10004737          	lui	a4,0x10004
 1004486:	4d374683          	lbu	a3,1235(a4) # 100044d3 <_sidata+0xeff48fb>
 100448a:	4d474783          	lbu	a5,1236(a4)
 100448e:	07a2                	slli	a5,a5,0x8
 1004490:	8d5d                	or	a0,a0,a5
 1004492:	8d55                	or	a0,a0,a3
 1004494:	0542                	slli	a0,a0,0x10
 1004496:	8541                	srai	a0,a0,0x10
 1004498:	0ff57793          	andi	a5,a0,255
 100449c:	0542                	slli	a0,a0,0x10
 100449e:	8141                	srli	a0,a0,0x10
 10044a0:	4cf709a3          	sb	a5,1235(a4)
 10044a4:	8121                	srli	a0,a0,0x8
 10044a6:	4ca70a23          	sb	a0,1236(a4)
 10044aa:	8082                	ret

010044ac <Lpm_EnableSet>:
Lpm_EnableSet():
 10044ac:	100047b7          	lui	a5,0x10004
 10044b0:	1aa784a3          	sb	a0,425(a5) # 100041a9 <_sidata+0xeff45d1>
 10044b4:	8082                	ret

010044b6 <PWM_Config>:
PWM_Config():
 10044b6:	5c2082ef          	jal	t0,100ca78 <__riscv_save_0>
 10044ba:	7179                	addi	sp,sp,-48
 10044bc:	842a                	mv	s0,a0
 10044be:	84ae                	mv	s1,a1
 10044c0:	45c1                	li	a1,16
 10044c2:	c632                	sw	a2,12(sp)
 10044c4:	c436                	sw	a3,8(sp)
 10044c6:	881d                	andi	s0,s0,7
 10044c8:	a56ff0ef          	jal	ra,100371e <GPIO_Init>
 10044cc:	4585                	li	a1,1
 10044ce:	8522                	mv	a0,s0
 10044d0:	3db1                	jal	100432c <TIM_Cmd>
 10044d2:	46a2                	lw	a3,8(sp)
 10044d4:	4632                	lw	a2,12(sp)
 10044d6:	02000793          	li	a5,32
 10044da:	ce3e                	sw	a5,28(sp)
 10044dc:	0848                	addi	a0,sp,20
 10044de:	08000793          	li	a5,128
 10044e2:	ca22                	sw	s0,20(sp)
 10044e4:	d23e                	sw	a5,36(sp)
 10044e6:	00d10d23          	sb	a3,26(sp)
 10044ea:	02911123          	sh	s1,34(sp)
 10044ee:	02c11023          	sh	a2,32(sp)
 10044f2:	d402                	sw	zero,40(sp)
 10044f4:	02010623          	sb	zero,44(sp)
 10044f8:	cdbff0ef          	jal	ra,10041d2 <TIM_Init>
 10044fc:	6145                	addi	sp,sp,48
 10044fe:	59e0806f          	j	100ca9c <__riscv_restore_0>

01004502 <PWM_DisConfig>:
PWM_DisConfig():
 1004502:	576082ef          	jal	t0,100ca78 <__riscv_save_0>
 1004506:	4581                	li	a1,0
 1004508:	842a                	mv	s0,a0
 100450a:	a14ff0ef          	jal	ra,100371e <GPIO_Init>
 100450e:	4581                	li	a1,0
 1004510:	00747513          	andi	a0,s0,7
 1004514:	3d21                	jal	100432c <TIM_Cmd>
 1004516:	5860806f          	j	100ca9c <__riscv_restore_0>

0100451a <App_AAPSwichModeRsp>:
App_AAPSwichModeRsp():
 100451a:	55e082ef          	jal	t0,100ca78 <__riscv_save_0>
 100451e:	000407b7          	lui	a5,0x40
 1004522:	1101                	addi	sp,sp,-32
 1004524:	0791                	addi	a5,a5,4
 1004526:	c63e                	sw	a5,12(sp)
 1004528:	47a5                	li	a5,9
 100452a:	00f11823          	sh	a5,16(sp)
 100452e:	00a109a3          	sb	a0,19(sp)
 1004532:	47b5                	li	a5,13
 1004534:	006c                	addi	a1,sp,12
 1004536:	462d                	li	a2,11
 1004538:	4519                	li	a0,6
 100453a:	00f10923          	sb	a5,18(sp)
 100453e:	00011a23          	sh	zero,20(sp)
 1004542:	00010b23          	sb	zero,22(sp)
 1004546:	9b2fe0ef          	jal	ra,10026f8 <IPC_TxCommon>
 100454a:	006c                	addi	a1,sp,12
 100454c:	462d                	li	a2,11
 100454e:	4511                	li	a0,4
 1004550:	2685                	jal	10048b0 <Bt_SndDataToRespin>
 1004552:	6105                	addi	sp,sp,32
 1004554:	5480806f          	j	100ca9c <__riscv_restore_0>

01004558 <App_EvtAAPCallBack>:
App_EvtAAPCallBack():
 1004558:	520082ef          	jal	t0,100ca78 <__riscv_save_0>
 100455c:	10005737          	lui	a4,0x10005
 1004560:	ffb74783          	lbu	a5,-5(a4) # 10004ffb <_sidata+0xeff5423>
 1004564:	0785                	addi	a5,a5,1
 1004566:	0ff7f793          	andi	a5,a5,255
 100456a:	fef70da3          	sb	a5,-5(a4)
 100456e:	00454783          	lbu	a5,4(a0)
 1004572:	02079563          	bnez	a5,100459c <App_EvtAAPCallBack+0x44>
 1004576:	00554783          	lbu	a5,5(a0)
 100457a:	00079f63          	bnez	a5,1004598 <App_EvtAAPCallBack+0x40>
 100457e:	00654703          	lbu	a4,6(a0)
 1004582:	4791                	li	a5,4
 1004584:	00f71a63          	bne	a4,a5,1004598 <App_EvtAAPCallBack+0x40>
 1004588:	2ad5                	jal	100477c <Bt_HciWaitBufferElement>
 100458a:	0100d5b7          	lui	a1,0x100d
 100458e:	4649                	li	a2,18
 1004590:	22858593          	addi	a1,a1,552 # 100d228 <aap_rsp>
 1004594:	4511                	li	a0,4
 1004596:	2e29                	jal	10048b0 <Bt_SndDataToRespin>
 1004598:	5040806f          	j	100ca9c <__riscv_restore_0>
 100459c:	4711                	li	a4,4
 100459e:	fee79de3          	bne	a5,a4,1004598 <App_EvtAAPCallBack+0x40>
 10045a2:	00554703          	lbu	a4,5(a0)
 10045a6:	fe0719e3          	bnez	a4,1004598 <App_EvtAAPCallBack+0x40>
 10045aa:	00654703          	lbu	a4,6(a0)
 10045ae:	fef715e3          	bne	a4,a5,1004598 <App_EvtAAPCallBack+0x40>
 10045b2:	00754783          	lbu	a5,7(a0)
 10045b6:	fe0791e3          	bnez	a5,1004598 <App_EvtAAPCallBack+0x40>
 10045ba:	00854783          	lbu	a5,8(a0)
 10045be:	02100713          	li	a4,33
 10045c2:	04e79263          	bne	a5,a4,1004606 <App_EvtAAPCallBack+0xae>
 10045c6:	2a5d                	jal	100477c <Bt_HciWaitBufferElement>
 10045c8:	0100d5b7          	lui	a1,0x100d
 10045cc:	4631                	li	a2,12
 10045ce:	32458593          	addi	a1,a1,804 # 100d324 <AAP_AcpAnc1>
 10045d2:	4511                	li	a0,4
 10045d4:	2cf1                	jal	10048b0 <Bt_SndDataToRespin>
 10045d6:	225d                	jal	100477c <Bt_HciWaitBufferElement>
 10045d8:	0100d5b7          	lui	a1,0x100d
 10045dc:	4635                	li	a2,13
 10045de:	33058593          	addi	a1,a1,816 # 100d330 <AAP_StartAnc2>
 10045e2:	4511                	li	a0,4
 10045e4:	24f1                	jal	10048b0 <Bt_SndDataToRespin>
 10045e6:	2a59                	jal	100477c <Bt_HciWaitBufferElement>
 10045e8:	0100d5b7          	lui	a1,0x100d
 10045ec:	0bc00613          	li	a2,188
 10045f0:	34058593          	addi	a1,a1,832 # 100d340 <AAP_AncRst3>
 10045f4:	4511                	li	a0,4
 10045f6:	2c6d                	jal	10048b0 <Bt_SndDataToRespin>
 10045f8:	2251                	jal	100477c <Bt_HciWaitBufferElement>
 10045fa:	0100d5b7          	lui	a1,0x100d
 10045fe:	4635                	li	a2,13
 1004600:	3fc58593          	addi	a1,a1,1020 # 100d3fc <AAP_StopAnc4>
 1004604:	bf41                	j	1004594 <App_EvtAAPCallBack+0x3c>
 1004606:	476d                	li	a4,27
 1004608:	04e79363          	bne	a5,a4,100464e <App_EvtAAPCallBack+0xf6>
 100460c:	2a85                	jal	100477c <Bt_HciWaitBufferElement>
 100460e:	0100d5b7          	lui	a1,0x100d
 1004612:	09600613          	li	a2,150
 1004616:	23c58593          	addi	a1,a1,572 # 100d23c <AAP_manufac1>
 100461a:	4511                	li	a0,4
 100461c:	2c51                	jal	10048b0 <Bt_SndDataToRespin>
 100461e:	2ab9                	jal	100477c <Bt_HciWaitBufferElement>
 1004620:	0100d5b7          	lui	a1,0x100d
 1004624:	4621                	li	a2,8
 1004626:	2d458593          	addi	a1,a1,724 # 100d2d4 <AAP_manufac2>
 100462a:	4511                	li	a0,4
 100462c:	2451                	jal	10048b0 <Bt_SndDataToRespin>
 100462e:	22b9                	jal	100477c <Bt_HciWaitBufferElement>
 1004630:	0100d5b7          	lui	a1,0x100d
 1004634:	02f00613          	li	a2,47
 1004638:	2dc58593          	addi	a1,a1,732 # 100d2dc <AAP_manufac3>
 100463c:	4511                	li	a0,4
 100463e:	2c8d                	jal	10048b0 <Bt_SndDataToRespin>
 1004640:	2a35                	jal	100477c <Bt_HciWaitBufferElement>
 1004642:	0100d5b7          	lui	a1,0x100d
 1004646:	4659                	li	a2,22
 1004648:	30c58593          	addi	a1,a1,780 # 100d30c <AAP_manufac4>
 100464c:	b7a1                	j	1004594 <App_EvtAAPCallBack+0x3c>
 100464e:	4725                	li	a4,9
 1004650:	f4e794e3          	bne	a5,a4,1004598 <App_EvtAAPCallBack+0x40>
 1004654:	00954783          	lbu	a5,9(a0)
 1004658:	f40790e3          	bnez	a5,1004598 <App_EvtAAPCallBack+0x40>
 100465c:	00a54703          	lbu	a4,10(a0)
 1004660:	47b5                	li	a5,13
 1004662:	f2f71be3          	bne	a4,a5,1004598 <App_EvtAAPCallBack+0x40>
 1004666:	00b50503          	lb	a0,11(a0)
 100466a:	3d45                	jal	100451a <App_AAPSwichModeRsp>
 100466c:	b735                	j	1004598 <App_EvtAAPCallBack+0x40>

0100466e <Bt_HciFifo_Init>:
Bt_HciFifo_Init():
 100466e:	40a082ef          	jal	t0,100ca78 <__riscv_save_0>
 1004672:	100107b7          	lui	a5,0x10010
 1004676:	6c07a503          	lw	a0,1728(a5) # 100106c0 <gpHciDataFifo>
 100467a:	843e                	mv	s0,a5
 100467c:	00050463          	beqz	a0,1004684 <Bt_HciFifo_Init+0x16>
 1004680:	dfafd0ef          	jal	ra,1001c7a <Memory_Free>
 1004684:	6485                	lui	s1,0x1
 1004686:	df648513          	addi	a0,s1,-522 # df6 <__EN_MIE-0xfff288>
 100468a:	d28fd0ef          	jal	ra,1001bb2 <Memory_Malloc>
 100468e:	df648613          	addi	a2,s1,-522
 1004692:	4581                	li	a1,0
 1004694:	6ca42023          	sw	a0,1728(s0)
 1004698:	52c080ef          	jal	ra,100cbc4 <memset>
 100469c:	10011537          	lui	a0,0x10011
 10046a0:	4661                	li	a2,24
 10046a2:	4581                	li	a1,0
 10046a4:	cf050513          	addi	a0,a0,-784 # 10010cf0 <gHciDataDebug>
 10046a8:	51c080ef          	jal	ra,100cbc4 <memset>
 10046ac:	3f00806f          	j	100ca9c <__riscv_restore_0>

010046b0 <Bt_HciFifoIn>:
Bt_HciFifoIn():
 10046b0:	100107b7          	lui	a5,0x10010
 10046b4:	6c07a703          	lw	a4,1728(a5) # 100106c0 <gpHciDataFifo>
 10046b8:	00374783          	lbu	a5,3(a4)
 10046bc:	00274683          	lbu	a3,2(a4)
 10046c0:	07a2                	slli	a5,a5,0x8
 10046c2:	8fd5                	or	a5,a5,a3
 10046c4:	46b5                	li	a3,13
 10046c6:	02f6e763          	bltu	a3,a5,10046f4 <Bt_HciFifoIn+0x44>
 10046ca:	0785                	addi	a5,a5,1
 10046cc:	07c2                	slli	a5,a5,0x10
 10046ce:	83c1                	srli	a5,a5,0x10
 10046d0:	00f70123          	sb	a5,2(a4)
 10046d4:	83a1                	srli	a5,a5,0x8
 10046d6:	00f701a3          	sb	a5,3(a4)
 10046da:	00174783          	lbu	a5,1(a4)
 10046de:	46b9                	li	a3,14
 10046e0:	0785                	addi	a5,a5,1
 10046e2:	0ff7f793          	andi	a5,a5,255
 10046e6:	00d78563          	beq	a5,a3,10046f0 <Bt_HciFifoIn+0x40>
 10046ea:	00f700a3          	sb	a5,1(a4)
 10046ee:	8082                	ret
 10046f0:	000700a3          	sb	zero,1(a4)
 10046f4:	8082                	ret

010046f6 <Bt_HciFifoOut>:
Bt_HciFifoOut():
 10046f6:	100107b7          	lui	a5,0x10010
 10046fa:	6c07a703          	lw	a4,1728(a5) # 100106c0 <gpHciDataFifo>
 10046fe:	00374783          	lbu	a5,3(a4)
 1004702:	00274683          	lbu	a3,2(a4)
 1004706:	07a2                	slli	a5,a5,0x8
 1004708:	8fd5                	or	a5,a5,a3
 100470a:	02078763          	beqz	a5,1004738 <Bt_HciFifoOut+0x42>
 100470e:	17fd                	addi	a5,a5,-1
 1004710:	07c2                	slli	a5,a5,0x10
 1004712:	83c1                	srli	a5,a5,0x10
 1004714:	00f70123          	sb	a5,2(a4)
 1004718:	83a1                	srli	a5,a5,0x8
 100471a:	00f701a3          	sb	a5,3(a4)
 100471e:	00074783          	lbu	a5,0(a4)
 1004722:	46b9                	li	a3,14
 1004724:	0785                	addi	a5,a5,1
 1004726:	0ff7f793          	andi	a5,a5,255
 100472a:	00d78563          	beq	a5,a3,1004734 <Bt_HciFifoOut+0x3e>
 100472e:	00f70023          	sb	a5,0(a4)
 1004732:	8082                	ret
 1004734:	00070023          	sb	zero,0(a4)
 1004738:	8082                	ret

0100473a <Bt_HciGetUsedBufferNum>:
Bt_HciGetUsedBufferNum():
 100473a:	100107b7          	lui	a5,0x10010
 100473e:	6c07a783          	lw	a5,1728(a5) # 100106c0 <gpHciDataFifo>
 1004742:	0027c503          	lbu	a0,2(a5)
 1004746:	8082                	ret

01004748 <Bt_HciCheckBufferFull>:
Bt_HciCheckBufferFull():
 1004748:	100107b7          	lui	a5,0x10010
 100474c:	6c07a703          	lw	a4,1728(a5) # 100106c0 <gpHciDataFifo>
 1004750:	00374783          	lbu	a5,3(a4)
 1004754:	00274683          	lbu	a3,2(a4)
 1004758:	4735                	li	a4,13
 100475a:	07a2                	slli	a5,a5,0x8
 100475c:	8fd5                	or	a5,a5,a3
 100475e:	00f77d63          	bgeu	a4,a5,1004778 <Bt_HciCheckBufferFull+0x30>
 1004762:	316082ef          	jal	t0,100ca78 <__riscv_save_0>
 1004766:	0100d537          	lui	a0,0x100d
 100476a:	40c50513          	addi	a0,a0,1036 # 100d40c <AAP_StopAnc4+0x10>
 100476e:	febfc0ef          	jal	ra,1001758 <print_string_log>
 1004772:	4505                	li	a0,1
 1004774:	3280806f          	j	100ca9c <__riscv_restore_0>
 1004778:	4501                	li	a0,0
 100477a:	8082                	ret

0100477c <Bt_HciWaitBufferElement>:
Bt_HciWaitBufferElement():
 100477c:	2fc082ef          	jal	t0,100ca78 <__riscv_save_0>
 1004780:	37e1                	jal	1004748 <Bt_HciCheckBufferFull>
 1004782:	fe051fe3          	bnez	a0,1004780 <Bt_HciWaitBufferElement+0x4>
 1004786:	3160806f          	j	100ca9c <__riscv_restore_0>

0100478a <Bt_SndToBtData>:
Bt_SndToBtData():
 100478a:	2ee082ef          	jal	t0,100ca78 <__riscv_save_0>
 100478e:	1141                	addi	sp,sp,-16
 1004790:	842a                	mv	s0,a0
 1004792:	30047073          	csrci	mstatus,8
 1004796:	100114b7          	lui	s1,0x10011
 100479a:	cec4d783          	lhu	a5,-788(s1) # 10010cec <gOsEnterCriticalCnt>
 100479e:	00b106a3          	sb	a1,13(sp)
 10047a2:	00a10623          	sb	a0,12(sp)
 10047a6:	0785                	addi	a5,a5,1
 10047a8:	cef49623          	sh	a5,-788(s1)
 10047ac:	0085d793          	srli	a5,a1,0x8
 10047b0:	81c1                	srli	a1,a1,0x10
 10047b2:	00b107a3          	sb	a1,15(sp)
 10047b6:	4611                	li	a2,4
 10047b8:	006c                	addi	a1,sp,12
 10047ba:	451d                	li	a0,7
 10047bc:	00f10723          	sb	a5,14(sp)
 10047c0:	f39fd0ef          	jal	ra,10026f8 <IPC_TxCommon>
 10047c4:	cec4d783          	lhu	a5,-788(s1)
 10047c8:	17fd                	addi	a5,a5,-1
 10047ca:	07c2                	slli	a5,a5,0x10
 10047cc:	83c1                	srli	a5,a5,0x10
 10047ce:	cef49623          	sh	a5,-788(s1)
 10047d2:	00079463          	bnez	a5,10047da <Bt_SndToBtData+0x50>
 10047d6:	30046073          	csrsi	mstatus,8
 10047da:	4795                	li	a5,5
 10047dc:	0287ec63          	bltu	a5,s0,1004814 <Bt_SndToBtData+0x8a>
 10047e0:	0100d7b7          	lui	a5,0x100d
 10047e4:	42478793          	addi	a5,a5,1060 # 100d424 <AAP_StopAnc4+0x28>
 10047e8:	040a                	slli	s0,s0,0x2
 10047ea:	943e                	add	s0,s0,a5
 10047ec:	4018                	lw	a4,0(s0)
 10047ee:	100117b7          	lui	a5,0x10011
 10047f2:	cf078793          	addi	a5,a5,-784 # 10010cf0 <gHciDataDebug>
 10047f6:	8702                	jr	a4
 10047f8:	0037c703          	lbu	a4,3(a5)
 10047fc:	0027c683          	lbu	a3,2(a5)
 1004800:	0722                	slli	a4,a4,0x8
 1004802:	8f55                	or	a4,a4,a3
 1004804:	0705                	addi	a4,a4,1
 1004806:	0742                	slli	a4,a4,0x10
 1004808:	8341                	srli	a4,a4,0x10
 100480a:	00e78123          	sb	a4,2(a5)
 100480e:	8321                	srli	a4,a4,0x8
 1004810:	00e781a3          	sb	a4,3(a5)
 1004814:	0141                	addi	sp,sp,16
 1004816:	2860806f          	j	100ca9c <__riscv_restore_0>
 100481a:	0017c703          	lbu	a4,1(a5)
 100481e:	0007c683          	lbu	a3,0(a5)
 1004822:	0722                	slli	a4,a4,0x8
 1004824:	8f55                	or	a4,a4,a3
 1004826:	0705                	addi	a4,a4,1
 1004828:	0742                	slli	a4,a4,0x10
 100482a:	8341                	srli	a4,a4,0x10
 100482c:	00e78023          	sb	a4,0(a5)
 1004830:	8321                	srli	a4,a4,0x8
 1004832:	00e780a3          	sb	a4,1(a5)
 1004836:	bff9                	j	1004814 <Bt_SndToBtData+0x8a>
 1004838:	0057c703          	lbu	a4,5(a5)
 100483c:	0047c683          	lbu	a3,4(a5)
 1004840:	0722                	slli	a4,a4,0x8
 1004842:	8f55                	or	a4,a4,a3
 1004844:	0705                	addi	a4,a4,1
 1004846:	0742                	slli	a4,a4,0x10
 1004848:	8341                	srli	a4,a4,0x10
 100484a:	00e78223          	sb	a4,4(a5)
 100484e:	8321                	srli	a4,a4,0x8
 1004850:	00e782a3          	sb	a4,5(a5)
 1004854:	b7c1                	j	1004814 <Bt_SndToBtData+0x8a>
 1004856:	0077c703          	lbu	a4,7(a5)
 100485a:	0067c683          	lbu	a3,6(a5)
 100485e:	0722                	slli	a4,a4,0x8
 1004860:	8f55                	or	a4,a4,a3
 1004862:	0705                	addi	a4,a4,1
 1004864:	0742                	slli	a4,a4,0x10
 1004866:	8341                	srli	a4,a4,0x10
 1004868:	00e78323          	sb	a4,6(a5)
 100486c:	8321                	srli	a4,a4,0x8
 100486e:	00e783a3          	sb	a4,7(a5)
 1004872:	b74d                	j	1004814 <Bt_SndToBtData+0x8a>
 1004874:	0097c703          	lbu	a4,9(a5)
 1004878:	0087c683          	lbu	a3,8(a5)
 100487c:	0722                	slli	a4,a4,0x8
 100487e:	8f55                	or	a4,a4,a3
 1004880:	0705                	addi	a4,a4,1
 1004882:	0742                	slli	a4,a4,0x10
 1004884:	8341                	srli	a4,a4,0x10
 1004886:	00e78423          	sb	a4,8(a5)
 100488a:	8321                	srli	a4,a4,0x8
 100488c:	00e784a3          	sb	a4,9(a5)
 1004890:	b751                	j	1004814 <Bt_SndToBtData+0x8a>
 1004892:	00b7c703          	lbu	a4,11(a5)
 1004896:	00a7c683          	lbu	a3,10(a5)
 100489a:	0722                	slli	a4,a4,0x8
 100489c:	8f55                	or	a4,a4,a3
 100489e:	0705                	addi	a4,a4,1
 10048a0:	0742                	slli	a4,a4,0x10
 10048a2:	8341                	srli	a4,a4,0x10
 10048a4:	00e78523          	sb	a4,10(a5)
 10048a8:	8321                	srli	a4,a4,0x8
 10048aa:	00e785a3          	sb	a4,11(a5)
 10048ae:	b79d                	j	1004814 <Bt_SndToBtData+0x8a>

010048b0 <Bt_SndDataToRespin>:
Bt_SndDataToRespin():
 10048b0:	1ae082ef          	jal	t0,100ca5e <__riscv_save_4>
 10048b4:	100107b7          	lui	a5,0x10010
 10048b8:	6c07a783          	lw	a5,1728(a5) # 100106c0 <gpHciDataFifo>
 10048bc:	0ff00713          	li	a4,255
 10048c0:	00865a13          	srli	s4,a2,0x8
 10048c4:	0017c403          	lbu	s0,1(a5)
 10048c8:	89aa                	mv	s3,a0
 10048ca:	8932                	mv	s2,a2
 10048cc:	02e40433          	mul	s0,s0,a4
 10048d0:	008784b3          	add	s1,a5,s0
 10048d4:	0421                	addi	s0,s0,8
 10048d6:	943e                	add	s0,s0,a5
 10048d8:	00c48423          	sb	a2,8(s1)
 10048dc:	014484a3          	sb	s4,9(s1)
 10048e0:	00240513          	addi	a0,s0,2
 10048e4:	226080ef          	jal	ra,100cb0a <memcpy>
 10048e8:	85a2                	mv	a1,s0
 10048ea:	854e                	mv	a0,s3
 10048ec:	01248323          	sb	s2,6(s1)
 10048f0:	014483a3          	sb	s4,7(s1)
 10048f4:	01348223          	sb	s3,4(s1)
 10048f8:	000482a3          	sb	zero,5(s1)
 10048fc:	3579                	jal	100478a <Bt_SndToBtData>
 10048fe:	db3ff0ef          	jal	ra,10046b0 <Bt_HciFifoIn>
 1004902:	1900806f          	j	100ca92 <__riscv_restore_4>

01004906 <Bt_BleSendData>:
Bt_BleSendData():
 1004906:	172082ef          	jal	t0,100ca78 <__riscv_save_0>
 100490a:	1141                	addi	sp,sp,-16
 100490c:	842a                	mv	s0,a0
 100490e:	c62e                	sw	a1,12(sp)
 1004910:	3d25                	jal	1004748 <Bt_HciCheckBufferFull>
 1004912:	4632                	lw	a2,12(sp)
 1004914:	00050b63          	beqz	a0,100492a <Bt_BleSendData+0x24>
 1004918:	0100d537          	lui	a0,0x100d
 100491c:	43c50513          	addi	a0,a0,1084 # 100d43c <AAP_StopAnc4+0x40>
 1004920:	e39fc0ef          	jal	ra,1001758 <print_string_log>
 1004924:	0141                	addi	sp,sp,16
 1004926:	1760806f          	j	100ca9c <__riscv_restore_0>
 100492a:	85a2                	mv	a1,s0
 100492c:	4505                	li	a0,1
 100492e:	3749                	jal	10048b0 <Bt_SndDataToRespin>
 1004930:	bfd5                	j	1004924 <Bt_BleSendData+0x1e>

01004932 <Bt_ParseRcvBLEPacket>:
Bt_ParseRcvBLEPacket():
 1004932:	146082ef          	jal	t0,100ca78 <__riscv_save_0>
 1004936:	892e                	mv	s2,a1
 1004938:	100005b7          	lui	a1,0x10000
 100493c:	00b56733          	or	a4,a0,a1
 1004940:	00074683          	lbu	a3,0(a4)
 1004944:	00150713          	addi	a4,a0,1
 1004948:	8f4d                	or	a4,a4,a1
 100494a:	00074403          	lbu	s0,0(a4)
 100494e:	00250713          	addi	a4,a0,2
 1004952:	8f4d                	or	a4,a4,a1
 1004954:	0422                	slli	s0,s0,0x8
 1004956:	8c55                	or	s0,s0,a3
 1004958:	00074683          	lbu	a3,0(a4)
 100495c:	00350713          	addi	a4,a0,3
 1004960:	8f4d                	or	a4,a4,a1
 1004962:	00074483          	lbu	s1,0(a4)
 1004966:	87aa                	mv	a5,a0
 1004968:	04a2                	slli	s1,s1,0x8
 100496a:	8cd5                	or	s1,s1,a3
 100496c:	00040863          	beqz	s0,100497c <Bt_ParseRcvBLEPacket+0x4a>
 1004970:	0791                	addi	a5,a5,4
 1004972:	8532                	mv	a0,a2
 1004974:	8ddd                	or	a1,a1,a5
 1004976:	8622                	mv	a2,s0
 1004978:	ebffc0ef          	jal	ra,1001836 <xmemcpy>
 100497c:	00891023          	sh	s0,0(s2)
 1004980:	00991123          	sh	s1,2(s2)
 1004984:	1180806f          	j	100ca9c <__riscv_restore_0>

01004988 <Bt_ParseBLEL2capPacket>:
Bt_ParseBLEL2capPacket():
 1004988:	4791                	li	a5,4
 100498a:	00f61a63          	bne	a2,a5,100499e <Bt_ParseBLEL2capPacket+0x16>
 100498e:	0ea082ef          	jal	t0,100ca78 <__riscv_save_0>
 1004992:	0ff57513          	andi	a0,a0,255
 1004996:	4fd010ef          	jal	ra,1006692 <ATT_Parse>
 100499a:	1020806f          	j	100ca9c <__riscv_restore_0>
 100499e:	8082                	ret

010049a0 <Bt_ParseRcvSPPPacket>:
Bt_ParseRcvSPPPacket():
 10049a0:	0d8082ef          	jal	t0,100ca78 <__riscv_save_0>
 10049a4:	87aa                	mv	a5,a0
 10049a6:	100006b7          	lui	a3,0x10000
 10049aa:	00578713          	addi	a4,a5,5
 10049ae:	8f55                	or	a4,a4,a3
 10049b0:	00074483          	lbu	s1,0(a4)
 10049b4:	00678713          	addi	a4,a5,6
 10049b8:	8f55                	or	a4,a4,a3
 10049ba:	00074403          	lbu	s0,0(a4)
 10049be:	8532                	mv	a0,a2
 10049c0:	892e                	mv	s2,a1
 10049c2:	0ff47413          	andi	s0,s0,255
 10049c6:	00147613          	andi	a2,s0,1
 10049ca:	0ff4f493          	andi	s1,s1,255
 10049ce:	02060b63          	beqz	a2,1004a04 <Bt_ParseRcvSPPPacket+0x64>
 10049d2:	0442                	slli	s0,s0,0x10
 10049d4:	8041                	srli	s0,s0,0x10
 10049d6:	4701                	li	a4,0
 10049d8:	0ef00693          	li	a3,239
 10049dc:	8005                	srli	s0,s0,0x1
 10049de:	00870593          	addi	a1,a4,8
 10049e2:	00d49463          	bne	s1,a3,10049ea <Bt_ParseRcvSPPPacket+0x4a>
 10049e6:	00770593          	addi	a1,a4,7
 10049ea:	97ae                	add	a5,a5,a1
 10049ec:	100005b7          	lui	a1,0x10000
 10049f0:	8622                	mv	a2,s0
 10049f2:	8ddd                	or	a1,a1,a5
 10049f4:	e43fc0ef          	jal	ra,1001836 <xmemcpy>
 10049f8:	00891023          	sh	s0,0(s2)
 10049fc:	00991123          	sh	s1,2(s2)
 1004a00:	09c0806f          	j	100ca9c <__riscv_restore_0>
 1004a04:	00074603          	lbu	a2,0(a4)
 1004a08:	00778713          	addi	a4,a5,7
 1004a0c:	8f55                	or	a4,a4,a3
 1004a0e:	00074403          	lbu	s0,0(a4)
 1004a12:	4705                	li	a4,1
 1004a14:	0422                	slli	s0,s0,0x8
 1004a16:	8c51                	or	s0,s0,a2
 1004a18:	b7c1                	j	10049d8 <Bt_ParseRcvSPPPacket+0x38>

01004a1a <Bt_DataBufferCallBack>:
Bt_DataBufferCallBack():
 1004a1a:	05e082ef          	jal	t0,100ca78 <__riscv_save_0>
 1004a1e:	0025c483          	lbu	s1,2(a1) # 10000002 <_sidata+0xeff042a>
 1004a22:	0035c783          	lbu	a5,3(a1)
 1004a26:	4715                	li	a4,5
 1004a28:	04a2                	slli	s1,s1,0x8
 1004a2a:	07c2                	slli	a5,a5,0x10
 1004a2c:	8cdd                	or	s1,s1,a5
 1004a2e:	0015c783          	lbu	a5,1(a1)
 1004a32:	d8010113          	addi	sp,sp,-640
 1004a36:	8cdd                	or	s1,s1,a5
 1004a38:	100007b7          	lui	a5,0x10000
 1004a3c:	8cdd                	or	s1,s1,a5
 1004a3e:	0005c783          	lbu	a5,0(a1)
 1004a42:	04f76a63          	bltu	a4,a5,1004a96 <Bt_DataBufferCallBack+0x7c>
 1004a46:	0100d737          	lui	a4,0x100d
 1004a4a:	078a                	slli	a5,a5,0x2
 1004a4c:	45470713          	addi	a4,a4,1108 # 100d454 <AAP_StopAnc4+0x58>
 1004a50:	97ba                	add	a5,a5,a4
 1004a52:	439c                	lw	a5,0(a5)
 1004a54:	10011437          	lui	s0,0x10011
 1004a58:	cf040413          	addi	s0,s0,-784 # 10010cf0 <gHciDataDebug>
 1004a5c:	8782                	jr	a5
 1004a5e:	0070                	addi	a2,sp,12
 1004a60:	858a                	mv	a1,sp
 1004a62:	8526                	mv	a0,s1
 1004a64:	35f9                	jal	1004932 <Bt_ParseRcvBLEPacket>
 1004a66:	85a6                	mv	a1,s1
 1004a68:	4501                	li	a0,0
 1004a6a:	d21ff0ef          	jal	ra,100478a <Bt_SndToBtData>
 1004a6e:	00214603          	lbu	a2,2(sp)
 1004a72:	00015503          	lhu	a0,0(sp)
 1004a76:	006c                	addi	a1,sp,12
 1004a78:	3f01                	jal	1004988 <Bt_ParseBLEL2capPacket>
 1004a7a:	00f44783          	lbu	a5,15(s0)
 1004a7e:	00e44703          	lbu	a4,14(s0)
 1004a82:	07a2                	slli	a5,a5,0x8
 1004a84:	8fd9                	or	a5,a5,a4
 1004a86:	0785                	addi	a5,a5,1
 1004a88:	07c2                	slli	a5,a5,0x10
 1004a8a:	83c1                	srli	a5,a5,0x10
 1004a8c:	00f40723          	sb	a5,14(s0)
 1004a90:	83a1                	srli	a5,a5,0x8
 1004a92:	00f407a3          	sb	a5,15(s0)
 1004a96:	28010113          	addi	sp,sp,640
 1004a9a:	0020806f          	j	100ca9c <__riscv_restore_0>
 1004a9e:	0070                	addi	a2,sp,12
 1004aa0:	858a                	mv	a1,sp
 1004aa2:	8526                	mv	a0,s1
 1004aa4:	3df5                	jal	10049a0 <Bt_ParseRcvSPPPacket>
 1004aa6:	85a6                	mv	a1,s1
 1004aa8:	4501                	li	a0,0
 1004aaa:	ce1ff0ef          	jal	ra,100478a <Bt_SndToBtData>
 1004aae:	00d44783          	lbu	a5,13(s0)
 1004ab2:	00c44703          	lbu	a4,12(s0)
 1004ab6:	07a2                	slli	a5,a5,0x8
 1004ab8:	8fd9                	or	a5,a5,a4
 1004aba:	0785                	addi	a5,a5,1
 1004abc:	07c2                	slli	a5,a5,0x10
 1004abe:	83c1                	srli	a5,a5,0x10
 1004ac0:	00f40623          	sb	a5,12(s0)
 1004ac4:	83a1                	srli	a5,a5,0x8
 1004ac6:	00f406a3          	sb	a5,13(s0)
 1004aca:	b7f1                	j	1004a96 <Bt_DataBufferCallBack+0x7c>
 1004acc:	04600613          	li	a2,70
 1004ad0:	85a6                	mv	a1,s1
 1004ad2:	0068                	addi	a0,sp,12
 1004ad4:	d63fc0ef          	jal	ra,1001836 <xmemcpy>
 1004ad8:	85a6                	mv	a1,s1
 1004ada:	4501                	li	a0,0
 1004adc:	cafff0ef          	jal	ra,100478a <Bt_SndToBtData>
 1004ae0:	01144783          	lbu	a5,17(s0)
 1004ae4:	01044703          	lbu	a4,16(s0)
 1004ae8:	07a2                	slli	a5,a5,0x8
 1004aea:	8fd9                	or	a5,a5,a4
 1004aec:	0785                	addi	a5,a5,1
 1004aee:	07c2                	slli	a5,a5,0x10
 1004af0:	83c1                	srli	a5,a5,0x10
 1004af2:	00f40823          	sb	a5,16(s0)
 1004af6:	83a1                	srli	a5,a5,0x8
 1004af8:	00f408a3          	sb	a5,17(s0)
 1004afc:	bf69                	j	1004a96 <Bt_DataBufferCallBack+0x7c>
 1004afe:	8526                	mv	a0,s1
 1004b00:	a59ff0ef          	jal	ra,1004558 <App_EvtAAPCallBack>
 1004b04:	85a6                	mv	a1,s1
 1004b06:	4501                	li	a0,0
 1004b08:	c83ff0ef          	jal	ra,100478a <Bt_SndToBtData>
 1004b0c:	01344783          	lbu	a5,19(s0)
 1004b10:	01244703          	lbu	a4,18(s0)
 1004b14:	07a2                	slli	a5,a5,0x8
 1004b16:	8fd9                	or	a5,a5,a4
 1004b18:	0785                	addi	a5,a5,1
 1004b1a:	07c2                	slli	a5,a5,0x10
 1004b1c:	83c1                	srli	a5,a5,0x10
 1004b1e:	00f40923          	sb	a5,18(s0)
 1004b22:	83a1                	srli	a5,a5,0x8
 1004b24:	00f409a3          	sb	a5,19(s0)
 1004b28:	b7bd                	j	1004a96 <Bt_DataBufferCallBack+0x7c>
 1004b2a:	85a6                	mv	a1,s1
 1004b2c:	4501                	li	a0,0
 1004b2e:	c5dff0ef          	jal	ra,100478a <Bt_SndToBtData>
 1004b32:	01544783          	lbu	a5,21(s0)
 1004b36:	01444703          	lbu	a4,20(s0)
 1004b3a:	07a2                	slli	a5,a5,0x8
 1004b3c:	8fd9                	or	a5,a5,a4
 1004b3e:	0785                	addi	a5,a5,1
 1004b40:	07c2                	slli	a5,a5,0x10
 1004b42:	83c1                	srli	a5,a5,0x10
 1004b44:	00f40a23          	sb	a5,20(s0)
 1004b48:	83a1                	srli	a5,a5,0x8
 1004b4a:	00f40aa3          	sb	a5,21(s0)
 1004b4e:	b7a1                	j	1004a96 <Bt_DataBufferCallBack+0x7c>
 1004b50:	ba7ff0ef          	jal	ra,10046f6 <Bt_HciFifoOut>
 1004b54:	01744783          	lbu	a5,23(s0)
 1004b58:	01644703          	lbu	a4,22(s0)
 1004b5c:	07a2                	slli	a5,a5,0x8
 1004b5e:	8fd9                	or	a5,a5,a4
 1004b60:	0785                	addi	a5,a5,1
 1004b62:	07c2                	slli	a5,a5,0x10
 1004b64:	83c1                	srli	a5,a5,0x10
 1004b66:	00f40b23          	sb	a5,22(s0)
 1004b6a:	83a1                	srli	a5,a5,0x8
 1004b6c:	00f40ba3          	sb	a5,23(s0)
 1004b70:	b71d                	j	1004a96 <Bt_DataBufferCallBack+0x7c>

01004b72 <SetLockQSPI>:
SetLockQSPI():
 1004b72:	100057b7          	lui	a5,0x10005
 1004b76:	4705                	li	a4,1
 1004b78:	bee785a3          	sb	a4,-1045(a5) # 10004beb <_sidata+0xeff5013>
 1004b7c:	03500713          	li	a4,53
 1004b80:	bee786a3          	sb	a4,-1043(a5)
 1004b84:	03500693          	li	a3,53
 1004b88:	10005737          	lui	a4,0x10005
 1004b8c:	bec74783          	lbu	a5,-1044(a4) # 10004bec <_sidata+0xeff5014>
 1004b90:	0ff7f793          	andi	a5,a5,255
 1004b94:	00078663          	beqz	a5,1004ba0 <SetLockQSPI+0x2e>
 1004b98:	bed74783          	lbu	a5,-1043(a4)
 1004b9c:	fef688e3          	beq	a3,a5,1004b8c <SetLockQSPI+0x1a>
 1004ba0:	8082                	ret

01004ba2 <SetReleaseQSPI>:
SetReleaseQSPI():
 1004ba2:	100057b7          	lui	a5,0x10005
 1004ba6:	be0785a3          	sb	zero,-1045(a5) # 10004beb <_sidata+0xeff5013>
 1004baa:	8082                	ret

01004bac <QSPI_ReadFlashData>:
QSPI_ReadFlashData():
 1004bac:	6cd072ef          	jal	t0,100ca78 <__riscv_save_0>
 1004bb0:	1141                	addi	sp,sp,-16
 1004bb2:	c62a                	sw	a0,12(sp)
 1004bb4:	c42e                	sw	a1,8(sp)
 1004bb6:	c232                	sw	a2,4(sp)
 1004bb8:	30047073          	csrci	mstatus,8
 1004bbc:	10011437          	lui	s0,0x10011
 1004bc0:	cec45783          	lhu	a5,-788(s0) # 10010cec <gOsEnterCriticalCnt>
 1004bc4:	0785                	addi	a5,a5,1
 1004bc6:	cef41623          	sh	a5,-788(s0)
 1004bca:	3765                	jal	1004b72 <SetLockQSPI>
 1004bcc:	45a2                	lw	a1,8(sp)
 1004bce:	4532                	lw	a0,12(sp)
 1004bd0:	4692                	lw	a3,4(sp)
 1004bd2:	862e                	mv	a2,a1
 1004bd4:	85aa                	mv	a1,a0
 1004bd6:	03b00513          	li	a0,59
 1004bda:	b1aff0ef          	jal	ra,1003ef4 <qspi0_flash_read>
 1004bde:	c22a                	sw	a0,4(sp)
 1004be0:	37c9                	jal	1004ba2 <SetReleaseQSPI>
 1004be2:	cec45783          	lhu	a5,-788(s0)
 1004be6:	4512                	lw	a0,4(sp)
 1004be8:	17fd                	addi	a5,a5,-1
 1004bea:	07c2                	slli	a5,a5,0x10
 1004bec:	83c1                	srli	a5,a5,0x10
 1004bee:	cef41623          	sh	a5,-788(s0)
 1004bf2:	00079463          	bnez	a5,1004bfa <QSPI_ReadFlashData+0x4e>
 1004bf6:	30046073          	csrsi	mstatus,8
 1004bfa:	0141                	addi	sp,sp,16
 1004bfc:	6a10706f          	j	100ca9c <__riscv_restore_0>

01004c00 <QSPI_WriteFlashData>:
QSPI_WriteFlashData():
 1004c00:	679072ef          	jal	t0,100ca78 <__riscv_save_0>
 1004c04:	1141                	addi	sp,sp,-16
 1004c06:	84aa                	mv	s1,a0
 1004c08:	892e                	mv	s2,a1
 1004c0a:	c632                	sw	a2,12(sp)
 1004c0c:	30047073          	csrci	mstatus,8
 1004c10:	10011437          	lui	s0,0x10011
 1004c14:	cec45783          	lhu	a5,-788(s0) # 10010cec <gOsEnterCriticalCnt>
 1004c18:	03e00593          	li	a1,62
 1004c1c:	4501                	li	a0,0
 1004c1e:	0785                	addi	a5,a5,1
 1004c20:	cef41623          	sh	a5,-788(s0)
 1004c24:	2a81                	jal	1004d74 <QSPI_FlashWriteLock>
 1004c26:	37b1                	jal	1004b72 <SetLockQSPI>
 1004c28:	4632                	lw	a2,12(sp)
 1004c2a:	85ca                	mv	a1,s2
 1004c2c:	8526                	mv	a0,s1
 1004c2e:	a9aff0ef          	jal	ra,1003ec8 <qspi0_flash_write>
 1004c32:	84aa                	mv	s1,a0
 1004c34:	37bd                	jal	1004ba2 <SetReleaseQSPI>
 1004c36:	03e00593          	li	a1,62
 1004c3a:	4505                	li	a0,1
 1004c3c:	2a25                	jal	1004d74 <QSPI_FlashWriteLock>
 1004c3e:	cec45783          	lhu	a5,-788(s0)
 1004c42:	17fd                	addi	a5,a5,-1
 1004c44:	07c2                	slli	a5,a5,0x10
 1004c46:	83c1                	srli	a5,a5,0x10
 1004c48:	cef41623          	sh	a5,-788(s0)
 1004c4c:	00079463          	bnez	a5,1004c54 <QSPI_WriteFlashData+0x54>
 1004c50:	30046073          	csrsi	mstatus,8
 1004c54:	8526                	mv	a0,s1
 1004c56:	0141                	addi	sp,sp,16
 1004c58:	6450706f          	j	100ca9c <__riscv_restore_0>

01004c5c <QSPI_SectorEraseFlash>:
QSPI_SectorEraseFlash():
 1004c5c:	61d072ef          	jal	t0,100ca78 <__riscv_save_0>
 1004c60:	84aa                	mv	s1,a0
 1004c62:	30047073          	csrci	mstatus,8
 1004c66:	10011437          	lui	s0,0x10011
 1004c6a:	cec45783          	lhu	a5,-788(s0) # 10010cec <gOsEnterCriticalCnt>
 1004c6e:	03e00593          	li	a1,62
 1004c72:	4501                	li	a0,0
 1004c74:	0785                	addi	a5,a5,1
 1004c76:	cef41623          	sh	a5,-788(s0)
 1004c7a:	28ed                	jal	1004d74 <QSPI_FlashWriteLock>
 1004c7c:	3ddd                	jal	1004b72 <SetLockQSPI>
 1004c7e:	8526                	mv	a0,s1
 1004c80:	a24ff0ef          	jal	ra,1003ea4 <qspi0_flash_sectorerase>
 1004c84:	84aa                	mv	s1,a0
 1004c86:	3f31                	jal	1004ba2 <SetReleaseQSPI>
 1004c88:	03e00593          	li	a1,62
 1004c8c:	4505                	li	a0,1
 1004c8e:	20dd                	jal	1004d74 <QSPI_FlashWriteLock>
 1004c90:	cec45783          	lhu	a5,-788(s0)
 1004c94:	17fd                	addi	a5,a5,-1
 1004c96:	07c2                	slli	a5,a5,0x10
 1004c98:	83c1                	srli	a5,a5,0x10
 1004c9a:	cef41623          	sh	a5,-788(s0)
 1004c9e:	00079463          	bnez	a5,1004ca6 <QSPI_SectorEraseFlash+0x4a>
 1004ca2:	30046073          	csrsi	mstatus,8
 1004ca6:	8526                	mv	a0,s1
 1004ca8:	5f50706f          	j	100ca9c <__riscv_restore_0>

01004cac <QSPI_WritePageFlashData>:
QSPI_WritePageFlashData():
 1004cac:	5b3072ef          	jal	t0,100ca5e <__riscv_save_4>
 1004cb0:	84aa                	mv	s1,a0
 1004cb2:	842e                	mv	s0,a1
 1004cb4:	4501                	li	a0,0
 1004cb6:	03e00593          	li	a1,62
 1004cba:	0ff4f993          	andi	s3,s1,255
 1004cbe:	8a32                	mv	s4,a2
 1004cc0:	0ff47a93          	andi	s5,s0,255
 1004cc4:	2845                	jal	1004d74 <QSPI_FlashWriteLock>
 1004cc6:	02099b63          	bnez	s3,1004cfc <QSPI_WritePageFlashData+0x50>
 1004cca:	0ff00793          	li	a5,255
 1004cce:	0087fc63          	bgeu	a5,s0,1004ce6 <QSPI_WritePageFlashData+0x3a>
 1004cd2:	f0047413          	andi	s0,s0,-256
 1004cd6:	013a0633          	add	a2,s4,s3
 1004cda:	01348533          	add	a0,s1,s3
 1004cde:	01341963          	bne	s0,s3,1004cf0 <QSPI_WritePageFlashData+0x44>
 1004ce2:	85d6                	mv	a1,s5
 1004ce4:	a021                	j	1004cec <QSPI_WritePageFlashData+0x40>
 1004ce6:	8652                	mv	a2,s4
 1004ce8:	85a2                	mv	a1,s0
 1004cea:	8526                	mv	a0,s1
 1004cec:	3f11                	jal	1004c00 <QSPI_WriteFlashData>
 1004cee:	a0b5                	j	1004d5a <QSPI_WritePageFlashData+0xae>
 1004cf0:	10000593          	li	a1,256
 1004cf4:	3731                	jal	1004c00 <QSPI_WriteFlashData>
 1004cf6:	10098993          	addi	s3,s3,256
 1004cfa:	bff1                	j	1004cd6 <QSPI_WritePageFlashData+0x2a>
 1004cfc:	10000913          	li	s2,256
 1004d00:	0ff00793          	li	a5,255
 1004d04:	41390933          	sub	s2,s2,s3
 1004d08:	0287e263          	bltu	a5,s0,1004d2c <QSPI_WritePageFlashData+0x80>
 1004d0c:	fd597de3          	bgeu	s2,s5,1004ce6 <QSPI_WritePageFlashData+0x3a>
 1004d10:	8652                	mv	a2,s4
 1004d12:	85ca                	mv	a1,s2
 1004d14:	f00a8413          	addi	s0,s5,-256
 1004d18:	8526                	mv	a0,s1
 1004d1a:	ee7ff0ef          	jal	ra,1004c00 <QSPI_WriteFlashData>
 1004d1e:	944e                	add	s0,s0,s3
 1004d20:	012a0633          	add	a2,s4,s2
 1004d24:	85a2                	mv	a1,s0
 1004d26:	01248533          	add	a0,s1,s2
 1004d2a:	b7c9                	j	1004cec <QSPI_WritePageFlashData+0x40>
 1004d2c:	f0040413          	addi	s0,s0,-256
 1004d30:	944e                	add	s0,s0,s3
 1004d32:	85ca                	mv	a1,s2
 1004d34:	8526                	mv	a0,s1
 1004d36:	8652                	mv	a2,s4
 1004d38:	0ff47a93          	andi	s5,s0,255
 1004d3c:	94ca                	add	s1,s1,s2
 1004d3e:	ec3ff0ef          	jal	ra,1004c00 <QSPI_WriteFlashData>
 1004d42:	9952                	add	s2,s2,s4
 1004d44:	f0047413          	andi	s0,s0,-256
 1004d48:	4981                	li	s3,0
 1004d4a:	01390633          	add	a2,s2,s3
 1004d4e:	01348533          	add	a0,s1,s3
 1004d52:	01341a63          	bne	s0,s3,1004d66 <QSPI_WritePageFlashData+0xba>
 1004d56:	f80a96e3          	bnez	s5,1004ce2 <QSPI_WritePageFlashData+0x36>
 1004d5a:	03e00593          	li	a1,62
 1004d5e:	4505                	li	a0,1
 1004d60:	2811                	jal	1004d74 <QSPI_FlashWriteLock>
 1004d62:	5310706f          	j	100ca92 <__riscv_restore_4>
 1004d66:	10000593          	li	a1,256
 1004d6a:	e97ff0ef          	jal	ra,1004c00 <QSPI_WriteFlashData>
 1004d6e:	10098993          	addi	s3,s3,256
 1004d72:	bfe1                	j	1004d4a <QSPI_WritePageFlashData+0x9e>

01004d74 <QSPI_FlashWriteLock>:
QSPI_FlashWriteLock():
 1004d74:	505072ef          	jal	t0,100ca78 <__riscv_save_0>
 1004d78:	1141                	addi	sp,sp,-16
 1004d7a:	c62a                	sw	a0,12(sp)
 1004d7c:	c42e                	sw	a1,8(sp)
 1004d7e:	30047073          	csrci	mstatus,8
 1004d82:	10011437          	lui	s0,0x10011
 1004d86:	cec45783          	lhu	a5,-788(s0) # 10010cec <gOsEnterCriticalCnt>
 1004d8a:	0785                	addi	a5,a5,1
 1004d8c:	cef41623          	sh	a5,-788(s0)
 1004d90:	de3ff0ef          	jal	ra,1004b72 <SetLockQSPI>
 1004d94:	45a2                	lw	a1,8(sp)
 1004d96:	4532                	lw	a0,12(sp)
 1004d98:	9e8ff0ef          	jal	ra,1003f80 <qspi0_flashwrite_lock>
 1004d9c:	e07ff0ef          	jal	ra,1004ba2 <SetReleaseQSPI>
 1004da0:	cec45783          	lhu	a5,-788(s0)
 1004da4:	17fd                	addi	a5,a5,-1
 1004da6:	07c2                	slli	a5,a5,0x10
 1004da8:	83c1                	srli	a5,a5,0x10
 1004daa:	cef41623          	sh	a5,-788(s0)
 1004dae:	00079463          	bnez	a5,1004db6 <QSPI_FlashWriteLock+0x42>
 1004db2:	30046073          	csrsi	mstatus,8
 1004db6:	0141                	addi	sp,sp,16
 1004db8:	4e50706f          	j	100ca9c <__riscv_restore_0>

01004dbc <bt_check_save_connect_info>:
bt_check_save_connect_info():
 1004dbc:	4bd072ef          	jal	t0,100ca78 <__riscv_save_0>
 1004dc0:	100104b7          	lui	s1,0x10010
 1004dc4:	0404a583          	lw	a1,64(s1) # 10010040 <gpRecinfo>
 1004dc8:	03500713          	li	a4,53
 1004dcc:	0100d437          	lui	s0,0x100d
 1004dd0:	0035c783          	lbu	a5,3(a1)
 1004dd4:	04f71363          	bne	a4,a5,1004e1a <bt_check_save_connect_info+0x5e>
 1004dd8:	10000537          	lui	a0,0x10000
 1004ddc:	4619                	li	a2,6
 1004dde:	0595                	addi	a1,a1,5
 1004de0:	4d750513          	addi	a0,a0,1239 # 100004d7 <_sidata+0xeff08ff>
 1004de4:	a81fc0ef          	jal	ra,1001864 <xramcmp>
 1004de8:	02050963          	beqz	a0,1004e1a <bt_check_save_connect_info+0x5e>
 1004dec:	0404a583          	lw	a1,64(s1)
 1004df0:	10005537          	lui	a0,0x10005
 1004df4:	4641                	li	a2,16
 1004df6:	05c9                	addi	a1,a1,18
 1004df8:	8fc50513          	addi	a0,a0,-1796 # 100048fc <_sidata+0xeff4d24>
 1004dfc:	a69fc0ef          	jal	ra,1001864 <xramcmp>
 1004e00:	00050d63          	beqz	a0,1004e1a <bt_check_save_connect_info+0x5e>
 1004e04:	0100d537          	lui	a0,0x100d
 1004e08:	47450513          	addi	a0,a0,1140 # 100d474 <AAP_StopAnc4+0x78>
 1004e0c:	46c40593          	addi	a1,s0,1132 # 100d46c <AAP_StopAnc4+0x70>
 1004e10:	949fc0ef          	jal	ra,1001758 <print_string_log>
 1004e14:	4501                	li	a0,0
 1004e16:	4870706f          	j	100ca9c <__riscv_restore_0>
 1004e1a:	0100d537          	lui	a0,0x100d
 1004e1e:	4a050513          	addi	a0,a0,1184 # 100d4a0 <AAP_StopAnc4+0xa4>
 1004e22:	46c40593          	addi	a1,s0,1132
 1004e26:	933fc0ef          	jal	ra,1001758 <print_string_log>
 1004e2a:	4505                	li	a0,1
 1004e2c:	b7ed                	j	1004e16 <bt_check_save_connect_info+0x5a>

01004e2e <bt_state_init>:
bt_state_init():
 1004e2e:	44b072ef          	jal	t0,100ca78 <__riscv_save_0>
 1004e32:	100107b7          	lui	a5,0x10010
 1004e36:	6c079223          	sh	zero,1732(a5) # 100106c4 <gBLEState>
 1004e3a:	100055b7          	lui	a1,0x10005
 1004e3e:	e1b5c783          	lbu	a5,-485(a1) # 10004e1b <_sidata+0xeff5243>
 1004e42:	0100d537          	lui	a0,0x100d
 1004e46:	4c850513          	addi	a0,a0,1224 # 100d4c8 <AAP_StopAnc4+0xcc>
 1004e4a:	0ff7f793          	andi	a5,a5,255
 1004e4e:	96f58023          	sb	a5,-1696(a1)
 1004e52:	e1c5c783          	lbu	a5,-484(a1)
 1004e56:	0ff7f793          	andi	a5,a5,255
 1004e5a:	96f580a3          	sb	a5,-1695(a1)
 1004e5e:	e1d5c783          	lbu	a5,-483(a1)
 1004e62:	0ff7f793          	andi	a5,a5,255
 1004e66:	96f58123          	sb	a5,-1694(a1)
 1004e6a:	e1e5c783          	lbu	a5,-482(a1)
 1004e6e:	0ff7f793          	andi	a5,a5,255
 1004e72:	96f581a3          	sb	a5,-1693(a1)
 1004e76:	e1f5c783          	lbu	a5,-481(a1)
 1004e7a:	0ff7f793          	andi	a5,a5,255
 1004e7e:	96f58223          	sb	a5,-1692(a1)
 1004e82:	e205c783          	lbu	a5,-480(a1)
 1004e86:	0ff7f793          	andi	a5,a5,255
 1004e8a:	96f582a3          	sb	a5,-1691(a1)
 1004e8e:	e205c603          	lbu	a2,-480(a1)
 1004e92:	e1f5c683          	lbu	a3,-481(a1)
 1004e96:	e1e5c703          	lbu	a4,-482(a1)
 1004e9a:	e1d5c783          	lbu	a5,-483(a1)
 1004e9e:	e1c5c803          	lbu	a6,-484(a1)
 1004ea2:	e1b5c883          	lbu	a7,-485(a1)
 1004ea6:	0100d5b7          	lui	a1,0x100d
 1004eaa:	46c58593          	addi	a1,a1,1132 # 100d46c <AAP_StopAnc4+0x70>
 1004eae:	8abfc0ef          	jal	ra,1001758 <print_string_log>
 1004eb2:	3eb0706f          	j	100ca9c <__riscv_restore_0>

01004eb6 <bt_set_local_dle>:
bt_set_local_dle():
 1004eb6:	100057b7          	lui	a5,0x10005
 1004eba:	0ff57713          	andi	a4,a0,255
 1004ebe:	a2e78d23          	sb	a4,-1478(a5) # 10004a3a <_sidata+0xeff4e62>
 1004ec2:	8121                	srli	a0,a0,0x8
 1004ec4:	a2a78da3          	sb	a0,-1477(a5)
 1004ec8:	0ff5f713          	andi	a4,a1,255
 1004ecc:	a2e78e23          	sb	a4,-1476(a5)
 1004ed0:	81a1                	srli	a1,a1,0x8
 1004ed2:	a2b78ea3          	sb	a1,-1475(a5)
 1004ed6:	0ff67713          	andi	a4,a2,255
 1004eda:	a2e78f23          	sb	a4,-1474(a5)
 1004ede:	8221                	srli	a2,a2,0x8
 1004ee0:	a2c78fa3          	sb	a2,-1473(a5)
 1004ee4:	0ff6f713          	andi	a4,a3,255
 1004ee8:	a4e78023          	sb	a4,-1472(a5)
 1004eec:	82a1                	srli	a3,a3,0x8
 1004eee:	a4d780a3          	sb	a3,-1471(a5)
 1004ef2:	8082                	ret

01004ef4 <bt_set_ce_length_num>:
bt_set_ce_length_num():
 1004ef4:	100057b7          	lui	a5,0x10005
 1004ef8:	eaa786a3          	sb	a0,-339(a5) # 10004ead <_sidata+0xeff52d5>
 1004efc:	8082                	ret

01004efe <bt_set_auth_for_security_req>:
bt_set_auth_for_security_req():
 1004efe:	100057b7          	lui	a5,0x10005
 1004f02:	92a78ca3          	sb	a0,-1735(a5) # 10004939 <_sidata+0xeff4d61>
 1004f06:	8082                	ret

01004f08 <bt_send_security_request>:
bt_send_security_request():
 1004f08:	10005737          	lui	a4,0x10005
 1004f0c:	eae74783          	lbu	a5,-338(a4) # 10004eae <_sidata+0xeff52d6>
 1004f10:	0087e793          	ori	a5,a5,8
 1004f14:	eaf70723          	sb	a5,-338(a4)
 1004f18:	8082                	ret

01004f1a <bt_update_mtu>:
bt_update_mtu():
 1004f1a:	10005737          	lui	a4,0x10005
 1004f1e:	eae74783          	lbu	a5,-338(a4) # 10004eae <_sidata+0xeff52d6>
 1004f22:	0047e793          	ori	a5,a5,4
 1004f26:	eaf70723          	sb	a5,-338(a4)
 1004f2a:	8082                	ret

01004f2c <bt_update_slave_feature>:
bt_update_slave_feature():
 1004f2c:	10005737          	lui	a4,0x10005
 1004f30:	eae74783          	lbu	a5,-338(a4) # 10004eae <_sidata+0xeff52d6>
 1004f34:	0027e793          	ori	a5,a5,2
 1004f38:	eaf70723          	sb	a5,-338(a4)
 1004f3c:	8082                	ret

01004f3e <bt_update_dle>:
bt_update_dle():
 1004f3e:	10005737          	lui	a4,0x10005
 1004f42:	eae74783          	lbu	a5,-338(a4) # 10004eae <_sidata+0xeff52d6>
 1004f46:	0017e793          	ori	a5,a5,1
 1004f4a:	eaf70723          	sb	a5,-338(a4)
 1004f4e:	8082                	ret

01004f50 <bt_renew_scan_rsp>:
bt_renew_scan_rsp():
 1004f50:	47fd                	li	a5,31
 1004f52:	00b7ee63          	bltu	a5,a1,1004f6e <bt_renew_scan_rsp+0x1e>
 1004f56:	6715                	lui	a4,0x5
 1004f58:	4781                	li	a5,0
 1004f5a:	9f670713          	addi	a4,a4,-1546 # 49f6 <__EN_MIE-0xffb688>
 1004f5e:	10000637          	lui	a2,0x10000
 1004f62:	00b79763          	bne	a5,a1,1004f70 <bt_renew_scan_rsp+0x20>
 1004f66:	10005737          	lui	a4,0x10005
 1004f6a:	9ef70aa3          	sb	a5,-1547(a4) # 100049f5 <_sidata+0xeff4e1d>
 1004f6e:	8082                	ret
 1004f70:	00f50833          	add	a6,a0,a5
 1004f74:	00084803          	lbu	a6,0(a6)
 1004f78:	00e786b3          	add	a3,a5,a4
 1004f7c:	8ed1                	or	a3,a3,a2
 1004f7e:	01068023          	sb	a6,0(a3) # 10000000 <_sidata+0xeff0428>
 1004f82:	0785                	addi	a5,a5,1
 1004f84:	bff9                	j	1004f62 <bt_renew_scan_rsp+0x12>

01004f86 <bt_start_le_adv>:
bt_start_le_adv():
 1004f86:	2f3072ef          	jal	t0,100ca78 <__riscv_save_0>
 1004f8a:	100047b7          	lui	a5,0x10004
 1004f8e:	4709                	li	a4,2
 1004f90:	26e78723          	sb	a4,622(a5) # 1000426e <_sidata+0xeff4696>
 1004f94:	260787a3          	sb	zero,623(a5)
 1004f98:	00a54703          	lbu	a4,10(a0)
 1004f9c:	100056b7          	lui	a3,0x10005
 1004fa0:	a0e68b23          	sb	a4,-1514(a3) # 10004a16 <_sidata+0xeff4e3e>
 1004fa4:	00a55703          	lhu	a4,10(a0)
 1004fa8:	8321                	srli	a4,a4,0x8
 1004faa:	a0e68ba3          	sb	a4,-1513(a3)
 1004fae:	00a54703          	lbu	a4,10(a0)
 1004fb2:	26e78623          	sb	a4,620(a5)
 1004fb6:	00a55703          	lhu	a4,10(a0)
 1004fba:	8321                	srli	a4,a4,0x8
 1004fbc:	26e786a3          	sb	a4,621(a5)
 1004fc0:	47fd                	li	a5,31
 1004fc2:	04c7e663          	bltu	a5,a2,100500e <bt_start_le_adv+0x88>
 1004fc6:	6715                	lui	a4,0x5
 1004fc8:	4781                	li	a5,0
 1004fca:	9d670713          	addi	a4,a4,-1578 # 49d6 <__EN_MIE-0xffb6a8>
 1004fce:	10000837          	lui	a6,0x10000
 1004fd2:	04c79a63          	bne	a5,a2,1005026 <bt_start_le_adv+0xa0>
 1004fd6:	10005437          	lui	s0,0x10005
 1004fda:	9cf40aa3          	sb	a5,-1579(s0) # 100049d5 <_sidata+0xeff4dfd>
 1004fde:	4144                	lw	s1,4(a0)
 1004fe0:	4785                	li	a5,1
 1004fe2:	06f48e63          	beq	s1,a5,100505e <bt_start_le_adv+0xd8>
 1004fe6:	04048c63          	beqz	s1,100503e <bt_start_le_adv+0xb8>
 1004fea:	4789                	li	a5,2
 1004fec:	02f49b63          	bne	s1,a5,1005022 <bt_start_le_adv+0x9c>
 1004ff0:	0100d5b7          	lui	a1,0x100d
 1004ff4:	0100d537          	lui	a0,0x100d
 1004ff8:	a0040ca3          	sb	zero,-1511(s0)
 1004ffc:	46c58593          	addi	a1,a1,1132 # 100d46c <AAP_StopAnc4+0x70>
 1005000:	55050513          	addi	a0,a0,1360 # 100d550 <AAP_StopAnc4+0x154>
 1005004:	f54fc0ef          	jal	ra,1001758 <print_string_log>
 1005008:	a0940c23          	sb	s1,-1512(s0)
 100500c:	a0b9                	j	100505a <bt_start_le_adv+0xd4>
 100500e:	0100d5b7          	lui	a1,0x100d
 1005012:	0100d537          	lui	a0,0x100d
 1005016:	46c58593          	addi	a1,a1,1132 # 100d46c <AAP_StopAnc4+0x70>
 100501a:	4e050513          	addi	a0,a0,1248 # 100d4e0 <AAP_StopAnc4+0xe4>
 100501e:	f3afc0ef          	jal	ra,1001758 <print_string_log>
 1005022:	27b0706f          	j	100ca9c <__riscv_restore_0>
 1005026:	00f588b3          	add	a7,a1,a5
 100502a:	0008c883          	lbu	a7,0(a7)
 100502e:	00e786b3          	add	a3,a5,a4
 1005032:	0106e6b3          	or	a3,a3,a6
 1005036:	01168023          	sb	a7,0(a3)
 100503a:	0785                	addi	a5,a5,1
 100503c:	bf59                	j	1004fd2 <bt_start_le_adv+0x4c>
 100503e:	0100d5b7          	lui	a1,0x100d
 1005042:	0100d537          	lui	a0,0x100d
 1005046:	a0040ca3          	sb	zero,-1511(s0)
 100504a:	46c58593          	addi	a1,a1,1132 # 100d46c <AAP_StopAnc4+0x70>
 100504e:	50050513          	addi	a0,a0,1280 # 100d500 <AAP_StopAnc4+0x104>
 1005052:	f06fc0ef          	jal	ra,1001758 <print_string_log>
 1005056:	a0040c23          	sb	zero,-1512(s0)
 100505a:	4535                	li	a0,13
 100505c:	a02d                	j	1005086 <bt_start_le_adv+0x100>
 100505e:	95044783          	lbu	a5,-1712(s0)
 1005062:	0100d5b7          	lui	a1,0x100d
 1005066:	0100d537          	lui	a0,0x100d
 100506a:	0786                	slli	a5,a5,0x1
 100506c:	0ff7f793          	andi	a5,a5,255
 1005070:	52850513          	addi	a0,a0,1320 # 100d528 <AAP_StopAnc4+0x12c>
 1005074:	a0f40ca3          	sb	a5,-1511(s0)
 1005078:	46c58593          	addi	a1,a1,1132 # 100d46c <AAP_StopAnc4+0x70>
 100507c:	edcfc0ef          	jal	ra,1001758 <print_string_log>
 1005080:	453d                	li	a0,15
 1005082:	a0940c23          	sb	s1,-1512(s0)
 1005086:	f08fd0ef          	jal	ra,100278e <IPC_TxControlCmd>
 100508a:	bf61                	j	1005022 <bt_start_le_adv+0x9c>

0100508c <bt_le_conn_updata_param_req>:
bt_le_conn_updata_param_req():
 100508c:	1ed072ef          	jal	t0,100ca78 <__riscv_save_0>
 1005090:	1141                	addi	sp,sp,-16
 1005092:	0ff57713          	andi	a4,a0,255
 1005096:	8121                	srli	a0,a0,0x8
 1005098:	00b11523          	sh	a1,10(sp)
 100509c:	00c11623          	sh	a2,12(sp)
 10050a0:	00d11723          	sh	a3,14(sp)
 10050a4:	00a104a3          	sb	a0,9(sp)
 10050a8:	100057b7          	lui	a5,0x10005
 10050ac:	94e78c23          	sb	a4,-1704(a5) # 10004958 <_sidata+0xeff4d80>
 10050b0:	00914703          	lbu	a4,9(sp)
 10050b4:	4549                	li	a0,18
 10050b6:	94e78ca3          	sb	a4,-1703(a5)
 10050ba:	00a14703          	lbu	a4,10(sp)
 10050be:	94e78d23          	sb	a4,-1702(a5)
 10050c2:	00b14703          	lbu	a4,11(sp)
 10050c6:	94e78da3          	sb	a4,-1701(a5)
 10050ca:	00c14703          	lbu	a4,12(sp)
 10050ce:	94e78e23          	sb	a4,-1700(a5)
 10050d2:	00d14703          	lbu	a4,13(sp)
 10050d6:	94e78ea3          	sb	a4,-1699(a5)
 10050da:	00e14703          	lbu	a4,14(sp)
 10050de:	94e78f23          	sb	a4,-1698(a5)
 10050e2:	00f14703          	lbu	a4,15(sp)
 10050e6:	94e78fa3          	sb	a4,-1697(a5)
 10050ea:	f0efd0ef          	jal	ra,10027f8 <IPC_TxAclCmd>
 10050ee:	0141                	addi	sp,sp,16
 10050f0:	1ad0706f          	j	100ca9c <__riscv_restore_0>

010050f4 <bt_set_le_mtu_size>:
bt_set_le_mtu_size():
 10050f4:	0ff57713          	andi	a4,a0,255
 10050f8:	100057b7          	lui	a5,0x10005
 10050fc:	96e78323          	sb	a4,-1690(a5) # 10004966 <_sidata+0xeff4d8e>
 1005100:	8121                	srli	a0,a0,0x8
 1005102:	96a783a3          	sb	a0,-1689(a5)
 1005106:	8082                	ret

01005108 <bt_disable_le_tx_md>:
bt_disable_le_tx_md():
 1005108:	171072ef          	jal	t0,100ca78 <__riscv_save_0>
 100510c:	0c100513          	li	a0,193
 1005110:	e7efd0ef          	jal	ra,100278e <IPC_TxControlCmd>
 1005114:	1890706f          	j	100ca9c <__riscv_restore_0>

01005118 <bt_enable_le_tx_md>:
bt_enable_le_tx_md():
 1005118:	161072ef          	jal	t0,100ca78 <__riscv_save_0>
 100511c:	0c000513          	li	a0,192
 1005120:	e6efd0ef          	jal	ra,100278e <IPC_TxControlCmd>
 1005124:	1790706f          	j	100ca9c <__riscv_restore_0>

01005128 <bt_get_le_state>:
bt_get_le_state():
 1005128:	100107b7          	lui	a5,0x10010
 100512c:	6c47c503          	lbu	a0,1732(a5) # 100106c4 <gBLEState>
 1005130:	8082                	ret

01005132 <bt_set_le_state>:
bt_set_le_state():
 1005132:	100107b7          	lui	a5,0x10010
 1005136:	6ca78223          	sb	a0,1732(a5) # 100106c4 <gBLEState>
 100513a:	8082                	ret

0100513c <bt_check_le_connected>:
bt_check_le_connected():
 100513c:	100107b7          	lui	a5,0x10010
 1005140:	6c47c503          	lbu	a0,1732(a5) # 100106c4 <gBLEState>
 1005144:	1571                	addi	a0,a0,-4
 1005146:	00153513          	seqz	a0,a0
 100514a:	8082                	ret

0100514c <bt_send_le_disconnect>:
bt_send_le_disconnect():
 100514c:	12d072ef          	jal	t0,100ca78 <__riscv_save_0>
 1005150:	100057b7          	lui	a5,0x10005
 1005154:	e4a781a3          	sb	a0,-445(a5) # 10004e43 <_sidata+0xeff526b>
 1005158:	4545                	li	a0,17
 100515a:	e9efd0ef          	jal	ra,10027f8 <IPC_TxAclCmd>
 100515e:	13f0706f          	j	100ca9c <__riscv_restore_0>

01005162 <bt_enable_le_latecy>:
bt_enable_le_latecy():
 1005162:	117072ef          	jal	t0,100ca78 <__riscv_save_0>
 1005166:	0b100513          	li	a0,177
 100516a:	e24fd0ef          	jal	ra,100278e <IPC_TxControlCmd>
 100516e:	12f0706f          	j	100ca9c <__riscv_restore_0>

01005172 <bt_set_adv_random>:
bt_set_adv_random():
 1005172:	fff50793          	addi	a5,a0,-1
 1005176:	0ff7f793          	andi	a5,a5,255
 100517a:	472d                	li	a4,11
 100517c:	00f77363          	bgeu	a4,a5,1005182 <bt_set_adv_random+0x10>
 1005180:	450d                	li	a0,3
 1005182:	100057b7          	lui	a5,0x10005
 1005186:	e8a78c23          	sb	a0,-360(a5) # 10004e98 <_sidata+0xeff52c0>
 100518a:	8082                	ret

0100518c <bt_set_tx_power>:
bt_set_tx_power():
 100518c:	100047b7          	lui	a5,0x10004
 1005190:	32a787a3          	sb	a0,815(a5) # 1000432f <_sidata+0xeff4757>
 1005194:	8082                	ret

01005196 <bt_set_lpm_overhead_wake_time>:
bt_set_lpm_overhead_wake_time():
 1005196:	100047b7          	lui	a5,0x10004
 100519a:	26a78723          	sb	a0,622(a5) # 1000426e <_sidata+0xeff4696>
 100519e:	260787a3          	sb	zero,623(a5)
 10051a2:	8082                	ret

010051a4 <bt_set_connect_lpm_period>:
bt_set_connect_lpm_period():
 10051a4:	0d5072ef          	jal	t0,100ca78 <__riscv_save_0>
 10051a8:	0ff57713          	andi	a4,a0,255
 10051ac:	100057b7          	lui	a5,0x10005
 10051b0:	8521                	srai	a0,a0,0x8
 10051b2:	e6e78f23          	sb	a4,-386(a5) # 10004e7e <_sidata+0xeff52a6>
 10051b6:	0ff57513          	andi	a0,a0,255
 10051ba:	e6a78fa3          	sb	a0,-385(a5)
 10051be:	fa5ff0ef          	jal	ra,1005162 <bt_enable_le_latecy>
 10051c2:	0db0706f          	j	100ca9c <__riscv_restore_0>

010051c6 <bt_dynamic_switch_power>:
bt_dynamic_switch_power():
 10051c6:	100057b7          	lui	a5,0x10005
 10051ca:	e297c703          	lbu	a4,-471(a5) # 10004e29 <_sidata+0xeff5251>
 10051ce:	0ff77713          	andi	a4,a4,255
 10051d2:	06070663          	beqz	a4,100523e <bt_dynamic_switch_power+0x78>
 10051d6:	0a3072ef          	jal	t0,100ca78 <__riscv_save_0>
 10051da:	e20784a3          	sb	zero,-471(a5)
 10051de:	10010437          	lui	s0,0x10010
 10051e2:	e287c683          	lbu	a3,-472(a5)
 10051e6:	6d044783          	lbu	a5,1744(s0) # 100106d0 <rssi_counter>
 10051ea:	10010537          	lui	a0,0x10010
 10051ee:	6c850713          	addi	a4,a0,1736 # 100106c8 <rssi_buffer>
 10051f2:	00179613          	slli	a2,a5,0x1
 10051f6:	0785                	addi	a5,a5,1
 10051f8:	9732                	add	a4,a4,a2
 10051fa:	0ff7f793          	andi	a5,a5,255
 10051fe:	00d71023          	sh	a3,0(a4)
 1005202:	6cf40823          	sb	a5,1744(s0)
 1005206:	470d                	li	a4,3
 1005208:	02f77463          	bgeu	a4,a5,1005230 <bt_dynamic_switch_power+0x6a>
 100520c:	4591                	li	a1,4
 100520e:	6c850513          	addi	a0,a0,1736
 1005212:	d1bfc0ef          	jal	ra,1001f2c <MedianFilter>
 1005216:	0ff57513          	andi	a0,a0,255
 100521a:	6c040823          	sb	zero,1744(s0)
 100521e:	04f00793          	li	a5,79
 1005222:	00a7f963          	bgeu	a5,a0,1005234 <bt_dynamic_switch_power+0x6e>
 1005226:	100047b7          	lui	a5,0x10004
 100522a:	4715                	li	a4,5
 100522c:	32e787a3          	sb	a4,815(a5) # 1000432f <_sidata+0xeff4757>
 1005230:	06d0706f          	j	100ca9c <__riscv_restore_0>
 1005234:	100047b7          	lui	a5,0x10004
 1005238:	320787a3          	sb	zero,815(a5) # 1000432f <_sidata+0xeff4757>
 100523c:	bfd5                	j	1005230 <bt_dynamic_switch_power+0x6a>
 100523e:	8082                	ret

01005240 <Bt_SaveBleDeviceInfoToFlash>:
Bt_SaveBleDeviceInfoToFlash():
 1005240:	039072ef          	jal	t0,100ca78 <__riscv_save_0>
 1005244:	100107b7          	lui	a5,0x10010
 1005248:	0407a783          	lw	a5,64(a5) # 10010040 <gpRecinfo>
 100524c:	03500713          	li	a4,53
 1005250:	00e781a3          	sb	a4,3(a5)
 1005254:	4711                	li	a4,4
 1005256:	0aa76563          	bltu	a4,a0,1005300 <Bt_SaveBleDeviceInfoToFlash+0xc0>
 100525a:	0100d737          	lui	a4,0x100d
 100525e:	57c70713          	addi	a4,a4,1404 # 100d57c <AAP_StopAnc4+0x180>
 1005262:	050a                	slli	a0,a0,0x2
 1005264:	953a                	add	a0,a0,a4
 1005266:	4118                	lw	a4,0(a0)
 1005268:	8702                	jr	a4
 100526a:	100056b7          	lui	a3,0x10005
 100526e:	9896c703          	lbu	a4,-1655(a3) # 10004989 <_sidata+0xeff4db1>
 1005272:	6615                	lui	a2,0x5
 1005274:	98b60613          	addi	a2,a2,-1653 # 498b <__EN_MIE-0xffb6f3>
 1005278:	0ff77713          	andi	a4,a4,255
 100527c:	02e78923          	sb	a4,50(a5)
 1005280:	98a6c703          	lbu	a4,-1654(a3)
 1005284:	10000837          	lui	a6,0x10000
 1005288:	45a1                	li	a1,8
 100528a:	0ff77713          	andi	a4,a4,255
 100528e:	02e789a3          	sb	a4,51(a5)
 1005292:	4701                	li	a4,0
 1005294:	00c706b3          	add	a3,a4,a2
 1005298:	0106e6b3          	or	a3,a3,a6
 100529c:	0006c683          	lbu	a3,0(a3)
 10052a0:	00e78533          	add	a0,a5,a4
 10052a4:	0705                	addi	a4,a4,1
 10052a6:	0ff6f693          	andi	a3,a3,255
 10052aa:	02d50a23          	sb	a3,52(a0)
 10052ae:	feb713e3          	bne	a4,a1,1005294 <Bt_SaveBleDeviceInfoToFlash+0x54>
 10052b2:	a0b9                	j	1005300 <Bt_SaveBleDeviceInfoToFlash+0xc0>
 10052b4:	10005737          	lui	a4,0x10005
 10052b8:	e4474683          	lbu	a3,-444(a4) # 10004e44 <_sidata+0xeff526c>
 10052bc:	0ff6f693          	andi	a3,a3,255
 10052c0:	00d78623          	sb	a3,12(a5)
 10052c4:	e4574683          	lbu	a3,-443(a4)
 10052c8:	0ff6f693          	andi	a3,a3,255
 10052cc:	00d786a3          	sb	a3,13(a5)
 10052d0:	e4674683          	lbu	a3,-442(a4)
 10052d4:	0ff6f693          	andi	a3,a3,255
 10052d8:	00d78723          	sb	a3,14(a5)
 10052dc:	e4774683          	lbu	a3,-441(a4)
 10052e0:	0ff6f693          	andi	a3,a3,255
 10052e4:	00d787a3          	sb	a3,15(a5)
 10052e8:	e4874683          	lbu	a3,-440(a4)
 10052ec:	0ff6f693          	andi	a3,a3,255
 10052f0:	00d78823          	sb	a3,16(a5)
 10052f4:	e4974703          	lbu	a4,-439(a4)
 10052f8:	0ff77713          	andi	a4,a4,255
 10052fc:	00e788a3          	sb	a4,17(a5)
 1005300:	2279                	jal	100548e <Flash_UpdateFlashRecordInfo>
 1005302:	79a0706f          	j	100ca9c <__riscv_restore_0>
 1005306:	10000737          	lui	a4,0x10000
 100530a:	4d774683          	lbu	a3,1239(a4) # 100004d7 <_sidata+0xeff08ff>
 100530e:	0ff6f693          	andi	a3,a3,255
 1005312:	00d782a3          	sb	a3,5(a5)
 1005316:	4d874683          	lbu	a3,1240(a4)
 100531a:	0ff6f693          	andi	a3,a3,255
 100531e:	00d78323          	sb	a3,6(a5)
 1005322:	4d974683          	lbu	a3,1241(a4)
 1005326:	0ff6f693          	andi	a3,a3,255
 100532a:	00d783a3          	sb	a3,7(a5)
 100532e:	4da74683          	lbu	a3,1242(a4)
 1005332:	0ff6f693          	andi	a3,a3,255
 1005336:	00d78423          	sb	a3,8(a5)
 100533a:	4db74683          	lbu	a3,1243(a4)
 100533e:	0ff6f693          	andi	a3,a3,255
 1005342:	00d784a3          	sb	a3,9(a5)
 1005346:	4dc74703          	lbu	a4,1244(a4)
 100534a:	0ff77713          	andi	a4,a4,255
 100534e:	00e78523          	sb	a4,10(a5)
 1005352:	10005737          	lui	a4,0x10005
 1005356:	95074703          	lbu	a4,-1712(a4) # 10004950 <_sidata+0xeff4d78>
 100535a:	0ff77713          	andi	a4,a4,255
 100535e:	00e78223          	sb	a4,4(a5)
 1005362:	bf79                	j	1005300 <Bt_SaveBleDeviceInfoToFlash+0xc0>
 1005364:	6615                	lui	a2,0x5
 1005366:	4701                	li	a4,0
 1005368:	8fc60613          	addi	a2,a2,-1796 # 48fc <__EN_MIE-0xffb782>
 100536c:	10000837          	lui	a6,0x10000
 1005370:	45c1                	li	a1,16
 1005372:	00c706b3          	add	a3,a4,a2
 1005376:	0106e6b3          	or	a3,a3,a6
 100537a:	0006c683          	lbu	a3,0(a3)
 100537e:	00e78533          	add	a0,a5,a4
 1005382:	0705                	addi	a4,a4,1
 1005384:	0ff6f693          	andi	a3,a3,255
 1005388:	00d50923          	sb	a3,18(a0)
 100538c:	feb713e3          	bne	a4,a1,1005372 <Bt_SaveBleDeviceInfoToFlash+0x132>
 1005390:	bf85                	j	1005300 <Bt_SaveBleDeviceInfoToFlash+0xc0>
 1005392:	6615                	lui	a2,0x5
 1005394:	4701                	li	a4,0
 1005396:	99360613          	addi	a2,a2,-1645 # 4993 <__EN_MIE-0xffb6eb>
 100539a:	10000837          	lui	a6,0x10000
 100539e:	45c1                	li	a1,16
 10053a0:	00c706b3          	add	a3,a4,a2
 10053a4:	0106e6b3          	or	a3,a3,a6
 10053a8:	0006c683          	lbu	a3,0(a3)
 10053ac:	00e78533          	add	a0,a5,a4
 10053b0:	0705                	addi	a4,a4,1
 10053b2:	0ff6f693          	andi	a3,a3,255
 10053b6:	02d50123          	sb	a3,34(a0)
 10053ba:	feb713e3          	bne	a4,a1,10053a0 <Bt_SaveBleDeviceInfoToFlash+0x160>
 10053be:	b789                	j	1005300 <Bt_SaveBleDeviceInfoToFlash+0xc0>

010053c0 <Flash_CheckFlashRecordCRC>:
Flash_CheckFlashRecordCRC():
 10053c0:	100107b7          	lui	a5,0x10010
 10053c4:	0407a683          	lw	a3,64(a5) # 10010040 <gpRecinfo>
 10053c8:	4609                	li	a2,2
 10053ca:	03d00593          	li	a1,61
 10053ce:	0006c783          	lbu	a5,0(a3)
 10053d2:	0016c703          	lbu	a4,1(a3)
 10053d6:	0722                	slli	a4,a4,0x8
 10053d8:	8f5d                	or	a4,a4,a5
 10053da:	4781                	li	a5,0
 10053dc:	00c68533          	add	a0,a3,a2
 10053e0:	00054503          	lbu	a0,0(a0)
 10053e4:	0605                	addi	a2,a2,1
 10053e6:	97aa                	add	a5,a5,a0
 10053e8:	07c2                	slli	a5,a5,0x10
 10053ea:	83c1                	srli	a5,a5,0x10
 10053ec:	feb618e3          	bne	a2,a1,10053dc <Flash_CheckFlashRecordCRC+0x1c>
 10053f0:	4505                	li	a0,1
 10053f2:	00f70e63          	beq	a4,a5,100540e <Flash_CheckFlashRecordCRC+0x4e>
 10053f6:	4781                	li	a5,0
 10053f8:	55fd                	li	a1,-1
 10053fa:	03d00713          	li	a4,61
 10053fe:	00f68633          	add	a2,a3,a5
 1005402:	00b60023          	sb	a1,0(a2)
 1005406:	0785                	addi	a5,a5,1
 1005408:	fee79be3          	bne	a5,a4,10053fe <Flash_CheckFlashRecordCRC+0x3e>
 100540c:	4501                	li	a0,0
 100540e:	8082                	ret

01005410 <Flash_CalFlashRecordCRC>:
Flash_CalFlashRecordCRC():
 1005410:	100107b7          	lui	a5,0x10010
 1005414:	0407a683          	lw	a3,64(a5) # 10010040 <gpRecinfo>
 1005418:	4709                	li	a4,2
 100541a:	4781                	li	a5,0
 100541c:	03d00613          	li	a2,61
 1005420:	00e685b3          	add	a1,a3,a4
 1005424:	0005c583          	lbu	a1,0(a1)
 1005428:	0705                	addi	a4,a4,1
 100542a:	97ae                	add	a5,a5,a1
 100542c:	07c2                	slli	a5,a5,0x10
 100542e:	83c1                	srli	a5,a5,0x10
 1005430:	fec718e3          	bne	a4,a2,1005420 <Flash_CalFlashRecordCRC+0x10>
 1005434:	00f69023          	sh	a5,0(a3)
 1005438:	8082                	ret

0100543a <Flash_LoadFlashRecord>:
Flash_LoadFlashRecord():
 100543a:	63e072ef          	jal	t0,100ca78 <__riscv_save_0>
 100543e:	30047073          	csrci	mstatus,8
 1005442:	10011437          	lui	s0,0x10011
 1005446:	cec45783          	lhu	a5,-788(s0) # 10010cec <gOsEnterCriticalCnt>
 100544a:	0785                	addi	a5,a5,1
 100544c:	cef41623          	sh	a5,-788(s0)
 1005450:	f22ff0ef          	jal	ra,1004b72 <SetLockQSPI>
 1005454:	100107b7          	lui	a5,0x10010
 1005458:	0407a603          	lw	a2,64(a5) # 10010040 <gpRecinfo>
 100545c:	0007d537          	lui	a0,0x7d
 1005460:	03d00593          	li	a1,61
 1005464:	10050513          	addi	a0,a0,256 # 7d100 <__EN_MIE-0xf82f7e>
 1005468:	f44ff0ef          	jal	ra,1004bac <QSPI_ReadFlashData>
 100546c:	f36ff0ef          	jal	ra,1004ba2 <SetReleaseQSPI>
 1005470:	cec45783          	lhu	a5,-788(s0)
 1005474:	17fd                	addi	a5,a5,-1
 1005476:	07c2                	slli	a5,a5,0x10
 1005478:	83c1                	srli	a5,a5,0x10
 100547a:	cef41623          	sh	a5,-788(s0)
 100547e:	00079463          	bnez	a5,1005486 <Flash_LoadFlashRecord+0x4c>
 1005482:	30046073          	csrsi	mstatus,8
 1005486:	f3bff0ef          	jal	ra,10053c0 <Flash_CheckFlashRecordCRC>
 100548a:	6120706f          	j	100ca9c <__riscv_restore_0>

0100548e <Flash_UpdateFlashRecordInfo>:
Flash_UpdateFlashRecordInfo():
 100548e:	5ea072ef          	jal	t0,100ca78 <__riscv_save_0>
 1005492:	f7fff0ef          	jal	ra,1005410 <Flash_CalFlashRecordCRC>
 1005496:	30047073          	csrci	mstatus,8
 100549a:	10011437          	lui	s0,0x10011
 100549e:	cec45783          	lhu	a5,-788(s0) # 10010cec <gOsEnterCriticalCnt>
 10054a2:	0007d4b7          	lui	s1,0x7d
 10054a6:	0785                	addi	a5,a5,1
 10054a8:	cef41623          	sh	a5,-788(s0)
 10054ac:	ec6ff0ef          	jal	ra,1004b72 <SetLockQSPI>
 10054b0:	10048513          	addi	a0,s1,256 # 7d100 <__EN_MIE-0xf82f7e>
 10054b4:	fa8ff0ef          	jal	ra,1004c5c <QSPI_SectorEraseFlash>
 10054b8:	100107b7          	lui	a5,0x10010
 10054bc:	0407a603          	lw	a2,64(a5) # 10010040 <gpRecinfo>
 10054c0:	03d00593          	li	a1,61
 10054c4:	10048513          	addi	a0,s1,256
 10054c8:	f38ff0ef          	jal	ra,1004c00 <QSPI_WriteFlashData>
 10054cc:	ed6ff0ef          	jal	ra,1004ba2 <SetReleaseQSPI>
 10054d0:	cec45783          	lhu	a5,-788(s0)
 10054d4:	17fd                	addi	a5,a5,-1
 10054d6:	07c2                	slli	a5,a5,0x10
 10054d8:	83c1                	srli	a5,a5,0x10
 10054da:	cef41623          	sh	a5,-788(s0)
 10054de:	00079463          	bnez	a5,10054e6 <Flash_UpdateFlashRecordInfo+0x58>
 10054e2:	30046073          	csrsi	mstatus,8
 10054e6:	5b60706f          	j	100ca9c <__riscv_restore_0>

010054ea <Bt_ReadAddrFromFlash>:
Bt_ReadAddrFromFlash():
 10054ea:	58e072ef          	jal	t0,100ca78 <__riscv_save_0>
 10054ee:	2415                	jal	1005712 <Bt_CheckIsPaired>
 10054f0:	0a050663          	beqz	a0,100559c <Bt_ReadAddrFromFlash+0xb2>
 10054f4:	10010537          	lui	a0,0x10010
 10054f8:	6595                	lui	a1,0x5
 10054fa:	4781                	li	a5,0
 10054fc:	8fc58593          	addi	a1,a1,-1796 # 48fc <__EN_MIE-0xffb782>
 1005500:	100008b7          	lui	a7,0x10000
 1005504:	4841                	li	a6,16
 1005506:	872a                	mv	a4,a0
 1005508:	04052603          	lw	a2,64(a0) # 10010040 <gpRecinfo>
 100550c:	00b786b3          	add	a3,a5,a1
 1005510:	0116e6b3          	or	a3,a3,a7
 1005514:	963e                	add	a2,a2,a5
 1005516:	01264603          	lbu	a2,18(a2)
 100551a:	0785                	addi	a5,a5,1
 100551c:	0ff67613          	andi	a2,a2,255
 1005520:	00c68023          	sb	a2,0(a3)
 1005524:	ff0792e3          	bne	a5,a6,1005508 <Bt_ReadAddrFromFlash+0x1e>
 1005528:	4781                	li	a5,0
 100552a:	10000537          	lui	a0,0x10000
 100552e:	4599                	li	a1,6
 1005530:	04072603          	lw	a2,64(a4)
 1005534:	4d778693          	addi	a3,a5,1239
 1005538:	8ec9                	or	a3,a3,a0
 100553a:	963e                	add	a2,a2,a5
 100553c:	00564603          	lbu	a2,5(a2)
 1005540:	0785                	addi	a5,a5,1
 1005542:	0ff67613          	andi	a2,a2,255
 1005546:	00c68023          	sb	a2,0(a3)
 100554a:	feb793e3          	bne	a5,a1,1005530 <Bt_ReadAddrFromFlash+0x46>
 100554e:	6595                	lui	a1,0x5
 1005550:	4781                	li	a5,0
 1005552:	99358593          	addi	a1,a1,-1645 # 4993 <__EN_MIE-0xffb6eb>
 1005556:	10000837          	lui	a6,0x10000
 100555a:	4541                	li	a0,16
 100555c:	04072603          	lw	a2,64(a4)
 1005560:	00b786b3          	add	a3,a5,a1
 1005564:	0106e6b3          	or	a3,a3,a6
 1005568:	963e                	add	a2,a2,a5
 100556a:	02264603          	lbu	a2,34(a2)
 100556e:	0785                	addi	a5,a5,1
 1005570:	0ff67613          	andi	a2,a2,255
 1005574:	00c68023          	sb	a2,0(a3)
 1005578:	fea792e3          	bne	a5,a0,100555c <Bt_ReadAddrFromFlash+0x72>
 100557c:	04072783          	lw	a5,64(a4)
 1005580:	10005737          	lui	a4,0x10005
 1005584:	0047c783          	lbu	a5,4(a5)
 1005588:	0ff7f793          	andi	a5,a5,255
 100558c:	94f70823          	sb	a5,-1712(a4) # 10004950 <_sidata+0xeff4d78>
 1005590:	4785                	li	a5,1
 1005592:	90f70623          	sb	a5,-1780(a4)
 1005596:	2c0d                	jal	10057c8 <Bt_UpdateDeviceNvdataInfo>
 1005598:	5040706f          	j	100ca9c <__riscv_restore_0>
 100559c:	100107b7          	lui	a5,0x10010
 10055a0:	6c078223          	sb	zero,1732(a5) # 100106c4 <gBLEState>
 10055a4:	bfd5                	j	1005598 <Bt_ReadAddrFromFlash+0xae>

010055a6 <Bt_EvtCallBack>:
Bt_EvtCallBack():
 10055a6:	0005c783          	lbu	a5,0(a1)
 10055aa:	0e000713          	li	a4,224
 10055ae:	16f76063          	bltu	a4,a5,100570e <Bt_EvtCallBack+0x168>
 10055b2:	4c6072ef          	jal	t0,100ca78 <__riscv_save_0>
 10055b6:	04400713          	li	a4,68
 10055ba:	0ee78363          	beq	a5,a4,10056a0 <Bt_EvtCallBack+0xfa>
 10055be:	04f76b63          	bltu	a4,a5,1005614 <Bt_EvtCallBack+0x6e>
 10055c2:	02900713          	li	a4,41
 10055c6:	0ee78b63          	beq	a5,a4,10056bc <Bt_EvtCallBack+0x116>
 10055ca:	02f76263          	bltu	a4,a5,10055ee <Bt_EvtCallBack+0x48>
 10055ce:	4751                	li	a4,20
 10055d0:	0ae78c63          	beq	a5,a4,1005688 <Bt_EvtCallBack+0xe2>
 10055d4:	4755                	li	a4,21
 10055d6:	0ae78c63          	beq	a5,a4,100568e <Bt_EvtCallBack+0xe8>
 10055da:	100107b7          	lui	a5,0x10010
 10055de:	6c47c703          	lbu	a4,1732(a5) # 100106c4 <gBLEState>
 10055e2:	100057b7          	lui	a5,0x10005
 10055e6:	e4e785a3          	sb	a4,-437(a5) # 10004e4b <_sidata+0xeff5273>
 10055ea:	4b20706f          	j	100ca9c <__riscv_restore_0>
 10055ee:	04000713          	li	a4,64
 10055f2:	0ae78a63          	beq	a5,a4,10056a6 <Bt_EvtCallBack+0x100>
 10055f6:	04100713          	li	a4,65
 10055fa:	10e78763          	beq	a5,a4,1005708 <Bt_EvtCallBack+0x162>
 10055fe:	03000713          	li	a4,48
 1005602:	fce79ce3          	bne	a5,a4,10055da <Bt_EvtCallBack+0x34>
 1005606:	100007b7          	lui	a5,0x10000
 100560a:	5197c503          	lbu	a0,1305(a5) # 10000519 <_sidata+0xeff0941>
 100560e:	029060ef          	jal	ra,100be36 <PAIR_FAIL>
 1005612:	b7e1                	j	10055da <Bt_EvtCallBack+0x34>
 1005614:	09500713          	li	a4,149
 1005618:	0ce78063          	beq	a5,a4,10056d8 <Bt_EvtCallBack+0x132>
 100561c:	02f76163          	bltu	a4,a5,100563e <Bt_EvtCallBack+0x98>
 1005620:	06a00713          	li	a4,106
 1005624:	08e78663          	beq	a5,a4,10056b0 <Bt_EvtCallBack+0x10a>
 1005628:	09400713          	li	a4,148
 100562c:	0ce78263          	beq	a5,a4,10056f0 <Bt_EvtCallBack+0x14a>
 1005630:	06500713          	li	a4,101
 1005634:	fae793e3          	bne	a5,a4,10055da <Bt_EvtCallBack+0x34>
 1005638:	13d060ef          	jal	ra,100bf74 <Dev_PowerOn>
 100563c:	bf79                	j	10055da <Bt_EvtCallBack+0x34>
 100563e:	09b00713          	li	a4,155
 1005642:	06e78a63          	beq	a5,a4,10056b6 <Bt_EvtCallBack+0x110>
 1005646:	0a200713          	li	a4,162
 100564a:	00e78663          	beq	a5,a4,1005656 <Bt_EvtCallBack+0xb0>
 100564e:	09900713          	li	a4,153
 1005652:	f8e794e3          	bne	a5,a4,10055da <Bt_EvtCallBack+0x34>
 1005656:	0100d5b7          	lui	a1,0x100d
 100565a:	0100d537          	lui	a0,0x100d
 100565e:	46c58593          	addi	a1,a1,1132 # 100d46c <AAP_StopAnc4+0x70>
 1005662:	5ec50513          	addi	a0,a0,1516 # 100d5ec <AAP_StopAnc4+0x1f0>
 1005666:	8f2fc0ef          	jal	ra,1001758 <print_string_log>
 100566a:	100107b7          	lui	a5,0x10010
 100566e:	0407a783          	lw	a5,64(a5) # 10010040 <gpRecinfo>
 1005672:	03600713          	li	a4,54
 1005676:	4511                	li	a0,4
 1005678:	02e78e23          	sb	a4,60(a5)
 100567c:	bc5ff0ef          	jal	ra,1005240 <Bt_SaveBleDeviceInfoToFlash>
 1005680:	22a1                	jal	10057c8 <Bt_UpdateDeviceNvdataInfo>
 1005682:	7ca060ef          	jal	ra,100be4c <PAIR_DONE>
 1005686:	bf91                	j	10055da <Bt_EvtCallBack+0x34>
 1005688:	03b060ef          	jal	ra,100bec2 <LE_CONNECTED>
 100568c:	b7b9                	j	10055da <Bt_EvtCallBack+0x34>
 100568e:	100057b7          	lui	a5,0x10005
 1005692:	e437c503          	lbu	a0,-445(a5) # 10004e43 <_sidata+0xeff526b>
 1005696:	07f57513          	andi	a0,a0,127
 100569a:	7e8060ef          	jal	ra,100be82 <LE_DISCONNECTED>
 100569e:	bf35                	j	10055da <Bt_EvtCallBack+0x34>
 10056a0:	6e8060ef          	jal	ra,100bd88 <CONN_PARAM_ACCEPTED>
 10056a4:	bf1d                	j	10055da <Bt_EvtCallBack+0x34>
 10056a6:	1001d7b7          	lui	a5,0x1001d
 10056aa:	9c37c783          	lbu	a5,-1597(a5) # 1001c9c3 <_ebss+0x854f>
 10056ae:	b735                	j	10055da <Bt_EvtCallBack+0x34>
 10056b0:	045060ef          	jal	ra,100bef4 <Dev_WakeUp>
 10056b4:	b71d                	j	10055da <Bt_EvtCallBack+0x34>
 10056b6:	71e060ef          	jal	ra,100bdd4 <ENCRYPT_DONE>
 10056ba:	b705                	j	10055da <Bt_EvtCallBack+0x34>
 10056bc:	0100d5b7          	lui	a1,0x100d
 10056c0:	0100d537          	lui	a0,0x100d
 10056c4:	59050513          	addi	a0,a0,1424 # 100d590 <AAP_StopAnc4+0x194>
 10056c8:	46c58593          	addi	a1,a1,1132 # 100d46c <AAP_StopAnc4+0x70>
 10056cc:	88cfc0ef          	jal	ra,1001758 <print_string_log>
 10056d0:	4505                	li	a0,1
 10056d2:	b6fff0ef          	jal	ra,1005240 <Bt_SaveBleDeviceInfoToFlash>
 10056d6:	b711                	j	10055da <Bt_EvtCallBack+0x34>
 10056d8:	0100d5b7          	lui	a1,0x100d
 10056dc:	0100d537          	lui	a0,0x100d
 10056e0:	5ac50513          	addi	a0,a0,1452 # 100d5ac <AAP_StopAnc4+0x1b0>
 10056e4:	46c58593          	addi	a1,a1,1132 # 100d46c <AAP_StopAnc4+0x70>
 10056e8:	870fc0ef          	jal	ra,1001758 <print_string_log>
 10056ec:	4509                	li	a0,2
 10056ee:	b7d5                	j	10056d2 <Bt_EvtCallBack+0x12c>
 10056f0:	0100d5b7          	lui	a1,0x100d
 10056f4:	0100d537          	lui	a0,0x100d
 10056f8:	5cc50513          	addi	a0,a0,1484 # 100d5cc <AAP_StopAnc4+0x1d0>
 10056fc:	46c58593          	addi	a1,a1,1132 # 100d46c <AAP_StopAnc4+0x70>
 1005700:	858fc0ef          	jal	ra,1001758 <print_string_log>
 1005704:	450d                	li	a0,3
 1005706:	b7f1                	j	10056d2 <Bt_EvtCallBack+0x12c>
 1005708:	14e060ef          	jal	ra,100b856 <LE_LTK_LOST>
 100570c:	b5f9                	j	10055da <Bt_EvtCallBack+0x34>
 100570e:	8082                	ret

01005710 <Bt_BleCallBack>:
Bt_BleCallBack():
 1005710:	8082                	ret

01005712 <Bt_CheckIsPaired>:
Bt_CheckIsPaired():
 1005712:	100107b7          	lui	a5,0x10010
 1005716:	0407a783          	lw	a5,64(a5) # 10010040 <gpRecinfo>
 100571a:	03c7c503          	lbu	a0,60(a5)
 100571e:	fca50513          	addi	a0,a0,-54
 1005722:	00153513          	seqz	a0,a0
 1005726:	8082                	ret

01005728 <Bt_ClearFastPaired>:
Bt_ClearFastPaired():
 1005728:	350072ef          	jal	t0,100ca78 <__riscv_save_0>
 100572c:	100107b7          	lui	a5,0x10010
 1005730:	0407a783          	lw	a5,64(a5) # 10010040 <gpRecinfo>
 1005734:	03500713          	li	a4,53
 1005738:	00e78123          	sb	a4,2(a5)
 100573c:	d53ff0ef          	jal	ra,100548e <Flash_UpdateFlashRecordInfo>
 1005740:	100057b7          	lui	a5,0x10005
 1005744:	98078123          	sb	zero,-1662(a5) # 10004982 <_sidata+0xeff4daa>
 1005748:	3540706f          	j	100ca9c <__riscv_restore_0>

0100574c <Bt_ClearAddrToFlash>:
Bt_ClearAddrToFlash():
 100574c:	32c072ef          	jal	t0,100ca78 <__riscv_save_0>
 1005750:	100107b7          	lui	a5,0x10010
 1005754:	0407a783          	lw	a5,64(a5) # 10010040 <gpRecinfo>
 1005758:	02078e23          	sb	zero,60(a5)
 100575c:	000781a3          	sb	zero,3(a5)
 1005760:	d2fff0ef          	jal	ra,100548e <Flash_UpdateFlashRecordInfo>
 1005764:	3380706f          	j	100ca9c <__riscv_restore_0>

01005768 <Bt_ClearLinkkey>:
Bt_ClearLinkkey():
 1005768:	6795                	lui	a5,0x5
 100576a:	8fc78713          	addi	a4,a5,-1796 # 48fc <__EN_MIE-0xffb782>
 100576e:	10000637          	lui	a2,0x10000
 1005772:	90c78793          	addi	a5,a5,-1780
 1005776:	00c766b3          	or	a3,a4,a2
 100577a:	00068023          	sb	zero,0(a3)
 100577e:	0705                	addi	a4,a4,1
 1005780:	fef71be3          	bne	a4,a5,1005776 <Bt_ClearLinkkey+0xe>
 1005784:	100057b7          	lui	a5,0x10005
 1005788:	90078623          	sb	zero,-1780(a5) # 1000490c <_sidata+0xeff4d34>
 100578c:	8082                	ret

0100578e <Bt_ClearRemoteDevInfo>:
Bt_ClearRemoteDevInfo():
 100578e:	2ea072ef          	jal	t0,100ca78 <__riscv_save_0>
 1005792:	0100d537          	lui	a0,0x100d
 1005796:	61050513          	addi	a0,a0,1552 # 100d610 <AAP_StopAnc4+0x214>
 100579a:	fbffb0ef          	jal	ra,1001758 <print_string_log>
 100579e:	10011537          	lui	a0,0x10011
 10057a2:	03d00613          	li	a2,61
 10057a6:	4581                	li	a1,0
 10057a8:	d1450513          	addi	a0,a0,-748 # 10010d14 <gRecinfo>
 10057ac:	418070ef          	jal	ra,100cbc4 <memset>
 10057b0:	f9dff0ef          	jal	ra,100574c <Bt_ClearAddrToFlash>
 10057b4:	f75ff0ef          	jal	ra,1005728 <Bt_ClearFastPaired>
 10057b8:	fb1ff0ef          	jal	ra,1005768 <Bt_ClearLinkkey>
 10057bc:	100107b7          	lui	a5,0x10010
 10057c0:	6c078223          	sb	zero,1732(a5) # 100106c4 <gBLEState>
 10057c4:	2d80706f          	j	100ca9c <__riscv_restore_0>

010057c8 <Bt_UpdateDeviceNvdataInfo>:
Bt_UpdateDeviceNvdataInfo():
 10057c8:	100047b7          	lui	a5,0x10004
 10057cc:	3f07c783          	lbu	a5,1008(a5) # 100043f0 <_sidata+0xeff4818>
 10057d0:	470d                	li	a4,3
 10057d2:	17fd                	addi	a5,a5,-1
 10057d4:	0ff7f793          	andi	a5,a5,255
 10057d8:	00f77c63          	bgeu	a4,a5,10057f0 <Bt_UpdateDeviceNvdataInfo+0x28>
 10057dc:	29c072ef          	jal	t0,100ca78 <__riscv_save_0>
 10057e0:	0100d537          	lui	a0,0x100d
 10057e4:	62850513          	addi	a0,a0,1576 # 100d628 <AAP_StopAnc4+0x22c>
 10057e8:	f71fb0ef          	jal	ra,1001758 <print_string_log>
 10057ec:	2b00706f          	j	100ca9c <__riscv_restore_0>
 10057f0:	10005737          	lui	a4,0x10005
 10057f4:	95074683          	lbu	a3,-1712(a4) # 10004950 <_sidata+0xeff4d78>
 10057f8:	100107b7          	lui	a5,0x10010
 10057fc:	0ff6f693          	andi	a3,a3,255
 1005800:	02069e63          	bnez	a3,100583c <Bt_UpdateDeviceNvdataInfo+0x74>
 1005804:	03500693          	li	a3,53
 1005808:	6595                	lui	a1,0x5
 100580a:	ced70823          	sb	a3,-784(a4)
 100580e:	cf158593          	addi	a1,a1,-783 # 4cf1 <__EN_MIE-0xffb38d>
 1005812:	4701                	li	a4,0
 1005814:	10000837          	lui	a6,0x10000
 1005818:	4519                	li	a0,6
 100581a:	0407a603          	lw	a2,64(a5) # 10010040 <gpRecinfo>
 100581e:	00b706b3          	add	a3,a4,a1
 1005822:	0106e6b3          	or	a3,a3,a6
 1005826:	963a                	add	a2,a2,a4
 1005828:	00564603          	lbu	a2,5(a2) # 10000005 <_sidata+0xeff042d>
 100582c:	0705                	addi	a4,a4,1
 100582e:	0ff67613          	andi	a2,a2,255
 1005832:	00c68023          	sb	a2,0(a3)
 1005836:	fea712e3          	bne	a4,a0,100581a <Bt_UpdateDeviceNvdataInfo+0x52>
 100583a:	8082                	ret
 100583c:	0407a683          	lw	a3,64(a5)
 1005840:	0c000593          	li	a1,192
 1005844:	00a6c603          	lbu	a2,10(a3)
 1005848:	0c067613          	andi	a2,a2,192
 100584c:	02b61e63          	bne	a2,a1,1005888 <Bt_UpdateDeviceNvdataInfo+0xc0>
 1005850:	03500693          	li	a3,53
 1005854:	6595                	lui	a1,0x5
 1005856:	ced70823          	sb	a3,-784(a4)
 100585a:	cf158593          	addi	a1,a1,-783 # 4cf1 <__EN_MIE-0xffb38d>
 100585e:	4701                	li	a4,0
 1005860:	10000837          	lui	a6,0x10000
 1005864:	4519                	li	a0,6
 1005866:	0407a603          	lw	a2,64(a5)
 100586a:	00b706b3          	add	a3,a4,a1
 100586e:	0106e6b3          	or	a3,a3,a6
 1005872:	963a                	add	a2,a2,a4
 1005874:	00564603          	lbu	a2,5(a2)
 1005878:	0705                	addi	a4,a4,1
 100587a:	0ff67613          	andi	a2,a2,255
 100587e:	00c68023          	sb	a2,0(a3)
 1005882:	fea712e3          	bne	a4,a0,1005866 <Bt_UpdateDeviceNvdataInfo+0x9e>
 1005886:	8082                	ret
 1005888:	00a6c603          	lbu	a2,10(a3)
 100588c:	04000593          	li	a1,64
 1005890:	0c067613          	andi	a2,a2,192
 1005894:	06b61563          	bne	a2,a1,10058fe <Bt_UpdateDeviceNvdataInfo+0x136>
 1005898:	03600693          	li	a3,54
 100589c:	6595                	lui	a1,0x5
 100589e:	ced70823          	sb	a3,-784(a4)
 10058a2:	cf158593          	addi	a1,a1,-783 # 4cf1 <__EN_MIE-0xffb38d>
 10058a6:	4701                	li	a4,0
 10058a8:	10000837          	lui	a6,0x10000
 10058ac:	4519                	li	a0,6
 10058ae:	0407a603          	lw	a2,64(a5)
 10058b2:	00b706b3          	add	a3,a4,a1
 10058b6:	0106e6b3          	or	a3,a3,a6
 10058ba:	963a                	add	a2,a2,a4
 10058bc:	00564603          	lbu	a2,5(a2)
 10058c0:	0705                	addi	a4,a4,1
 10058c2:	0ff67613          	andi	a2,a2,255
 10058c6:	00c68023          	sb	a2,0(a3)
 10058ca:	fea712e3          	bne	a4,a0,10058ae <Bt_UpdateDeviceNvdataInfo+0xe6>
 10058ce:	6595                	lui	a1,0x5
 10058d0:	4701                	li	a4,0
 10058d2:	cf758593          	addi	a1,a1,-777 # 4cf7 <__EN_MIE-0xffb387>
 10058d6:	10000837          	lui	a6,0x10000
 10058da:	4541                	li	a0,16
 10058dc:	0407a603          	lw	a2,64(a5)
 10058e0:	00b706b3          	add	a3,a4,a1
 10058e4:	0106e6b3          	or	a3,a3,a6
 10058e8:	963a                	add	a2,a2,a4
 10058ea:	02264603          	lbu	a2,34(a2)
 10058ee:	0705                	addi	a4,a4,1
 10058f0:	0ff67613          	andi	a2,a2,255
 10058f4:	00c68023          	sb	a2,0(a3)
 10058f8:	fea712e3          	bne	a4,a0,10058dc <Bt_UpdateDeviceNvdataInfo+0x114>
 10058fc:	8082                	ret
 10058fe:	00a6c683          	lbu	a3,10(a3)
 1005902:	0c06f693          	andi	a3,a3,192
 1005906:	08069763          	bnez	a3,1005994 <Bt_UpdateDeviceNvdataInfo+0x1cc>
 100590a:	03700693          	li	a3,55
 100590e:	6595                	lui	a1,0x5
 1005910:	ced70823          	sb	a3,-784(a4)
 1005914:	cf158593          	addi	a1,a1,-783 # 4cf1 <__EN_MIE-0xffb38d>
 1005918:	4701                	li	a4,0
 100591a:	10000837          	lui	a6,0x10000
 100591e:	4519                	li	a0,6
 1005920:	0407a603          	lw	a2,64(a5)
 1005924:	00b706b3          	add	a3,a4,a1
 1005928:	0106e6b3          	or	a3,a3,a6
 100592c:	963a                	add	a2,a2,a4
 100592e:	00564603          	lbu	a2,5(a2)
 1005932:	0705                	addi	a4,a4,1
 1005934:	0ff67613          	andi	a2,a2,255
 1005938:	00c68023          	sb	a2,0(a3)
 100593c:	fea712e3          	bne	a4,a0,1005920 <Bt_UpdateDeviceNvdataInfo+0x158>
 1005940:	0407a703          	lw	a4,64(a5)
 1005944:	100056b7          	lui	a3,0x10005
 1005948:	6595                	lui	a1,0x5
 100594a:	03274703          	lbu	a4,50(a4)
 100594e:	cf958593          	addi	a1,a1,-775 # 4cf9 <__EN_MIE-0xffb385>
 1005952:	10000837          	lui	a6,0x10000
 1005956:	0ff77713          	andi	a4,a4,255
 100595a:	cee68ba3          	sb	a4,-777(a3) # 10004cf7 <_sidata+0xeff511f>
 100595e:	0407a703          	lw	a4,64(a5)
 1005962:	4521                	li	a0,8
 1005964:	03374703          	lbu	a4,51(a4)
 1005968:	0ff77713          	andi	a4,a4,255
 100596c:	cee68c23          	sb	a4,-776(a3)
 1005970:	4701                	li	a4,0
 1005972:	0407a603          	lw	a2,64(a5)
 1005976:	00b706b3          	add	a3,a4,a1
 100597a:	0106e6b3          	or	a3,a3,a6
 100597e:	963a                	add	a2,a2,a4
 1005980:	03464603          	lbu	a2,52(a2)
 1005984:	0705                	addi	a4,a4,1
 1005986:	0ff67613          	andi	a2,a2,255
 100598a:	00c68023          	sb	a2,0(a3)
 100598e:	fea712e3          	bne	a4,a0,1005972 <Bt_UpdateDeviceNvdataInfo+0x1aa>
 1005992:	8082                	ret
 1005994:	8082                	ret

01005996 <Bt_ClearDeviceNvdataInfo>:
Bt_ClearDeviceNvdataInfo():
 1005996:	0e2072ef          	jal	t0,100ca78 <__riscv_save_0>
 100599a:	100047b7          	lui	a5,0x10004
 100599e:	3f07c483          	lbu	s1,1008(a5) # 100043f0 <_sidata+0xeff4818>
 10059a2:	470d                	li	a4,3
 10059a4:	0ff4f493          	andi	s1,s1,255
 10059a8:	fff48793          	addi	a5,s1,-1
 10059ac:	0ff7f793          	andi	a5,a5,255
 10059b0:	00f77a63          	bgeu	a4,a5,10059c4 <Bt_ClearDeviceNvdataInfo+0x2e>
 10059b4:	0100d537          	lui	a0,0x100d
 10059b8:	62850513          	addi	a0,a0,1576 # 100d628 <AAP_StopAnc4+0x22c>
 10059bc:	d9dfb0ef          	jal	ra,1001758 <print_string_log>
 10059c0:	0dc0706f          	j	100ca9c <__riscv_restore_0>
 10059c4:	4401                	li	s0,0
 10059c6:	8522                	mv	a0,s0
 10059c8:	0405                	addi	s0,s0,1
 10059ca:	0ff47413          	andi	s0,s0,255
 10059ce:	2021                	jal	10059d6 <Bt_ClearNvdataItem>
 10059d0:	fe849be3          	bne	s1,s0,10059c6 <Bt_ClearDeviceNvdataInfo+0x30>
 10059d4:	b7f5                	j	10059c0 <Bt_ClearDeviceNvdataInfo+0x2a>

010059d6 <Bt_ClearNvdataItem>:
Bt_ClearNvdataItem():
 10059d6:	47e1                	li	a5,24
 10059d8:	02f50533          	mul	a0,a0,a5
 10059dc:	6715                	lui	a4,0x5
 10059de:	cf070793          	addi	a5,a4,-784 # 4cf0 <__EN_MIE-0xffb38e>
 10059e2:	d0870713          	addi	a4,a4,-760
 10059e6:	100006b7          	lui	a3,0x10000
 10059ea:	0ff57513          	andi	a0,a0,255
 10059ee:	97aa                	add	a5,a5,a0
 10059f0:	953a                	add	a0,a0,a4
 10059f2:	00d7e733          	or	a4,a5,a3
 10059f6:	00070023          	sb	zero,0(a4)
 10059fa:	0785                	addi	a5,a5,1
 10059fc:	fea79be3          	bne	a5,a0,10059f2 <Bt_ClearNvdataItem+0x1c>
 1005a00:	8082                	ret

01005a02 <SYS_CodeChange>:
SYS_CodeChange():
 1005a02:	100107b7          	lui	a5,0x10010
 1005a06:	6d87a783          	lw	a5,1752(a5) # 100106d8 <ota_data_structure+0x4>
 1005a0a:	6705                	lui	a4,0x1
 1005a0c:	00e78663          	beq	a5,a4,1005a18 <SYS_CodeChange+0x16>
 1005a10:	00040737          	lui	a4,0x40
 1005a14:	02e79b63          	bne	a5,a4,1005a4a <SYS_CodeChange+0x48>
 1005a18:	060072ef          	jal	t0,100ca78 <__riscv_save_0>
 1005a1c:	07cd                	addi	a5,a5,19
 1005a1e:	1141                	addi	sp,sp,-16
 1005a20:	0107d713          	srli	a4,a5,0x10
 1005a24:	00e10623          	sb	a4,12(sp)
 1005a28:	4501                	li	a0,0
 1005a2a:	0087d713          	srli	a4,a5,0x8
 1005a2e:	00e106a3          	sb	a4,13(sp)
 1005a32:	00f10723          	sb	a5,14(sp)
 1005a36:	a26ff0ef          	jal	ra,1004c5c <QSPI_SectorEraseFlash>
 1005a3a:	0070                	addi	a2,sp,12
 1005a3c:	458d                	li	a1,3
 1005a3e:	4501                	li	a0,0
 1005a40:	a6cff0ef          	jal	ra,1004cac <QSPI_WritePageFlashData>
 1005a44:	916fc0ef          	jal	ra,1001b5a <SYS_RESET>
 1005a48:	a001                	j	1005a48 <SYS_CodeChange+0x46>
 1005a4a:	4509                	li	a0,2
 1005a4c:	8082                	ret

01005a4e <OTA_FlashAddr_Init>:
OTA_FlashAddr_Init():
 1005a4e:	010072ef          	jal	t0,100ca5e <__riscv_save_4>
 1005a52:	10010637          	lui	a2,0x10010
 1005a56:	6d860613          	addi	a2,a2,1752 # 100106d8 <ota_data_structure+0x4>
 1005a5a:	458d                	li	a1,3
 1005a5c:	4501                	li	a0,0
 1005a5e:	94eff0ef          	jal	ra,1004bac <QSPI_ReadFlashData>
 1005a62:	10010437          	lui	s0,0x10010
 1005a66:	6d440793          	addi	a5,s0,1748 # 100106d4 <ota_data_structure>
 1005a6a:	43d8                	lw	a4,4(a5)
 1005a6c:	66c1                	lui	a3,0x10
 1005a6e:	f0068693          	addi	a3,a3,-256 # ff00 <__EN_MIE-0xff017e>
 1005a72:	8ef9                	and	a3,a3,a4
 1005a74:	01075793          	srli	a5,a4,0x10
 1005a78:	97b6                	add	a5,a5,a3
 1005a7a:	0742                	slli	a4,a4,0x10
 1005a7c:	00ff06b7          	lui	a3,0xff0
 1005a80:	8f75                	and	a4,a4,a3
 1005a82:	17b5                	addi	a5,a5,-19
 1005a84:	97ba                	add	a5,a5,a4
 1005a86:	6705                	lui	a4,0x1
 1005a88:	6d440413          	addi	s0,s0,1748
 1005a8c:	02e79c63          	bne	a5,a4,1005ac4 <OTA_FlashAddr_Init+0x76>
 1005a90:	000407b7          	lui	a5,0x40
 1005a94:	c05c                	sw	a5,4(s0)
 1005a96:	00842903          	lw	s2,8(s0)
 1005a9a:	4481                	li	s1,0
 1005a9c:	100109b7          	lui	s3,0x10010
 1005aa0:	00c95913          	srli	s2,s2,0xc
 1005aa4:	00098513          	mv	a0,s3
 1005aa8:	836fe0ef          	jal	ra,1003ade <IWDG_ReloadCounter>
 1005aac:	405c                	lw	a5,4(s0)
 1005aae:	00c49513          	slli	a0,s1,0xc
 1005ab2:	0485                	addi	s1,s1,1
 1005ab4:	953e                	add	a0,a0,a5
 1005ab6:	9a6ff0ef          	jal	ra,1004c5c <QSPI_SectorEraseFlash>
 1005aba:	fe9975e3          	bgeu	s2,s1,1005aa4 <OTA_FlashAddr_Init+0x56>
 1005abe:	4505                	li	a0,1
 1005ac0:	7d30606f          	j	100ca92 <__riscv_restore_4>
 1005ac4:	000406b7          	lui	a3,0x40
 1005ac8:	4501                	li	a0,0
 1005aca:	fed79be3          	bne	a5,a3,1005ac0 <OTA_FlashAddr_Init+0x72>
 1005ace:	c058                	sw	a4,4(s0)
 1005ad0:	b7d9                	j	1005a96 <OTA_FlashAddr_Init+0x48>

01005ad2 <OTA_RESET>:
OTA_RESET():
 1005ad2:	100107b7          	lui	a5,0x10010
 1005ad6:	6d478793          	addi	a5,a5,1748 # 100106d4 <ota_data_structure>
 1005ada:	0007a023          	sw	zero,0(a5)
 1005ade:	0007a223          	sw	zero,4(a5)
 1005ae2:	0007a423          	sw	zero,8(a5)
 1005ae6:	0007a623          	sw	zero,12(a5)
 1005aea:	0007a823          	sw	zero,16(a5)
 1005aee:	8082                	ret

01005af0 <OTA_EVT_HANDLE>:
OTA_EVT_HANDLE():
 1005af0:	76f062ef          	jal	t0,100ca5e <__riscv_save_4>
 1005af4:	7179                	addi	sp,sp,-48
 1005af6:	84ae                	mv	s1,a1
 1005af8:	842a                	mv	s0,a0
 1005afa:	02000613          	li	a2,32
 1005afe:	4581                	li	a1,0
 1005b00:	0808                	addi	a0,sp,16
 1005b02:	c402                	sw	zero,8(sp)
 1005b04:	00011623          	sh	zero,12(sp)
 1005b08:	00010723          	sb	zero,14(sp)
 1005b0c:	0b8070ef          	jal	ra,100cbc4 <memset>
 1005b10:	0004c703          	lbu	a4,0(s1)
 1005b14:	0ba00793          	li	a5,186
 1005b18:	2ef71363          	bne	a4,a5,1005dfe <OTA_EVT_HANDLE+0x30e>
 1005b1c:	0014c783          	lbu	a5,1(s1)
 1005b20:	0c100713          	li	a4,193
 1005b24:	10e78663          	beq	a5,a4,1005c30 <OTA_EVT_HANDLE+0x140>
 1005b28:	02f76563          	bltu	a4,a5,1005b52 <OTA_EVT_HANDLE+0x62>
 1005b2c:	0c000713          	li	a4,192
 1005b30:	04e78e63          	beq	a5,a4,1005b8c <OTA_EVT_HANDLE+0x9c>
 1005b34:	100107b7          	lui	a5,0x10010
 1005b38:	6d478793          	addi	a5,a5,1748 # 100106d4 <ota_data_structure>
 1005b3c:	0007a023          	sw	zero,0(a5)
 1005b40:	0007a223          	sw	zero,4(a5)
 1005b44:	0007a423          	sw	zero,8(a5)
 1005b48:	0007a623          	sw	zero,12(a5)
 1005b4c:	0007a823          	sw	zero,16(a5)
 1005b50:	a8f1                	j	1005c2c <OTA_EVT_HANDLE+0x13c>
 1005b52:	10010437          	lui	s0,0x10010
 1005b56:	0c200713          	li	a4,194
 1005b5a:	6d440413          	addi	s0,s0,1748 # 100106d4 <ota_data_structure>
 1005b5e:	14e78f63          	beq	a5,a4,1005cbc <OTA_EVT_HANDLE+0x1cc>
 1005b62:	0ff00713          	li	a4,255
 1005b66:	fce797e3          	bne	a5,a4,1005b34 <OTA_EVT_HANDLE+0x44>
 1005b6a:	0100d537          	lui	a0,0x100d
 1005b6e:	66c50513          	addi	a0,a0,1644 # 100d66c <AAP_StopAnc4+0x270>
 1005b72:	be7fb0ef          	jal	ra,1001758 <print_string_log>
 1005b76:	00042023          	sw	zero,0(s0)
 1005b7a:	00042223          	sw	zero,4(s0)
 1005b7e:	00042423          	sw	zero,8(s0)
 1005b82:	00042623          	sw	zero,12(s0)
 1005b86:	00042823          	sw	zero,16(s0)
 1005b8a:	a04d                	j	1005c2c <OTA_EVT_HANDLE+0x13c>
 1005b8c:	4715                	li	a4,5
 1005b8e:	4785                	li	a5,1
 1005b90:	22e41363          	bne	s0,a4,1005db6 <OTA_EVT_HANDLE+0x2c6>
 1005b94:	10010937          	lui	s2,0x10010
 1005b98:	6d494783          	lbu	a5,1748(s2) # 100106d4 <ota_data_structure>
 1005b9c:	4401                	li	s0,0
 1005b9e:	6d490913          	addi	s2,s2,1748
 1005ba2:	02078363          	beqz	a5,1005bc8 <OTA_EVT_HANDLE+0xd8>
 1005ba6:	77f1                	lui	a5,0xffffc
 1005ba8:	0ab78793          	addi	a5,a5,171 # ffffc0ab <_stack+0xeffde8ab>
 1005bac:	6541                	lui	a0,0x10
 1005bae:	00f11423          	sh	a5,8(sp)
 1005bb2:	4611                	li	a2,4
 1005bb4:	06400793          	li	a5,100
 1005bb8:	002c                	addi	a1,sp,8
 1005bba:	fde50513          	addi	a0,a0,-34 # ffde <__EN_MIE-0xff00a0>
 1005bbe:	00f10523          	sb	a5,10(sp)
 1005bc2:	4411                	li	s0,4
 1005bc4:	27d000ef          	jal	ra,1006640 <ATT_sendNotify>
 1005bc8:	4785                	li	a5,1
 1005bca:	00f90023          	sb	a5,0(s2)
 1005bce:	0034c783          	lbu	a5,3(s1)
 1005bd2:	0024c703          	lbu	a4,2(s1)
 1005bd6:	07a2                	slli	a5,a5,0x8
 1005bd8:	97ba                	add	a5,a5,a4
 1005bda:	0044c703          	lbu	a4,4(s1)
 1005bde:	0742                	slli	a4,a4,0x10
 1005be0:	97ba                	add	a5,a5,a4
 1005be2:	00f92423          	sw	a5,8(s2)
 1005be6:	e69ff0ef          	jal	ra,1005a4e <OTA_FlashAddr_Init>
 1005bea:	4789                	li	a5,2
 1005bec:	1c050563          	beqz	a0,1005db6 <OTA_EVT_HANDLE+0x2c6>
 1005bf0:	181c                	addi	a5,sp,48
 1005bf2:	97a2                	add	a5,a5,s0
 1005bf4:	fab00713          	li	a4,-85
 1005bf8:	fce78c23          	sb	a4,-40(a5)
 1005bfc:	181c                	addi	a5,sp,48
 1005bfe:	97a2                	add	a5,a5,s0
 1005c00:	fc000713          	li	a4,-64
 1005c04:	fce78ca3          	sb	a4,-39(a5)
 1005c08:	181c                	addi	a5,sp,48
 1005c0a:	97a2                	add	a5,a5,s0
 1005c0c:	06400713          	li	a4,100
 1005c10:	fce78d23          	sb	a4,-38(a5)
 1005c14:	181c                	addi	a5,sp,48
 1005c16:	97a2                	add	a5,a5,s0
 1005c18:	fc078da3          	sb	zero,-37(a5)
 1005c1c:	00440613          	addi	a2,s0,4
 1005c20:	6541                	lui	a0,0x10
 1005c22:	002c                	addi	a1,sp,8
 1005c24:	fde50513          	addi	a0,a0,-34 # ffde <__EN_MIE-0xff00a0>
 1005c28:	219000ef          	jal	ra,1006640 <ATT_sendNotify>
 1005c2c:	4781                	li	a5,0
 1005c2e:	a261                	j	1005db6 <OTA_EVT_HANDLE+0x2c6>
 1005c30:	10010437          	lui	s0,0x10010
 1005c34:	6d440713          	addi	a4,s0,1748 # 100106d4 <ota_data_structure>
 1005c38:	00074683          	lbu	a3,0(a4) # 1000 <__EN_MIE-0xfff07e>
 1005c3c:	6d440413          	addi	s0,s0,1748
 1005c40:	4785                	li	a5,1
 1005c42:	16068a63          	beqz	a3,1005db6 <OTA_EVT_HANDLE+0x2c6>
 1005c46:	00275783          	lhu	a5,2(a4)
 1005c4a:	0034c703          	lbu	a4,3(s1)
 1005c4e:	0024c583          	lbu	a1,2(s1)
 1005c52:	0722                	slli	a4,a4,0x8
 1005c54:	00078963          	beqz	a5,1005c66 <OTA_EVT_HANDLE+0x176>
 1005c58:	00178693          	addi	a3,a5,1
 1005c5c:	00b70633          	add	a2,a4,a1
 1005c60:	478d                	li	a5,3
 1005c62:	14c69a63          	bne	a3,a2,1005db6 <OTA_EVT_HANDLE+0x2c6>
 1005c66:	972e                	add	a4,a4,a1
 1005c68:	0054c583          	lbu	a1,5(s1)
 1005c6c:	0044c783          	lbu	a5,4(s1)
 1005c70:	00e41123          	sh	a4,2(s0)
 1005c74:	05a2                	slli	a1,a1,0x8
 1005c76:	95be                	add	a1,a1,a5
 1005c78:	4791                	li	a5,4
 1005c7a:	12058e63          	beqz	a1,1005db6 <OTA_EVT_HANDLE+0x2c6>
 1005c7e:	481c                	lw	a5,16(s0)
 1005c80:	4048                	lw	a0,4(s0)
 1005c82:	00648613          	addi	a2,s1,6
 1005c86:	953e                	add	a0,a0,a5
 1005c88:	824ff0ef          	jal	ra,1004cac <QSPI_WritePageFlashData>
 1005c8c:	0054c783          	lbu	a5,5(s1)
 1005c90:	0044c703          	lbu	a4,4(s1)
 1005c94:	4611                	li	a2,4
 1005c96:	07a2                	slli	a5,a5,0x8
 1005c98:	97ba                	add	a5,a5,a4
 1005c9a:	4818                	lw	a4,16(s0)
 1005c9c:	97ba                	add	a5,a5,a4
 1005c9e:	c81c                	sw	a5,16(s0)
 1005ca0:	77f1                	lui	a5,0xffffc
 1005ca2:	1ab78793          	addi	a5,a5,427 # ffffc1ab <_stack+0xeffde9ab>
 1005ca6:	00f11423          	sh	a5,8(sp)
 1005caa:	0024c783          	lbu	a5,2(s1)
 1005cae:	00f10523          	sb	a5,10(sp)
 1005cb2:	0034c783          	lbu	a5,3(s1)
 1005cb6:	00f105a3          	sb	a5,11(sp)
 1005cba:	b79d                	j	1005c20 <OTA_EVT_HANDLE+0x130>
 1005cbc:	77f1                	lui	a5,0xffffc
 1005cbe:	2ab78793          	addi	a5,a5,683 # ffffc2ab <_stack+0xeffdeaab>
 1005cc2:	00f11423          	sh	a5,8(sp)
 1005cc6:	0024c783          	lbu	a5,2(s1)
 1005cca:	480c                	lw	a1,16(s0)
 1005ccc:	0100d537          	lui	a0,0x100d
 1005cd0:	00f10523          	sb	a5,10(sp)
 1005cd4:	0034c783          	lbu	a5,3(s1)
 1005cd8:	64450513          	addi	a0,a0,1604 # 100d644 <AAP_StopAnc4+0x248>
 1005cdc:	4901                	li	s2,0
 1005cde:	00f105a3          	sb	a5,11(sp)
 1005ce2:	49fd                	li	s3,31
 1005ce4:	a75fb0ef          	jal	ra,1001758 <print_string_log>
 1005ce8:	480c                	lw	a1,16(s0)
 1005cea:	04b97a63          	bgeu	s2,a1,1005d3e <OTA_EVT_HANDLE+0x24e>
 1005cee:	4048                	lw	a0,4(s0)
 1005cf0:	412585b3          	sub	a1,a1,s2
 1005cf4:	0810                	addi	a2,sp,16
 1005cf6:	954a                	add	a0,a0,s2
 1005cf8:	02b9f663          	bgeu	s3,a1,1005d24 <OTA_EVT_HANDLE+0x234>
 1005cfc:	02000593          	li	a1,32
 1005d00:	eadfe0ef          	jal	ra,1004bac <QSPI_ReadFlashData>
 1005d04:	4458                	lw	a4,12(s0)
 1005d06:	4781                	li	a5,0
 1005d08:	02000693          	li	a3,32
 1005d0c:	0810                	addi	a2,sp,16
 1005d0e:	963e                	add	a2,a2,a5
 1005d10:	00064603          	lbu	a2,0(a2)
 1005d14:	0785                	addi	a5,a5,1
 1005d16:	9732                	add	a4,a4,a2
 1005d18:	fed79ae3          	bne	a5,a3,1005d0c <OTA_EVT_HANDLE+0x21c>
 1005d1c:	c458                	sw	a4,12(s0)
 1005d1e:	02090913          	addi	s2,s2,32
 1005d22:	b7d9                	j	1005ce8 <OTA_EVT_HANDLE+0x1f8>
 1005d24:	e89fe0ef          	jal	ra,1004bac <QSPI_ReadFlashData>
 1005d28:	481c                	lw	a5,16(s0)
 1005d2a:	4458                	lw	a4,12(s0)
 1005d2c:	4681                	li	a3,0
 1005d2e:	41278933          	sub	s2,a5,s2
 1005d32:	4781                	li	a5,0
 1005d34:	0927e563          	bltu	a5,s2,1005dbe <OTA_EVT_HANDLE+0x2ce>
 1005d38:	00068363          	beqz	a3,1005d3e <OTA_EVT_HANDLE+0x24e>
 1005d3c:	c458                	sw	a4,12(s0)
 1005d3e:	444c                	lw	a1,12(s0)
 1005d40:	0100d537          	lui	a0,0x100d
 1005d44:	65850513          	addi	a0,a0,1624 # 100d658 <AAP_StopAnc4+0x25c>
 1005d48:	a11fb0ef          	jal	ra,1001758 <print_string_log>
 1005d4c:	0054c783          	lbu	a5,5(s1)
 1005d50:	0044c703          	lbu	a4,4(s1)
 1005d54:	07a2                	slli	a5,a5,0x8
 1005d56:	97ba                	add	a5,a5,a4
 1005d58:	0064c703          	lbu	a4,6(s1)
 1005d5c:	0742                	slli	a4,a4,0x10
 1005d5e:	97ba                	add	a5,a5,a4
 1005d60:	4458                	lw	a4,12(s0)
 1005d62:	06f71863          	bne	a4,a5,1005dd2 <OTA_EVT_HANDLE+0x2e2>
 1005d66:	0084c783          	lbu	a5,8(s1)
 1005d6a:	0074c703          	lbu	a4,7(s1)
 1005d6e:	07a2                	slli	a5,a5,0x8
 1005d70:	97ba                	add	a5,a5,a4
 1005d72:	0094c703          	lbu	a4,9(s1)
 1005d76:	0742                	slli	a4,a4,0x10
 1005d78:	97ba                	add	a5,a5,a4
 1005d7a:	4818                	lw	a4,16(s0)
 1005d7c:	04f71b63          	bne	a4,a5,1005dd2 <OTA_EVT_HANDLE+0x2e2>
 1005d80:	6541                	lui	a0,0x10
 1005d82:	05500793          	li	a5,85
 1005d86:	4615                	li	a2,5
 1005d88:	002c                	addi	a1,sp,8
 1005d8a:	fde50513          	addi	a0,a0,-34 # ffde <__EN_MIE-0xff00a0>
 1005d8e:	00f10623          	sb	a5,12(sp)
 1005d92:	0af000ef          	jal	ra,1006640 <ATT_sendNotify>
 1005d96:	4559                	li	a0,22
 1005d98:	bb4ff0ef          	jal	ra,100514c <bt_send_le_disconnect>
 1005d9c:	10010537          	lui	a0,0x10010
 1005da0:	00050513          	mv	a0,a0
 1005da4:	d3bfd0ef          	jal	ra,1003ade <IWDG_ReloadCounter>
 1005da8:	2bc00513          	li	a0,700
 1005dac:	bb8fe0ef          	jal	ra,1004164 <SysTick_DelayMs>
 1005db0:	c53ff0ef          	jal	ra,1005a02 <SYS_CodeChange>
 1005db4:	87aa                	mv	a5,a0
 1005db6:	853e                	mv	a0,a5
 1005db8:	6145                	addi	sp,sp,48
 1005dba:	4d90606f          	j	100ca92 <__riscv_restore_4>
 1005dbe:	1814                	addi	a3,sp,48
 1005dc0:	96be                	add	a3,a3,a5
 1005dc2:	fe06c683          	lbu	a3,-32(a3) # 3ffe0 <__EN_MIE-0xfc009e>
 1005dc6:	0785                	addi	a5,a5,1
 1005dc8:	0ff7f793          	andi	a5,a5,255
 1005dcc:	9736                	add	a4,a4,a3
 1005dce:	4685                	li	a3,1
 1005dd0:	b795                	j	1005d34 <OTA_EVT_HANDLE+0x244>
 1005dd2:	6541                	lui	a0,0x10
 1005dd4:	57fd                	li	a5,-1
 1005dd6:	4615                	li	a2,5
 1005dd8:	002c                	addi	a1,sp,8
 1005dda:	fde50513          	addi	a0,a0,-34 # ffde <__EN_MIE-0xff00a0>
 1005dde:	00f10623          	sb	a5,12(sp)
 1005de2:	05f000ef          	jal	ra,1006640 <ATT_sendNotify>
 1005de6:	4795                	li	a5,5
 1005de8:	00042023          	sw	zero,0(s0)
 1005dec:	00042223          	sw	zero,4(s0)
 1005df0:	00042423          	sw	zero,8(s0)
 1005df4:	00042623          	sw	zero,12(s0)
 1005df8:	00042823          	sw	zero,16(s0)
 1005dfc:	bf6d                	j	1005db6 <OTA_EVT_HANDLE+0x2c6>
 1005dfe:	4785                	li	a5,1
 1005e00:	bf5d                	j	1005db6 <OTA_EVT_HANDLE+0x2c6>

01005e02 <ATT_SendErrorRsp>:
ATT_SendErrorRsp():
 1005e02:	477062ef          	jal	t0,100ca78 <__riscv_save_0>
 1005e06:	1141                	addi	sp,sp,-16
 1005e08:	4785                	li	a5,1
 1005e0a:	00a104a3          	sb	a0,9(sp)
 1005e0e:	00b11523          	sh	a1,10(sp)
 1005e12:	0028                	addi	a0,sp,8
 1005e14:	4595                	li	a1,5
 1005e16:	00f10423          	sb	a5,8(sp)
 1005e1a:	00c10623          	sb	a2,12(sp)
 1005e1e:	003000ef          	jal	ra,1006620 <ATT_Send>
 1005e22:	0141                	addi	sp,sp,16
 1005e24:	4790606f          	j	100ca9c <__riscv_restore_0>

01005e28 <ATT_WriteCmd>:
ATT_WriteCmd():
 1005e28:	451062ef          	jal	t0,100ca78 <__riscv_save_0>
 1005e2c:	1141                	addi	sp,sp,-16
 1005e2e:	c62e                	sw	a1,12(sp)
 1005e30:	c432                	sw	a2,8(sp)
 1005e32:	32c060ef          	jal	ra,100c15e <Find_AttTable_ByHandle>
 1005e36:	00050663          	beqz	a0,1005e42 <ATT_WriteCmd+0x1a>
 1005e3a:	4622                	lw	a2,8(sp)
 1005e3c:	45b2                	lw	a1,12(sp)
 1005e3e:	429050ef          	jal	ra,100ba66 <Write_DataParse>
 1005e42:	0141                	addi	sp,sp,16
 1005e44:	4590606f          	j	100ca9c <__riscv_restore_0>

01005e48 <ATT_ExecuteWriteReq>:
ATT_ExecuteWriteReq():
 1005e48:	431062ef          	jal	t0,100ca78 <__riscv_save_0>
 1005e4c:	100117b7          	lui	a5,0x10011
 1005e50:	d527c503          	lbu	a0,-686(a5) # 10010d52 <prepareHandle>
 1005e54:	1141                	addi	sp,sp,-16
 1005e56:	308060ef          	jal	ra,100c15e <Find_AttTable_ByHandle>
 1005e5a:	02050763          	beqz	a0,1005e88 <ATT_ExecuteWriteReq+0x40>
 1005e5e:	47e5                	li	a5,25
 1005e60:	84aa                	mv	s1,a0
 1005e62:	4585                	li	a1,1
 1005e64:	0068                	addi	a0,sp,12
 1005e66:	00f10623          	sb	a5,12(sp)
 1005e6a:	10011437          	lui	s0,0x10011
 1005e6e:	7b2000ef          	jal	ra,1006620 <ATT_Send>
 1005e72:	d5144603          	lbu	a2,-687(s0) # 10010d51 <prepareLen>
 1005e76:	100135b7          	lui	a1,0x10013
 1005e7a:	16058593          	addi	a1,a1,352 # 10013160 <prepareRcv>
 1005e7e:	8526                	mv	a0,s1
 1005e80:	3e7050ef          	jal	ra,100ba66 <Write_DataParse>
 1005e84:	d40408a3          	sb	zero,-687(s0)
 1005e88:	0141                	addi	sp,sp,16
 1005e8a:	4130606f          	j	100ca9c <__riscv_restore_0>

01005e8e <ATT_PrepareWriteReq>:
ATT_PrepareWriteReq():
 1005e8e:	3d1062ef          	jal	t0,100ca5e <__riscv_save_4>
 1005e92:	7111                	addi	sp,sp,-256
 1005e94:	84ae                	mv	s1,a1
 1005e96:	842a                	mv	s0,a0
 1005e98:	10000613          	li	a2,256
 1005e9c:	4581                	li	a1,0
 1005e9e:	850a                	mv	a0,sp
 1005ea0:	525060ef          	jal	ra,100cbc4 <memset>
 1005ea4:	0034c783          	lbu	a5,3(s1)
 1005ea8:	0024c703          	lbu	a4,2(s1)
 1005eac:	10011937          	lui	s2,0x10011
 1005eb0:	07a2                	slli	a5,a5,0x8
 1005eb2:	97ba                	add	a5,a5,a4
 1005eb4:	d5194503          	lbu	a0,-687(s2) # 10010d51 <prepareLen>
 1005eb8:	07c2                	slli	a5,a5,0x10
 1005eba:	83c1                	srli	a5,a5,0x10
 1005ebc:	00f51563          	bne	a0,a5,1005ec6 <ATT_PrepareWriteReq+0x38>
 1005ec0:	478d                	li	a5,3
 1005ec2:	0087e363          	bltu	a5,s0,1005ec8 <ATT_PrepareWriteReq+0x3a>
 1005ec6:	a001                	j	1005ec6 <ATT_PrepareWriteReq+0x38>
 1005ec8:	100137b7          	lui	a5,0x10013
 1005ecc:	16078793          	addi	a5,a5,352 # 10013160 <prepareRcv>
 1005ed0:	ffc40613          	addi	a2,s0,-4
 1005ed4:	00448593          	addi	a1,s1,4
 1005ed8:	953e                	add	a0,a0,a5
 1005eda:	0004c983          	lbu	s3,0(s1)
 1005ede:	42d060ef          	jal	ra,100cb0a <memcpy>
 1005ee2:	47dd                	li	a5,23
 1005ee4:	8622                	mv	a2,s0
 1005ee6:	85a6                	mv	a1,s1
 1005ee8:	00110513          	addi	a0,sp,1
 1005eec:	00f10023          	sb	a5,0(sp)
 1005ef0:	41b060ef          	jal	ra,100cb0a <memcpy>
 1005ef4:	00140593          	addi	a1,s0,1
 1005ef8:	0ff5f593          	andi	a1,a1,255
 1005efc:	850a                	mv	a0,sp
 1005efe:	722000ef          	jal	ra,1006620 <ATT_Send>
 1005f02:	100117b7          	lui	a5,0x10011
 1005f06:	d5378923          	sb	s3,-686(a5) # 10010d52 <prepareHandle>
 1005f0a:	d5194783          	lbu	a5,-687(s2)
 1005f0e:	17f1                	addi	a5,a5,-4
 1005f10:	943e                	add	s0,s0,a5
 1005f12:	0ff47413          	andi	s0,s0,255
 1005f16:	d48908a3          	sb	s0,-687(s2)
 1005f1a:	0ff00793          	li	a5,255
 1005f1e:	00f41363          	bne	s0,a5,1005f24 <ATT_PrepareWriteReq+0x96>
 1005f22:	a001                	j	1005f22 <ATT_PrepareWriteReq+0x94>
 1005f24:	6111                	addi	sp,sp,256
 1005f26:	36d0606f          	j	100ca92 <__riscv_restore_4>

01005f2a <ATT_WriteReq>:
ATT_WriteReq():
 1005f2a:	34f062ef          	jal	t0,100ca78 <__riscv_save_0>
 1005f2e:	84aa                	mv	s1,a0
 1005f30:	0015c503          	lbu	a0,1(a1)
 1005f34:	0005c783          	lbu	a5,0(a1)
 1005f38:	1141                	addi	sp,sp,-16
 1005f3a:	0522                	slli	a0,a0,0x8
 1005f3c:	953e                	add	a0,a0,a5
 1005f3e:	0542                	slli	a0,a0,0x10
 1005f40:	8141                	srli	a0,a0,0x10
 1005f42:	842e                	mv	s0,a1
 1005f44:	21a060ef          	jal	ra,100c15e <Find_AttTable_ByHandle>
 1005f48:	02050263          	beqz	a0,1005f6c <ATT_WriteReq+0x42>
 1005f4c:	892a                	mv	s2,a0
 1005f4e:	47cd                	li	a5,19
 1005f50:	4585                	li	a1,1
 1005f52:	0068                	addi	a0,sp,12
 1005f54:	00f10623          	sb	a5,12(sp)
 1005f58:	25e1                	jal	1006620 <ATT_Send>
 1005f5a:	ffe48613          	addi	a2,s1,-2
 1005f5e:	0ff67613          	andi	a2,a2,255
 1005f62:	00240593          	addi	a1,s0,2
 1005f66:	854a                	mv	a0,s2
 1005f68:	2ff050ef          	jal	ra,100ba66 <Write_DataParse>
 1005f6c:	0141                	addi	sp,sp,16
 1005f6e:	32f0606f          	j	100ca9c <__riscv_restore_0>

01005f72 <ATT_ReadReq_ByGroupType>:
ATT_ReadReq_ByGroupType():
 1005f72:	2d7062ef          	jal	t0,100ca48 <__riscv_save_12>
 1005f76:	0015c403          	lbu	s0,1(a1)
 1005f7a:	0005c783          	lbu	a5,0(a1)
 1005f7e:	0035c483          	lbu	s1,3(a1)
 1005f82:	0422                	slli	s0,s0,0x8
 1005f84:	943e                	add	s0,s0,a5
 1005f86:	0025c783          	lbu	a5,2(a1)
 1005f8a:	7129                	addi	sp,sp,-320
 1005f8c:	ffc50613          	addi	a2,a0,-4
 1005f90:	0ff67613          	andi	a2,a2,255
 1005f94:	0591                	addi	a1,a1,4
 1005f96:	04a2                	slli	s1,s1,0x8
 1005f98:	01510513          	addi	a0,sp,21
 1005f9c:	94be                	add	s1,s1,a5
 1005f9e:	00c10a23          	sb	a2,20(sp)
 1005fa2:	369060ef          	jal	ra,100cb0a <memcpy>
 1005fa6:	100057b7          	lui	a5,0x10005
 1005faa:	e417c703          	lbu	a4,-447(a5) # 10004e41 <_sidata+0xeff5269>
 1005fae:	e427c983          	lbu	s3,-446(a5)
 1005fb2:	10000613          	li	a2,256
 1005fb6:	4581                	li	a1,0
 1005fb8:	0442                	slli	s0,s0,0x10
 1005fba:	04c2                	slli	s1,s1,0x10
 1005fbc:	09a2                	slli	s3,s3,0x8
 1005fbe:	0088                	addi	a0,sp,64
 1005fc0:	8041                	srli	s0,s0,0x10
 1005fc2:	80c1                	srli	s1,s1,0x10
 1005fc4:	00e9e9b3          	or	s3,s3,a4
 1005fc8:	3fd060ef          	jal	ra,100cbc4 <memset>
 1005fcc:	0850                	addi	a2,sp,20
 1005fce:	85a6                	mv	a1,s1
 1005fd0:	8522                	mv	a0,s0
 1005fd2:	1ba060ef          	jal	ra,100c18c <Find_AttTable_ByHandleRange_Type>
 1005fd6:	00051a63          	bnez	a0,1005fea <ATT_ReadReq_ByGroupType+0x78>
 1005fda:	4629                	li	a2,10
 1005fdc:	85a2                	mv	a1,s0
 1005fde:	4541                	li	a0,16
 1005fe0:	e23ff0ef          	jal	ra,1005e02 <ATT_SendErrorRsp>
 1005fe4:	6131                	addi	sp,sp,320
 1005fe6:	29f0606f          	j	100ca84 <__riscv_restore_12>
 1005fea:	00855783          	lhu	a5,8(a0)
 1005fee:	4709                	li	a4,2
 1005ff0:	8daa                	mv	s11,a0
 1005ff2:	0ee78b63          	beq	a5,a4,10060e8 <ATT_ReadReq_ByGroupType+0x176>
 1005ff6:	ff078a93          	addi	s5,a5,-16
 1005ffa:	001aba93          	seqz	s5,s5
 1005ffe:	4b81                	li	s7,0
 1006000:	4745                	li	a4,17
 1006002:	0791                	addi	a5,a5,4
 1006004:	6b41                	lui	s6,0x10
 1006006:	04e10023          	sb	a4,64(sp)
 100600a:	04f100a3          	sb	a5,65(sp)
 100600e:	4409                	li	s0,2
 1006010:	1b71                	addi	s6,s6,-4
 1006012:	4cc1                	li	s9,16
 1006014:	0d347563          	bgeu	s0,s3,10060de <ATT_ReadReq_ByGroupType+0x16c>
 1006018:	008ddd03          	lhu	s10,8(s11)
 100601c:	000dda03          	lhu	s4,0(s11)
 1006020:	00cda583          	lw	a1,12(s11)
 1006024:	0ffd7c13          	andi	s8,s10,255
 1006028:	866a                	mv	a2,s10
 100602a:	02d10513          	addi	a0,sp,45
 100602e:	03411423          	sh	s4,40(sp)
 1006032:	03810623          	sb	s8,44(sp)
 1006036:	00440913          	addi	s2,s0,4
 100603a:	2d1060ef          	jal	ra,100cb0a <memcpy>
 100603e:	018907b3          	add	a5,s2,s8
 1006042:	08f9ce63          	blt	s3,a5,10060de <ATT_ReadReq_ByGroupType+0x16c>
 1006046:	001a0513          	addi	a0,s4,1
 100604a:	0542                	slli	a0,a0,0x10
 100604c:	0850                	addi	a2,sp,20
 100604e:	85a6                	mv	a1,s1
 1006050:	8141                	srli	a0,a0,0x10
 1006052:	13a060ef          	jal	ra,100c18c <Find_AttTable_ByHandleRange_Type>
 1006056:	8daa                	mv	s11,a0
 1006058:	87da                	mv	a5,s6
 100605a:	00050463          	beqz	a0,1006062 <ATT_ReadReq_ByGroupType+0xf0>
 100605e:	ff055783          	lhu	a5,-16(a0)
 1006062:	0298                	addi	a4,sp,320
 1006064:	9722                	add	a4,a4,s0
 1006066:	f1470023          	sb	s4,-256(a4)
 100606a:	00140713          	addi	a4,s0,1
 100606e:	0742                	slli	a4,a4,0x10
 1006070:	0294                	addi	a3,sp,320
 1006072:	8341                	srli	a4,a4,0x10
 1006074:	9736                	add	a4,a4,a3
 1006076:	008a5a13          	srli	s4,s4,0x8
 100607a:	f1470023          	sb	s4,-256(a4)
 100607e:	00240713          	addi	a4,s0,2
 1006082:	0742                	slli	a4,a4,0x10
 1006084:	8341                	srli	a4,a4,0x10
 1006086:	040d                	addi	s0,s0,3
 1006088:	9736                	add	a4,a4,a3
 100608a:	0942                	slli	s2,s2,0x10
 100608c:	0442                	slli	s0,s0,0x10
 100608e:	f0f70023          	sb	a5,-256(a4)
 1006092:	02f11523          	sh	a5,42(sp)
 1006096:	0087d713          	srli	a4,a5,0x8
 100609a:	01095913          	srli	s2,s2,0x10
 100609e:	c63e                	sw	a5,12(sp)
 10060a0:	8041                	srli	s0,s0,0x10
 10060a2:	009c                	addi	a5,sp,64
 10060a4:	9436                	add	s0,s0,a3
 10060a6:	01278533          	add	a0,a5,s2
 10060aa:	8662                	mv	a2,s8
 10060ac:	02d10593          	addi	a1,sp,45
 10060b0:	f0e40023          	sb	a4,-256(s0)
 10060b4:	257060ef          	jal	ra,100cb0a <memcpy>
 10060b8:	0ffd7413          	andi	s0,s10,255
 10060bc:	008dd703          	lhu	a4,8(s11)
 10060c0:	9922                	add	s2,s2,s0
 10060c2:	01091413          	slli	s0,s2,0x10
 10060c6:	4689                	li	a3,2
 10060c8:	8041                	srli	s0,s0,0x10
 10060ca:	47b2                	lw	a5,12(sp)
 10060cc:	02d70163          	beq	a4,a3,10060ee <ATT_ReadReq_ByGroupType+0x17c>
 10060d0:	01971363          	bne	a4,s9,10060d6 <ATT_ReadReq_ByGroupType+0x164>
 10060d4:	4a85                	li	s5,1
 10060d6:	01678463          	beq	a5,s6,10060de <ATT_ReadReq_ByGroupType+0x16c>
 10060da:	f35b9de3          	bne	s7,s5,1006014 <ATT_ReadReq_ByGroupType+0xa2>
 10060de:	0ff47593          	andi	a1,s0,255
 10060e2:	0088                	addi	a0,sp,64
 10060e4:	2b35                	jal	1006620 <ATT_Send>
 10060e6:	bdfd                	j	1005fe4 <ATT_ReadReq_ByGroupType+0x72>
 10060e8:	4a81                	li	s5,0
 10060ea:	4b85                	li	s7,1
 10060ec:	bf11                	j	1006000 <ATT_ReadReq_ByGroupType+0x8e>
 10060ee:	4b85                	li	s7,1
 10060f0:	b7dd                	j	10060d6 <ATT_ReadReq_ByGroupType+0x164>

010060f2 <ATT_ReadBlobReq>:
ATT_ReadBlobReq():
 10060f2:	187062ef          	jal	t0,100ca78 <__riscv_save_0>
 10060f6:	00154403          	lbu	s0,1(a0)
 10060fa:	00054583          	lbu	a1,0(a0)
 10060fe:	00254783          	lbu	a5,2(a0)
 1006102:	0422                	slli	s0,s0,0x8
 1006104:	942e                	add	s0,s0,a1
 1006106:	00354583          	lbu	a1,3(a0)
 100610a:	0442                	slli	s0,s0,0x10
 100610c:	8041                	srli	s0,s0,0x10
 100610e:	05a2                	slli	a1,a1,0x8
 1006110:	95be                	add	a1,a1,a5
 1006112:	05c2                	slli	a1,a1,0x10
 1006114:	1141                	addi	sp,sp,-16
 1006116:	81c1                	srli	a1,a1,0x10
 1006118:	8522                	mv	a0,s0
 100611a:	c62e                	sw	a1,12(sp)
 100611c:	042060ef          	jal	ra,100c15e <Find_AttTable_ByHandle>
 1006120:	02050263          	beqz	a0,1006144 <ATT_ReadBlobReq+0x52>
 1006124:	00855783          	lhu	a5,8(a0)
 1006128:	45b2                	lw	a1,12(sp)
 100612a:	00b7e763          	bltu	a5,a1,1006138 <ATT_ReadBlobReq+0x46>
 100612e:	015050ef          	jal	ra,100b942 <Read_Blob_Parse>
 1006132:	0141                	addi	sp,sp,16
 1006134:	1690606f          	j	100ca9c <__riscv_restore_0>
 1006138:	462d                	li	a2,11
 100613a:	85a2                	mv	a1,s0
 100613c:	4531                	li	a0,12
 100613e:	cc5ff0ef          	jal	ra,1005e02 <ATT_SendErrorRsp>
 1006142:	bfc5                	j	1006132 <ATT_ReadBlobReq+0x40>
 1006144:	4629                	li	a2,10
 1006146:	bfd5                	j	100613a <ATT_ReadBlobReq+0x48>

01006148 <ATT_ReadReq>:
ATT_ReadReq():
 1006148:	131062ef          	jal	t0,100ca78 <__riscv_save_0>
 100614c:	00154583          	lbu	a1,1(a0)
 1006150:	00054783          	lbu	a5,0(a0)
 1006154:	1141                	addi	sp,sp,-16
 1006156:	05a2                	slli	a1,a1,0x8
 1006158:	95be                	add	a1,a1,a5
 100615a:	05c2                	slli	a1,a1,0x10
 100615c:	81c1                	srli	a1,a1,0x10
 100615e:	852e                	mv	a0,a1
 1006160:	c62e                	sw	a1,12(sp)
 1006162:	7fd050ef          	jal	ra,100c15e <Find_AttTable_ByHandle>
 1006166:	45b2                	lw	a1,12(sp)
 1006168:	00050763          	beqz	a0,1006176 <ATT_ReadReq+0x2e>
 100616c:	045050ef          	jal	ra,100b9b0 <Read_Parse>
 1006170:	0141                	addi	sp,sp,16
 1006172:	12b0606f          	j	100ca9c <__riscv_restore_0>
 1006176:	4629                	li	a2,10
 1006178:	4529                	li	a0,10
 100617a:	c89ff0ef          	jal	ra,1005e02 <ATT_SendErrorRsp>
 100617e:	bfcd                	j	1006170 <ATT_ReadReq+0x28>

01006180 <ATT_ReadReq_ByType>:
ATT_ReadReq_ByType():
 1006180:	0df062ef          	jal	t0,100ca5e <__riscv_save_4>
 1006184:	0015c483          	lbu	s1,1(a1)
 1006188:	0005c783          	lbu	a5,0(a1)
 100618c:	0035ca03          	lbu	s4,3(a1)
 1006190:	04a2                	slli	s1,s1,0x8
 1006192:	94be                	add	s1,s1,a5
 1006194:	0025c783          	lbu	a5,2(a1)
 1006198:	712d                	addi	sp,sp,-288
 100619a:	ffc50613          	addi	a2,a0,-4
 100619e:	0ff67613          	andi	a2,a2,255
 10061a2:	0591                	addi	a1,a1,4
 10061a4:	0a22                	slli	s4,s4,0x8
 10061a6:	00d10513          	addi	a0,sp,13
 10061aa:	9a3e                	add	s4,s4,a5
 10061ac:	00c10623          	sb	a2,12(sp)
 10061b0:	15b060ef          	jal	ra,100cb0a <memcpy>
 10061b4:	100057b7          	lui	a5,0x10005
 10061b8:	e417c903          	lbu	s2,-447(a5) # 10004e41 <_sidata+0xeff5269>
 10061bc:	10000613          	li	a2,256
 10061c0:	4581                	li	a1,0
 10061c2:	04c2                	slli	s1,s1,0x10
 10061c4:	0a42                	slli	s4,s4,0x10
 10061c6:	1008                	addi	a0,sp,32
 10061c8:	80c1                	srli	s1,s1,0x10
 10061ca:	010a5a13          	srli	s4,s4,0x10
 10061ce:	0ff97993          	andi	s3,s2,255
 10061d2:	e427c903          	lbu	s2,-446(a5)
 10061d6:	1ef060ef          	jal	ra,100cbc4 <memset>
 10061da:	0070                	addi	a2,sp,12
 10061dc:	85d2                	mv	a1,s4
 10061de:	8526                	mv	a0,s1
 10061e0:	7ad050ef          	jal	ra,100c18c <Find_AttTable_ByHandleRange_Type>
 10061e4:	00051a63          	bnez	a0,10061f8 <ATT_ReadReq_ByType+0x78>
 10061e8:	4629                	li	a2,10
 10061ea:	85a6                	mv	a1,s1
 10061ec:	4521                	li	a0,8
 10061ee:	c15ff0ef          	jal	ra,1005e02 <ATT_SendErrorRsp>
 10061f2:	6115                	addi	sp,sp,288
 10061f4:	09f0606f          	j	100ca92 <__riscv_restore_4>
 10061f8:	0100f5b7          	lui	a1,0x100f
 10061fc:	842a                	mv	s0,a0
 10061fe:	4609                	li	a2,2
 1006200:	15c58593          	addi	a1,a1,348 # 100f15c <GATT_CHARACTERISTIC>
 1006204:	00d10513          	addi	a0,sp,13
 1006208:	0dd060ef          	jal	ra,100cae4 <memcmp>
 100620c:	0c051e63          	bnez	a0,10062e8 <ATT_ReadReq_ByType+0x168>
 1006210:	47a5                	li	a5,9
 1006212:	02f10023          	sb	a5,32(sp)
 1006216:	01244783          	lbu	a5,18(s0)
 100621a:	0ff97913          	andi	s2,s2,255
 100621e:	0922                	slli	s2,s2,0x8
 1006220:	0795                	addi	a5,a5,5
 1006222:	01396933          	or	s2,s2,s3
 1006226:	02f100a3          	sb	a5,33(sp)
 100622a:	4489                	li	s1,2
 100622c:	0b24f963          	bgeu	s1,s2,10062de <ATT_ReadReq_ByType+0x15e>
 1006230:	01244783          	lbu	a5,18(s0)
 1006234:	00548993          	addi	s3,s1,5
 1006238:	97ce                	add	a5,a5,s3
 100623a:	0af94263          	blt	s2,a5,10062de <ATT_ReadReq_ByType+0x15e>
 100623e:	00045703          	lhu	a4,0(s0)
 1006242:	121c                	addi	a5,sp,288
 1006244:	97a6                	add	a5,a5,s1
 1006246:	f0e78023          	sb	a4,-256(a5)
 100624a:	00148793          	addi	a5,s1,1
 100624e:	07c2                	slli	a5,a5,0x10
 1006250:	1218                	addi	a4,sp,288
 1006252:	83c1                	srli	a5,a5,0x10
 1006254:	97ba                	add	a5,a5,a4
 1006256:	00045703          	lhu	a4,0(s0)
 100625a:	1214                	addi	a3,sp,288
 100625c:	09c2                	slli	s3,s3,0x10
 100625e:	8321                	srli	a4,a4,0x8
 1006260:	f0e78023          	sb	a4,-256(a5)
 1006264:	445c                	lw	a5,12(s0)
 1006266:	0109d993          	srli	s3,s3,0x10
 100626a:	0007c703          	lbu	a4,0(a5)
 100626e:	00248793          	addi	a5,s1,2
 1006272:	07c2                	slli	a5,a5,0x10
 1006274:	83c1                	srli	a5,a5,0x10
 1006276:	97b6                	add	a5,a5,a3
 1006278:	f0e78023          	sb	a4,-256(a5)
 100627c:	00044703          	lbu	a4,0(s0)
 1006280:	00348793          	addi	a5,s1,3
 1006284:	07c2                	slli	a5,a5,0x10
 1006286:	83c1                	srli	a5,a5,0x10
 1006288:	97b6                	add	a5,a5,a3
 100628a:	0705                	addi	a4,a4,1
 100628c:	f0e78023          	sb	a4,-256(a5)
 1006290:	00045783          	lhu	a5,0(s0)
 1006294:	0491                	addi	s1,s1,4
 1006296:	04c2                	slli	s1,s1,0x10
 1006298:	80c1                	srli	s1,s1,0x10
 100629a:	0785                	addi	a5,a5,1
 100629c:	94b6                	add	s1,s1,a3
 100629e:	87a1                	srai	a5,a5,0x8
 10062a0:	f0f48023          	sb	a5,-256(s1)
 10062a4:	01244603          	lbu	a2,18(s0)
 10062a8:	484c                	lw	a1,20(s0)
 10062aa:	101c                	addi	a5,sp,32
 10062ac:	01378533          	add	a0,a5,s3
 10062b0:	05b060ef          	jal	ra,100cb0a <memcpy>
 10062b4:	00045503          	lhu	a0,0(s0)
 10062b8:	01244483          	lbu	s1,18(s0)
 10062bc:	0070                	addi	a2,sp,12
 10062be:	0509                	addi	a0,a0,2
 10062c0:	0542                	slli	a0,a0,0x10
 10062c2:	94ce                	add	s1,s1,s3
 10062c4:	85d2                	mv	a1,s4
 10062c6:	8141                	srli	a0,a0,0x10
 10062c8:	04c2                	slli	s1,s1,0x10
 10062ca:	6c3050ef          	jal	ra,100c18c <Find_AttTable_ByHandleRange_Type>
 10062ce:	80c1                	srli	s1,s1,0x10
 10062d0:	842a                	mv	s0,a0
 10062d2:	00050663          	beqz	a0,10062de <ATT_ReadReq_ByType+0x15e>
 10062d6:	00055783          	lhu	a5,0(a0)
 10062da:	f54799e3          	bne	a5,s4,100622c <ATT_ReadReq_ByType+0xac>
 10062de:	0ff4f593          	andi	a1,s1,255
 10062e2:	1008                	addi	a0,sp,32
 10062e4:	2e35                	jal	1006620 <ATT_Send>
 10062e6:	b731                	j	10061f2 <ATT_ReadReq_ByType+0x72>
 10062e8:	0100f5b7          	lui	a1,0x100f
 10062ec:	4609                	li	a2,2
 10062ee:	15858593          	addi	a1,a1,344 # 100f158 <GATT_INCLUDE>
 10062f2:	00d10513          	addi	a0,sp,13
 10062f6:	7ee060ef          	jal	ra,100cae4 <memcmp>
 10062fa:	00845603          	lhu	a2,8(s0)
 10062fe:	4725                	li	a4,9
 1006300:	444c                	lw	a1,12(s0)
 1006302:	02e10023          	sb	a4,32(sp)
 1006306:	0ff67793          	andi	a5,a2,255
 100630a:	08051d63          	bnez	a0,10063a4 <ATT_ReadReq_ByType+0x224>
 100630e:	0799                	addi	a5,a5,6
 1006310:	02f100a3          	sb	a5,33(sp)
 1006314:	00045783          	lhu	a5,0(s0)
 1006318:	1028                	addi	a0,sp,40
 100631a:	02f10123          	sb	a5,34(sp)
 100631e:	00045783          	lhu	a5,0(s0)
 1006322:	83a1                	srli	a5,a5,0x8
 1006324:	02f101a3          	sb	a5,35(sp)
 1006328:	7e2060ef          	jal	ra,100cb0a <memcpy>
 100632c:	4789                	li	a5,2
 100632e:	00f10623          	sb	a5,12(sp)
 1006332:	0100f7b7          	lui	a5,0x100f
 1006336:	15478793          	addi	a5,a5,340 # 100f154 <PRIMARY_SERVICE>
 100633a:	0007c683          	lbu	a3,0(a5)
 100633e:	00845703          	lhu	a4,8(s0)
 1006342:	0017c783          	lbu	a5,1(a5)
 1006346:	00d106a3          	sb	a3,13(sp)
 100634a:	4454                	lw	a3,12(s0)
 100634c:	6441                	lui	s0,0x10
 100634e:	00870493          	addi	s1,a4,8
 1006352:	0070                	addi	a2,sp,12
 1006354:	0ff77713          	andi	a4,a4,255
 1006358:	ffc40593          	addi	a1,s0,-4 # fffc <__EN_MIE-0xff0082>
 100635c:	4505                	li	a0,1
 100635e:	00f10723          	sb	a5,14(sp)
 1006362:	69d050ef          	jal	ra,100c1fe <Find_AttTable_ByHandleRange_Type_Data>
 1006366:	00055783          	lhu	a5,0(a0)
 100636a:	0070                	addi	a2,sp,12
 100636c:	ffc40593          	addi	a1,s0,-4
 1006370:	02f10223          	sb	a5,36(sp)
 1006374:	00055783          	lhu	a5,0(a0)
 1006378:	04c2                	slli	s1,s1,0x10
 100637a:	80c1                	srli	s1,s1,0x10
 100637c:	83a1                	srli	a5,a5,0x8
 100637e:	02f102a3          	sb	a5,37(sp)
 1006382:	00055503          	lhu	a0,0(a0)
 1006386:	0505                	addi	a0,a0,1
 1006388:	0542                	slli	a0,a0,0x10
 100638a:	8141                	srli	a0,a0,0x10
 100638c:	601050ef          	jal	ra,100c18c <Find_AttTable_ByHandleRange_Type>
 1006390:	ff055783          	lhu	a5,-16(a0)
 1006394:	02f10323          	sb	a5,38(sp)
 1006398:	ff055783          	lhu	a5,-16(a0)
 100639c:	83a1                	srli	a5,a5,0x8
 100639e:	02f103a3          	sb	a5,39(sp)
 10063a2:	bf35                	j	10062de <ATT_ReadReq_ByType+0x15e>
 10063a4:	0789                	addi	a5,a5,2
 10063a6:	02f100a3          	sb	a5,33(sp)
 10063aa:	00045783          	lhu	a5,0(s0)
 10063ae:	1048                	addi	a0,sp,36
 10063b0:	02f10123          	sb	a5,34(sp)
 10063b4:	00045783          	lhu	a5,0(s0)
 10063b8:	83a1                	srli	a5,a5,0x8
 10063ba:	02f101a3          	sb	a5,35(sp)
 10063be:	74c060ef          	jal	ra,100cb0a <memcpy>
 10063c2:	00845483          	lhu	s1,8(s0)
 10063c6:	0491                	addi	s1,s1,4
 10063c8:	04c2                	slli	s1,s1,0x10
 10063ca:	80c1                	srli	s1,s1,0x10
 10063cc:	bf09                	j	10062de <ATT_ReadReq_ByType+0x15e>

010063ce <ATT_Find_ByType_Value>:
ATT_Find_ByType_Value():
 10063ce:	6aa062ef          	jal	t0,100ca78 <__riscv_save_0>
 10063d2:	0015c483          	lbu	s1,1(a1)
 10063d6:	0005c783          	lbu	a5,0(a1)
 10063da:	0035c403          	lbu	s0,3(a1)
 10063de:	04a2                	slli	s1,s1,0x8
 10063e0:	94be                	add	s1,s1,a5
 10063e2:	0025c783          	lbu	a5,2(a1)
 10063e6:	0422                	slli	s0,s0,0x8
 10063e8:	1101                	addi	sp,sp,-32
 10063ea:	943e                	add	s0,s0,a5
 10063ec:	4789                	li	a5,2
 10063ee:	00f10623          	sb	a5,12(sp)
 10063f2:	0045c783          	lbu	a5,4(a1)
 10063f6:	04c2                	slli	s1,s1,0x10
 10063f8:	0442                	slli	s0,s0,0x10
 10063fa:	00f106a3          	sb	a5,13(sp)
 10063fe:	0055c783          	lbu	a5,5(a1)
 1006402:	ffa50713          	addi	a4,a0,-6
 1006406:	80c1                	srli	s1,s1,0x10
 1006408:	8041                	srli	s0,s0,0x10
 100640a:	00658693          	addi	a3,a1,6
 100640e:	0ff77713          	andi	a4,a4,255
 1006412:	0070                	addi	a2,sp,12
 1006414:	85a2                	mv	a1,s0
 1006416:	8526                	mv	a0,s1
 1006418:	00f10723          	sb	a5,14(sp)
 100641c:	c202                	sw	zero,4(sp)
 100641e:	00010423          	sb	zero,8(sp)
 1006422:	5dd050ef          	jal	ra,100c1fe <Find_AttTable_ByHandleRange_Type_Data>
 1006426:	00051a63          	bnez	a0,100643a <ATT_Find_ByType_Value+0x6c>
 100642a:	4629                	li	a2,10
 100642c:	85a6                	mv	a1,s1
 100642e:	4511                	li	a0,4
 1006430:	9d3ff0ef          	jal	ra,1005e02 <ATT_SendErrorRsp>
 1006434:	6105                	addi	sp,sp,32
 1006436:	6660606f          	j	100ca9c <__riscv_restore_0>
 100643a:	479d                	li	a5,7
 100643c:	00f10223          	sb	a5,4(sp)
 1006440:	00055503          	lhu	a0,0(a0)
 1006444:	0070                	addi	a2,sp,12
 1006446:	85a2                	mv	a1,s0
 1006448:	00855793          	srli	a5,a0,0x8
 100644c:	00a102a3          	sb	a0,5(sp)
 1006450:	0505                	addi	a0,a0,1
 1006452:	0542                	slli	a0,a0,0x10
 1006454:	8141                	srli	a0,a0,0x10
 1006456:	00f10323          	sb	a5,6(sp)
 100645a:	533050ef          	jal	ra,100c18c <Find_AttTable_ByHandleRange_Type>
 100645e:	00051c63          	bnez	a0,1006476 <ATT_Find_ByType_Value+0xa8>
 1006462:	57f1                	li	a5,-4
 1006464:	00f103a3          	sb	a5,7(sp)
 1006468:	57fd                	li	a5,-1
 100646a:	4595                	li	a1,5
 100646c:	0048                	addi	a0,sp,4
 100646e:	00f10423          	sb	a5,8(sp)
 1006472:	227d                	jal	1006620 <ATT_Send>
 1006474:	b7c1                	j	1006434 <ATT_Find_ByType_Value+0x66>
 1006476:	ff055783          	lhu	a5,-16(a0)
 100647a:	00f103a3          	sb	a5,7(sp)
 100647e:	83a1                	srli	a5,a5,0x8
 1006480:	b7ed                	j	100646a <ATT_Find_ByType_Value+0x9c>

01006482 <ATT_FindInformationReq>:
ATT_FindInformationReq():
 1006482:	5dc062ef          	jal	t0,100ca5e <__riscv_save_4>
 1006486:	00154403          	lbu	s0,1(a0)
 100648a:	00054783          	lbu	a5,0(a0)
 100648e:	00254703          	lbu	a4,2(a0)
 1006492:	0422                	slli	s0,s0,0x8
 1006494:	943e                	add	s0,s0,a5
 1006496:	00354783          	lbu	a5,3(a0)
 100649a:	7111                	addi	sp,sp,-256
 100649c:	0442                	slli	s0,s0,0x10
 100649e:	07a2                	slli	a5,a5,0x8
 10064a0:	97ba                	add	a5,a5,a4
 10064a2:	01079993          	slli	s3,a5,0x10
 10064a6:	100057b7          	lui	a5,0x10005
 10064aa:	e417c703          	lbu	a4,-447(a5) # 10004e41 <_sidata+0xeff5269>
 10064ae:	e427ca03          	lbu	s4,-446(a5)
 10064b2:	10000613          	li	a2,256
 10064b6:	4581                	li	a1,0
 10064b8:	0a22                	slli	s4,s4,0x8
 10064ba:	850a                	mv	a0,sp
 10064bc:	8041                	srli	s0,s0,0x10
 10064be:	00ea6a33          	or	s4,s4,a4
 10064c2:	702060ef          	jal	ra,100cbc4 <memset>
 10064c6:	8522                	mv	a0,s0
 10064c8:	497050ef          	jal	ra,100c15e <Find_AttTable_ByHandle>
 10064cc:	00051a63          	bnez	a0,10064e0 <ATT_FindInformationReq+0x5e>
 10064d0:	4629                	li	a2,10
 10064d2:	85a2                	mv	a1,s0
 10064d4:	4511                	li	a0,4
 10064d6:	92dff0ef          	jal	ra,1005e02 <ATT_SendErrorRsp>
 10064da:	6111                	addi	sp,sp,256
 10064dc:	5b60606f          	j	100ca92 <__riscv_restore_4>
 10064e0:	4795                	li	a5,5
 10064e2:	00f10023          	sb	a5,0(sp)
 10064e6:	00254683          	lbu	a3,2(a0)
 10064ea:	4741                	li	a4,16
 10064ec:	0109d993          	srli	s3,s3,0x10
 10064f0:	84aa                	mv	s1,a0
 10064f2:	4789                	li	a5,2
 10064f4:	00e68363          	beq	a3,a4,10064fa <ATT_FindInformationReq+0x78>
 10064f8:	4785                	li	a5,1
 10064fa:	00f100a3          	sb	a5,1(sp)
 10064fe:	4409                	li	s0,2
 1006500:	07447563          	bgeu	s0,s4,100656a <ATT_FindInformationReq+0xe8>
 1006504:	0024c783          	lbu	a5,2(s1)
 1006508:	00240913          	addi	s2,s0,2
 100650c:	97ca                	add	a5,a5,s2
 100650e:	04fa4e63          	blt	s4,a5,100656a <ATT_FindInformationReq+0xe8>
 1006512:	0004d703          	lhu	a4,0(s1)
 1006516:	00140593          	addi	a1,s0,1
 100651a:	021c                	addi	a5,sp,256
 100651c:	97a2                	add	a5,a5,s0
 100651e:	05c2                	slli	a1,a1,0x10
 1006520:	f0e78023          	sb	a4,-256(a5)
 1006524:	81c1                	srli	a1,a1,0x10
 1006526:	021c                	addi	a5,sp,256
 1006528:	95be                	add	a1,a1,a5
 100652a:	0004d783          	lhu	a5,0(s1)
 100652e:	0942                	slli	s2,s2,0x10
 1006530:	01095913          	srli	s2,s2,0x10
 1006534:	83a1                	srli	a5,a5,0x8
 1006536:	f0f58023          	sb	a5,-256(a1)
 100653a:	0024c603          	lbu	a2,2(s1)
 100653e:	40cc                	lw	a1,4(s1)
 1006540:	01210533          	add	a0,sp,s2
 1006544:	5c6060ef          	jal	ra,100cb0a <memcpy>
 1006548:	0024c403          	lbu	s0,2(s1)
 100654c:	0004d503          	lhu	a0,0(s1)
 1006550:	944a                	add	s0,s0,s2
 1006552:	0442                	slli	s0,s0,0x10
 1006554:	8041                	srli	s0,s0,0x10
 1006556:	01357a63          	bgeu	a0,s3,100656a <ATT_FindInformationReq+0xe8>
 100655a:	0505                	addi	a0,a0,1
 100655c:	0542                	slli	a0,a0,0x10
 100655e:	8141                	srli	a0,a0,0x10
 1006560:	3ff050ef          	jal	ra,100c15e <Find_AttTable_ByHandle>
 1006564:	84aa                	mv	s1,a0
 1006566:	f8051de3          	bnez	a0,1006500 <ATT_FindInformationReq+0x7e>
 100656a:	0ff47593          	andi	a1,s0,255
 100656e:	850a                	mv	a0,sp
 1006570:	2845                	jal	1006620 <ATT_Send>
 1006572:	b7a5                	j	10064da <ATT_FindInformationReq+0x58>

01006574 <ATT_UpdateMtu>:
ATT_UpdateMtu():
 1006574:	504062ef          	jal	t0,100ca78 <__riscv_save_0>
 1006578:	842e                	mv	s0,a1
 100657a:	86ae                	mv	a3,a1
 100657c:	862a                	mv	a2,a0
 100657e:	84aa                	mv	s1,a0
 1006580:	0100d5b7          	lui	a1,0x100d
 1006584:	0100d537          	lui	a0,0x100d
 1006588:	68058593          	addi	a1,a1,1664 # 100d680 <AAP_StopAnc4+0x284>
 100658c:	68850513          	addi	a0,a0,1672 # 100d688 <AAP_StopAnc4+0x28c>
 1006590:	9c8fb0ef          	jal	ra,1001758 <print_string_log>
 1006594:	0ff47793          	andi	a5,s0,255
 1006598:	00946463          	bltu	s0,s1,10065a0 <ATT_UpdateMtu+0x2c>
 100659c:	0ff4f793          	andi	a5,s1,255
 10065a0:	10005737          	lui	a4,0x10005
 10065a4:	e4f700a3          	sb	a5,-447(a4) # 10004e41 <_sidata+0xeff5269>
 10065a8:	87a6                	mv	a5,s1
 10065aa:	00947363          	bgeu	s0,s1,10065b0 <ATT_UpdateMtu+0x3c>
 10065ae:	87a2                	mv	a5,s0
 10065b0:	07c2                	slli	a5,a5,0x10
 10065b2:	83c1                	srli	a5,a5,0x10
 10065b4:	83a1                	srli	a5,a5,0x8
 10065b6:	10005737          	lui	a4,0x10005
 10065ba:	e4f70123          	sb	a5,-446(a4) # 10004e42 <_sidata+0xeff526a>
 10065be:	4de0606f          	j	100ca9c <__riscv_restore_0>

010065c2 <ATT_ExchangeMtuReq>:
ATT_ExchangeMtuReq():
 10065c2:	4b6062ef          	jal	t0,100ca78 <__riscv_save_0>
 10065c6:	1141                	addi	sp,sp,-16
 10065c8:	00011623          	sh	zero,12(sp)
 10065cc:	478d                	li	a5,3
 10065ce:	10005437          	lui	s0,0x10005
 10065d2:	00010723          	sb	zero,14(sp)
 10065d6:	00f10623          	sb	a5,12(sp)
 10065da:	96644783          	lbu	a5,-1690(s0) # 10004966 <_sidata+0xeff4d8e>
 10065de:	96744703          	lbu	a4,-1689(s0)
 10065e2:	84aa                	mv	s1,a0
 10065e4:	00f106a3          	sb	a5,13(sp)
 10065e8:	96644783          	lbu	a5,-1690(s0)
 10065ec:	96744783          	lbu	a5,-1689(s0)
 10065f0:	0068                	addi	a0,sp,12
 10065f2:	458d                	li	a1,3
 10065f4:	00f10723          	sb	a5,14(sp)
 10065f8:	2025                	jal	1006620 <ATT_Send>
 10065fa:	0014c503          	lbu	a0,1(s1)
 10065fe:	0004c703          	lbu	a4,0(s1)
 1006602:	96644583          	lbu	a1,-1690(s0)
 1006606:	96744783          	lbu	a5,-1689(s0)
 100660a:	0522                	slli	a0,a0,0x8
 100660c:	953a                	add	a0,a0,a4
 100660e:	07a2                	slli	a5,a5,0x8
 1006610:	0542                	slli	a0,a0,0x10
 1006612:	8ddd                	or	a1,a1,a5
 1006614:	8141                	srli	a0,a0,0x10
 1006616:	f5fff0ef          	jal	ra,1006574 <ATT_UpdateMtu>
 100661a:	0141                	addi	sp,sp,16
 100661c:	4800606f          	j	100ca9c <__riscv_restore_0>

01006620 <ATT_Send>:
ATT_Send():
 1006620:	458062ef          	jal	t0,100ca78 <__riscv_save_0>
 1006624:	1141                	addi	sp,sp,-16
 1006626:	842a                	mv	s0,a0
 1006628:	c62e                	sw	a1,12(sp)
 100662a:	b13fe0ef          	jal	ra,100513c <bt_check_le_connected>
 100662e:	00050663          	beqz	a0,100663a <ATT_Send+0x1a>
 1006632:	45b2                	lw	a1,12(sp)
 1006634:	8522                	mv	a0,s0
 1006636:	ad0fe0ef          	jal	ra,1004906 <Bt_BleSendData>
 100663a:	0141                	addi	sp,sp,16
 100663c:	4600606f          	j	100ca9c <__riscv_restore_0>

01006640 <ATT_sendNotify>:
ATT_sendNotify():
 1006640:	438062ef          	jal	t0,100ca78 <__riscv_save_0>
 1006644:	7111                	addi	sp,sp,-256
 1006646:	84aa                	mv	s1,a0
 1006648:	892e                	mv	s2,a1
 100664a:	8432                	mv	s0,a2
 100664c:	af1fe0ef          	jal	ra,100513c <bt_check_le_connected>
 1006650:	02050e63          	beqz	a0,100668c <ATT_sendNotify+0x4c>
 1006654:	0fe00613          	li	a2,254
 1006658:	4581                	li	a1,0
 100665a:	00210513          	addi	a0,sp,2
 100665e:	566060ef          	jal	ra,100cbc4 <memset>
 1006662:	47ed                	li	a5,27
 1006664:	009100a3          	sb	s1,1(sp)
 1006668:	85ca                	mv	a1,s2
 100666a:	80a1                	srli	s1,s1,0x8
 100666c:	8622                	mv	a2,s0
 100666e:	00310513          	addi	a0,sp,3
 1006672:	00f10023          	sb	a5,0(sp)
 1006676:	00910123          	sb	s1,2(sp)
 100667a:	490060ef          	jal	ra,100cb0a <memcpy>
 100667e:	00340593          	addi	a1,s0,3
 1006682:	0ff5f593          	andi	a1,a1,255
 1006686:	850a                	mv	a0,sp
 1006688:	f99ff0ef          	jal	ra,1006620 <ATT_Send>
 100668c:	6111                	addi	sp,sp,256
 100668e:	40e0606f          	j	100ca9c <__riscv_restore_0>

01006692 <ATT_Parse>:
ATT_Parse():
 1006692:	3e6062ef          	jal	t0,100ca78 <__riscv_save_0>
 1006696:	0005c603          	lbu	a2,0(a1)
 100669a:	47a9                	li	a5,10
 100669c:	0ef60063          	beq	a2,a5,100677c <ATT_Parse+0xea>
 10066a0:	04c7e563          	bltu	a5,a2,10066ea <ATT_Parse+0x58>
 10066a4:	4791                	li	a5,4
 10066a6:	0af60f63          	beq	a2,a5,1006764 <ATT_Parse+0xd2>
 10066aa:	02c7e363          	bltu	a5,a2,10066d0 <ATT_Parse+0x3e>
 10066ae:	4789                	li	a5,2
 10066b0:	08f60063          	beq	a2,a5,1006730 <ATT_Parse+0x9e>
 10066b4:	478d                	li	a5,3
 10066b6:	08f60363          	beq	a2,a5,100673c <ATT_Parse+0xaa>
 10066ba:	0100d5b7          	lui	a1,0x100d
 10066be:	0100d537          	lui	a0,0x100d
 10066c2:	68058593          	addi	a1,a1,1664 # 100d680 <AAP_StopAnc4+0x284>
 10066c6:	6c050513          	addi	a0,a0,1728 # 100d6c0 <AAP_StopAnc4+0x2c4>
 10066ca:	88efb0ef          	jal	ra,1001758 <print_string_log>
 10066ce:	a0ad                	j	1006738 <ATT_Parse+0xa6>
 10066d0:	4799                	li	a5,6
 10066d2:	08f60e63          	beq	a2,a5,100676e <ATT_Parse+0xdc>
 10066d6:	47a1                	li	a5,8
 10066d8:	fef611e3          	bne	a2,a5,10066ba <ATT_Parse+0x28>
 10066dc:	157d                	addi	a0,a0,-1
 10066de:	0585                	addi	a1,a1,1
 10066e0:	0ff57513          	andi	a0,a0,255
 10066e4:	a9dff0ef          	jal	ra,1006180 <ATT_ReadReq_ByType>
 10066e8:	a881                	j	1006738 <ATT_Parse+0xa6>
 10066ea:	47c9                	li	a5,18
 10066ec:	0af60263          	beq	a2,a5,1006790 <ATT_Parse+0xfe>
 10066f0:	00c7ef63          	bltu	a5,a2,100670e <ATT_Parse+0x7c>
 10066f4:	47b1                	li	a5,12
 10066f6:	08f60863          	beq	a2,a5,1006786 <ATT_Parse+0xf4>
 10066fa:	47c1                	li	a5,16
 10066fc:	faf61fe3          	bne	a2,a5,10066ba <ATT_Parse+0x28>
 1006700:	157d                	addi	a0,a0,-1
 1006702:	0585                	addi	a1,a1,1
 1006704:	0ff57513          	andi	a0,a0,255
 1006708:	86bff0ef          	jal	ra,1005f72 <ATT_ReadReq_ByGroupType>
 100670c:	a035                	j	1006738 <ATT_Parse+0xa6>
 100670e:	47e1                	li	a5,24
 1006710:	08f60763          	beq	a2,a5,100679e <ATT_Parse+0x10c>
 1006714:	05200793          	li	a5,82
 1006718:	08f60663          	beq	a2,a5,10067a4 <ATT_Parse+0x112>
 100671c:	47d9                	li	a5,22
 100671e:	f8f61ee3          	bne	a2,a5,10066ba <ATT_Parse+0x28>
 1006722:	157d                	addi	a0,a0,-1
 1006724:	0585                	addi	a1,a1,1
 1006726:	0ff57513          	andi	a0,a0,255
 100672a:	f64ff0ef          	jal	ra,1005e8e <ATT_PrepareWriteReq>
 100672e:	a029                	j	1006738 <ATT_Parse+0xa6>
 1006730:	00158513          	addi	a0,a1,1
 1006734:	e8fff0ef          	jal	ra,10065c2 <ATT_ExchangeMtuReq>
 1006738:	3640606f          	j	100ca9c <__riscv_restore_0>
 100673c:	0025c503          	lbu	a0,2(a1)
 1006740:	0015c683          	lbu	a3,1(a1)
 1006744:	100057b7          	lui	a5,0x10005
 1006748:	9667c703          	lbu	a4,-1690(a5) # 10004966 <_sidata+0xeff4d8e>
 100674c:	9677c783          	lbu	a5,-1689(a5)
 1006750:	0522                	slli	a0,a0,0x8
 1006752:	9536                	add	a0,a0,a3
 1006754:	07a2                	slli	a5,a5,0x8
 1006756:	0542                	slli	a0,a0,0x10
 1006758:	00e7e5b3          	or	a1,a5,a4
 100675c:	8141                	srli	a0,a0,0x10
 100675e:	e17ff0ef          	jal	ra,1006574 <ATT_UpdateMtu>
 1006762:	bfd9                	j	1006738 <ATT_Parse+0xa6>
 1006764:	00158513          	addi	a0,a1,1
 1006768:	d1bff0ef          	jal	ra,1006482 <ATT_FindInformationReq>
 100676c:	b7f1                	j	1006738 <ATT_Parse+0xa6>
 100676e:	157d                	addi	a0,a0,-1
 1006770:	0585                	addi	a1,a1,1
 1006772:	0ff57513          	andi	a0,a0,255
 1006776:	c59ff0ef          	jal	ra,10063ce <ATT_Find_ByType_Value>
 100677a:	bf7d                	j	1006738 <ATT_Parse+0xa6>
 100677c:	00158513          	addi	a0,a1,1
 1006780:	9c9ff0ef          	jal	ra,1006148 <ATT_ReadReq>
 1006784:	bf55                	j	1006738 <ATT_Parse+0xa6>
 1006786:	00158513          	addi	a0,a1,1
 100678a:	969ff0ef          	jal	ra,10060f2 <ATT_ReadBlobReq>
 100678e:	b76d                	j	1006738 <ATT_Parse+0xa6>
 1006790:	157d                	addi	a0,a0,-1
 1006792:	0585                	addi	a1,a1,1
 1006794:	0ff57513          	andi	a0,a0,255
 1006798:	f92ff0ef          	jal	ra,1005f2a <ATT_WriteReq>
 100679c:	bf71                	j	1006738 <ATT_Parse+0xa6>
 100679e:	eaaff0ef          	jal	ra,1005e48 <ATT_ExecuteWriteReq>
 10067a2:	bf59                	j	1006738 <ATT_Parse+0xa6>
 10067a4:	ffd50613          	addi	a2,a0,-3
 10067a8:	0025c503          	lbu	a0,2(a1)
 10067ac:	0015c783          	lbu	a5,1(a1)
 10067b0:	0ff67613          	andi	a2,a2,255
 10067b4:	0522                	slli	a0,a0,0x8
 10067b6:	953e                	add	a0,a0,a5
 10067b8:	0542                	slli	a0,a0,0x10
 10067ba:	058d                	addi	a1,a1,3
 10067bc:	8141                	srli	a0,a0,0x10
 10067be:	e6aff0ef          	jal	ra,1005e28 <ATT_WriteCmd>
 10067c2:	bf9d                	j	1006738 <ATT_Parse+0xa6>

010067c4 <app_queue_insert>:
app_queue_insert():
 10067c4:	100137b7          	lui	a5,0x10013
 10067c8:	26078793          	addi	a5,a5,608 # 10013260 <AppQueMgr>
 10067cc:	0027c683          	lbu	a3,2(a5)
 10067d0:	02900713          	li	a4,41
 10067d4:	00d76463          	bltu	a4,a3,10067dc <app_queue_insert+0x18>
 10067d8:	00051d63          	bnez	a0,10067f2 <app_queue_insert+0x2e>
 10067dc:	29c062ef          	jal	t0,100ca78 <__riscv_save_0>
 10067e0:	0100d537          	lui	a0,0x100d
 10067e4:	6dc50513          	addi	a0,a0,1756 # 100d6dc <AAP_StopAnc4+0x2e0>
 10067e8:	f71fa0ef          	jal	ra,1001758 <print_string_log>
 10067ec:	4505                	li	a0,1
 10067ee:	2ae0606f          	j	100ca9c <__riscv_restore_0>
 10067f2:	30047073          	csrci	mstatus,8
 10067f6:	10011737          	lui	a4,0x10011
 10067fa:	cec75803          	lhu	a6,-788(a4) # 10010cec <gOsEnterCriticalCnt>
 10067fe:	0017c583          	lbu	a1,1(a5)
 1006802:	00180693          	addi	a3,a6,1 # 10000001 <_sidata+0xeff0429>
 1006806:	ced71623          	sh	a3,-788(a4)
 100680a:	100136b7          	lui	a3,0x10013
 100680e:	00158613          	addi	a2,a1,1
 1006812:	26468693          	addi	a3,a3,612 # 10013264 <AppEventQue>
 1006816:	058a                	slli	a1,a1,0x2
 1006818:	96ae                	add	a3,a3,a1
 100681a:	c288                	sw	a0,0(a3)
 100681c:	0027c683          	lbu	a3,2(a5)
 1006820:	0ff67613          	andi	a2,a2,255
 1006824:	00c780a3          	sb	a2,1(a5)
 1006828:	0685                	addi	a3,a3,1
 100682a:	00d78123          	sb	a3,2(a5)
 100682e:	02800693          	li	a3,40
 1006832:	00c6f463          	bgeu	a3,a2,100683a <app_queue_insert+0x76>
 1006836:	000780a3          	sb	zero,1(a5)
 100683a:	cf071623          	sh	a6,-788(a4)
 100683e:	4501                	li	a0,0
 1006840:	00081563          	bnez	a6,100684a <app_queue_insert+0x86>
 1006844:	30046073          	csrsi	mstatus,8
 1006848:	8082                	ret
 100684a:	8082                	ret

0100684c <app_queue_task>:
app_queue_task():
 100684c:	22c062ef          	jal	t0,100ca78 <__riscv_save_0>
 1006850:	10013437          	lui	s0,0x10013
 1006854:	26040493          	addi	s1,s0,608 # 10013260 <AppQueMgr>
 1006858:	0024c783          	lbu	a5,2(s1)
 100685c:	04078e63          	beqz	a5,10068b8 <app_queue_task+0x6c>
 1006860:	26044703          	lbu	a4,608(s0)
 1006864:	100137b7          	lui	a5,0x10013
 1006868:	26478793          	addi	a5,a5,612 # 10013264 <AppEventQue>
 100686c:	070a                	slli	a4,a4,0x2
 100686e:	97ba                	add	a5,a5,a4
 1006870:	439c                	lw	a5,0(a5)
 1006872:	9782                	jalr	a5
 1006874:	30047073          	csrci	mstatus,8
 1006878:	10011737          	lui	a4,0x10011
 100687c:	cec75683          	lhu	a3,-788(a4) # 10010cec <gOsEnterCriticalCnt>
 1006880:	0024c603          	lbu	a2,2(s1)
 1006884:	00168793          	addi	a5,a3,1
 1006888:	cef71623          	sh	a5,-788(a4)
 100688c:	26044783          	lbu	a5,608(s0)
 1006890:	167d                	addi	a2,a2,-1
 1006892:	00c48123          	sb	a2,2(s1)
 1006896:	0785                	addi	a5,a5,1
 1006898:	0ff7f793          	andi	a5,a5,255
 100689c:	26f40023          	sb	a5,608(s0)
 10068a0:	02800613          	li	a2,40
 10068a4:	00f67463          	bgeu	a2,a5,10068ac <app_queue_task+0x60>
 10068a8:	26040023          	sb	zero,608(s0)
 10068ac:	ced71623          	sh	a3,-788(a4)
 10068b0:	00069463          	bnez	a3,10068b8 <app_queue_task+0x6c>
 10068b4:	30046073          	csrsi	mstatus,8
 10068b8:	1e40606f          	j	100ca9c <__riscv_restore_0>

010068bc <app_queue_reset>:
app_queue_reset():
 10068bc:	1bc062ef          	jal	t0,100ca78 <__riscv_save_0>
 10068c0:	100137b7          	lui	a5,0x10013
 10068c4:	26079023          	sh	zero,608(a5) # 10013260 <AppQueMgr>
 10068c8:	10013537          	lui	a0,0x10013
 10068cc:	26078793          	addi	a5,a5,608
 10068d0:	00078123          	sb	zero,2(a5)
 10068d4:	0a800613          	li	a2,168
 10068d8:	4581                	li	a1,0
 10068da:	26450513          	addi	a0,a0,612 # 10013264 <AppEventQue>
 10068de:	2e6060ef          	jal	ra,100cbc4 <memset>
 10068e2:	1ba0606f          	j	100ca9c <__riscv_restore_0>

010068e6 <action_after_prepare_sleep>:
action_after_prepare_sleep():
 10068e6:	8082                	ret

010068e8 <action_after_enter_deep_sleep>:
action_after_enter_deep_sleep():
 10068e8:	8082                	ret

010068ea <app_lock_check>:
app_lock_check():
 10068ea:	10010737          	lui	a4,0x10010
 10068ee:	6e870713          	addi	a4,a4,1768 # 100106e8 <remote_control_status>
 10068f2:	00174783          	lbu	a5,1(a4)
 10068f6:	4501                	li	a0,0
 10068f8:	8b85                	andi	a5,a5,1
 10068fa:	02078e63          	beqz	a5,1006936 <app_lock_check+0x4c>
 10068fe:	431c                	lw	a5,0(a4)
 1006900:	0017f693          	andi	a3,a5,1
 1006904:	02069963          	bnez	a3,1006936 <app_lock_check+0x4c>
 1006908:	0037d693          	srli	a3,a5,0x3
 100690c:	8a85                	andi	a3,a3,1
 100690e:	02069463          	bnez	a3,1006936 <app_lock_check+0x4c>
 1006912:	0047d693          	srli	a3,a5,0x4
 1006916:	8a85                	andi	a3,a3,1
 1006918:	00069f63          	bnez	a3,1006936 <app_lock_check+0x4c>
 100691c:	0057d693          	srli	a3,a5,0x5
 1006920:	8a85                	andi	a3,a3,1
 1006922:	00069a63          	bnez	a3,1006936 <app_lock_check+0x4c>
 1006926:	8399                	srli	a5,a5,0x6
 1006928:	8b85                	andi	a5,a5,1
 100692a:	00079663          	bnez	a5,1006936 <app_lock_check+0x4c>
 100692e:	4348                	lw	a0,4(a4)
 1006930:	8905                	andi	a0,a0,1
 1006932:	00154513          	xori	a0,a0,1
 1006936:	8082                	ret

01006938 <app_sleep_task>:
app_sleep_task():
 1006938:	140062ef          	jal	t0,100ca78 <__riscv_save_0>
 100693c:	100107b7          	lui	a5,0x10010
 1006940:	6e878793          	addi	a5,a5,1768 # 100106e8 <remote_control_status>
 1006944:	0007c683          	lbu	a3,0(a5)
 1006948:	0016f713          	andi	a4,a3,1
 100694c:	02070063          	beqz	a4,100696c <app_sleep_task+0x34>
 1006950:	0027c703          	lbu	a4,2(a5)
 1006954:	0705                	addi	a4,a4,1
 1006956:	0ff77713          	andi	a4,a4,255
 100695a:	00e78123          	sb	a4,2(a5)
 100695e:	0037c783          	lbu	a5,3(a5)
 1006962:	04f76b63          	bltu	a4,a5,10069b8 <app_sleep_task+0x80>
 1006966:	2205                	jal	1006a86 <enter_deep_sleep>
 1006968:	1340606f          	j	100ca9c <__riscv_restore_0>
 100696c:	4398                	lw	a4,0(a5)
 100696e:	00875613          	srli	a2,a4,0x8
 1006972:	8a05                	andi	a2,a2,1
 1006974:	00061f63          	bnez	a2,1006992 <app_sleep_task+0x5a>
 1006978:	0007d703          	lhu	a4,0(a5)
 100697c:	01007537          	lui	a0,0x1007
 1006980:	93850513          	addi	a0,a0,-1736 # 1006938 <app_sleep_task>
 1006984:	10076713          	ori	a4,a4,256
 1006988:	00e79023          	sh	a4,0(a5)
 100698c:	e39ff0ef          	jal	ra,10067c4 <app_queue_insert>
 1006990:	bfe1                	j	1006968 <app_sleep_task+0x30>
 1006992:	0047c603          	lbu	a2,4(a5)
 1006996:	8a05                	andi	a2,a2,1
 1006998:	02060763          	beqz	a2,10069c6 <app_sleep_task+0x8e>
 100699c:	0057c703          	lbu	a4,5(a5)
 10069a0:	0705                	addi	a4,a4,1
 10069a2:	0ff77713          	andi	a4,a4,255
 10069a6:	00e782a3          	sb	a4,5(a5)
 10069aa:	47d9                	li	a5,22
 10069ac:	00e7f663          	bgeu	a5,a4,10069b8 <app_sleep_task+0x80>
 10069b0:	454d                	li	a0,19
 10069b2:	f9afe0ef          	jal	ra,100514c <bt_send_le_disconnect>
 10069b6:	bf4d                	j	1006968 <app_sleep_task+0x30>
 10069b8:	100107b7          	lui	a5,0x10010
 10069bc:	0447c503          	lbu	a0,68(a5) # 10010044 <sleep_timernum>
 10069c0:	bd4fb0ef          	jal	ra,1001d94 <swtimer_restart>
 10069c4:	b755                	j	1006968 <app_sleep_task+0x30>
 10069c6:	00175613          	srli	a2,a4,0x1
 10069ca:	8a05                	andi	a2,a2,1
 10069cc:	f8061ee3          	bnez	a2,1006968 <app_sleep_task+0x30>
 10069d0:	00375613          	srli	a2,a4,0x3
 10069d4:	8a05                	andi	a2,a2,1
 10069d6:	f80619e3          	bnez	a2,1006968 <app_sleep_task+0x30>
 10069da:	00475613          	srli	a2,a4,0x4
 10069de:	8a05                	andi	a2,a2,1
 10069e0:	f80614e3          	bnez	a2,1006968 <app_sleep_task+0x30>
 10069e4:	00575613          	srli	a2,a4,0x5
 10069e8:	8a05                	andi	a2,a2,1
 10069ea:	f6061fe3          	bnez	a2,1006968 <app_sleep_task+0x30>
 10069ee:	8319                	srli	a4,a4,0x6
 10069f0:	8b05                	andi	a4,a4,1
 10069f2:	f6071be3          	bnez	a4,1006968 <app_sleep_task+0x30>
 10069f6:	06e2                	slli	a3,a3,0x18
 10069f8:	86e1                	srai	a3,a3,0x18
 10069fa:	fa06dbe3          	bgez	a3,10069b0 <app_sleep_task+0x78>
 10069fe:	0007d703          	lhu	a4,0(a5)
 1006a02:	6541                	lui	a0,0x10
 1006a04:	157d                	addi	a0,a0,-1
 1006a06:	20076713          	ori	a4,a4,512
 1006a0a:	00e79023          	sh	a4,0(a5)
 1006a0e:	a47fd0ef          	jal	ra,1004454 <Lpm_unLockLpm>
 1006a12:	bf99                	j	1006968 <app_sleep_task+0x30>

01006a14 <prepare_before_sleep>:
prepare_before_sleep():
 1006a14:	064062ef          	jal	t0,100ca78 <__riscv_save_0>
 1006a18:	10010437          	lui	s0,0x10010
 1006a1c:	6e840413          	addi	s0,s0,1768 # 100106e8 <remote_control_status>
 1006a20:	401c                	lw	a5,0(s0)
 1006a22:	83a9                	srli	a5,a5,0xa
 1006a24:	8b85                	andi	a5,a5,1
 1006a26:	04079e63          	bnez	a5,1006a82 <prepare_before_sleep+0x6e>
 1006a2a:	0100d537          	lui	a0,0x100d
 1006a2e:	6f450513          	addi	a0,a0,1780 # 100d6f4 <AAP_StopAnc4+0x2f8>
 1006a32:	d27fa0ef          	jal	ra,1001758 <print_string_log>
 1006a36:	00045783          	lhu	a5,0(s0)
 1006a3a:	03e00593          	li	a1,62
 1006a3e:	02100513          	li	a0,33
 1006a42:	4007e793          	ori	a5,a5,1024
 1006a46:	00f41023          	sh	a5,0(s0)
 1006a4a:	cd5fc0ef          	jal	ra,100371e <GPIO_Init>
 1006a4e:	03e00593          	li	a1,62
 1006a52:	02000513          	li	a0,32
 1006a56:	cc9fc0ef          	jal	ra,100371e <GPIO_Init>
 1006a5a:	e8dff0ef          	jal	ra,10068e6 <action_after_prepare_sleep>
 1006a5e:	e5fff0ef          	jal	ra,10068bc <app_queue_reset>
 1006a62:	2e61                	jal	1006dfa <vbat_deinit>
 1006a64:	23f000ef          	jal	ra,10074a2 <led_deinit>
 1006a68:	792000ef          	jal	ra,10071fa <keyscan_stop>
 1006a6c:	c82fb0ef          	jal	ra,1001eee <software_timer_stop>
 1006a70:	2bc030ef          	jal	ra,1009d2c <mouse_lpm_int_mode>
 1006a74:	03f00593          	li	a1,63
 1006a78:	4515                	li	a0,5
 1006a7a:	ca5fc0ef          	jal	ra,100371e <GPIO_Init>
 1006a7e:	708000ef          	jal	ra,1007186 <key_wakeup_set>
 1006a82:	01a0606f          	j	100ca9c <__riscv_restore_0>

01006a86 <enter_deep_sleep>:
enter_deep_sleep():
 1006a86:	7f3052ef          	jal	t0,100ca78 <__riscv_save_0>
 1006a8a:	0100d537          	lui	a0,0x100d
 1006a8e:	70c50513          	addi	a0,a0,1804 # 100d70c <AAP_StopAnc4+0x310>
 1006a92:	cc7fa0ef          	jal	ra,1001758 <print_string_log>
 1006a96:	10010737          	lui	a4,0x10010
 1006a9a:	6e870713          	addi	a4,a4,1768 # 100106e8 <remote_control_status>
 1006a9e:	00174783          	lbu	a5,1(a4)
 1006aa2:	9be5                	andi	a5,a5,-7
 1006aa4:	0027e793          	ori	a5,a5,2
 1006aa8:	00f700a3          	sb	a5,1(a4)
 1006aac:	258030ef          	jal	ra,1009d04 <mouse_int_mode>
 1006ab0:	2bb030ef          	jal	ra,100a56a <encode_timer_deinit>
 1006ab4:	e35ff0ef          	jal	ra,10068e8 <action_after_enter_deep_sleep>
 1006ab8:	e84fe0ef          	jal	ra,100513c <bt_check_le_connected>
 1006abc:	00050763          	beqz	a0,1006aca <enter_deep_sleep+0x44>
 1006ac0:	4559                	li	a0,22
 1006ac2:	e8afe0ef          	jal	ra,100514c <bt_send_le_disconnect>
 1006ac6:	7d70506f          	j	100ca9c <__riscv_restore_0>
 1006aca:	c54fb0ef          	jal	ra,1001f1e <Bt_SndCmdPwroff>
 1006ace:	bfe5                	j	1006ac6 <enter_deep_sleep+0x40>

01006ad0 <enter_low_sleep>:
enter_low_sleep():
 1006ad0:	7a9052ef          	jal	t0,100ca78 <__riscv_save_0>
 1006ad4:	6541                	lui	a0,0x10
 1006ad6:	157d                	addi	a0,a0,-1
 1006ad8:	97dfd0ef          	jal	ra,1004454 <Lpm_unLockLpm>
 1006adc:	7c10506f          	j	100ca9c <__riscv_restore_0>

01006ae0 <app_sleep_check>:
app_sleep_check():
 1006ae0:	100107b7          	lui	a5,0x10010
 1006ae4:	6e87a503          	lw	a0,1768(a5) # 100106e8 <remote_control_status>
 1006ae8:	8125                	srli	a0,a0,0x9
 1006aea:	8905                	andi	a0,a0,1
 1006aec:	8082                	ret

01006aee <app_sleep_lock_set>:
app_sleep_lock_set():
 1006aee:	100107b7          	lui	a5,0x10010
 1006af2:	6e878693          	addi	a3,a5,1768 # 100106e8 <remote_control_status>
 1006af6:	0016c703          	lbu	a4,1(a3)
 1006afa:	9b65                	andi	a4,a4,-7
 1006afc:	00e680a3          	sb	a4,1(a3)
 1006b00:	471d                	li	a4,7
 1006b02:	10a76363          	bltu	a4,a0,1006c08 <app_sleep_lock_set+0x11a>
 1006b06:	773052ef          	jal	t0,100ca78 <__riscv_save_0>
 1006b0a:	0100d737          	lui	a4,0x100d
 1006b0e:	72070713          	addi	a4,a4,1824 # 100d720 <AAP_StopAnc4+0x324>
 1006b12:	050a                	slli	a0,a0,0x2
 1006b14:	953a                	add	a0,a0,a4
 1006b16:	4114                	lw	a3,0(a0)
 1006b18:	6e878793          	addi	a5,a5,1768
 1006b1c:	0015f713          	andi	a4,a1,1
 1006b20:	8682                	jr	a3
 1006b22:	0007d683          	lhu	a3,0(a5)
 1006b26:	00078123          	sb	zero,2(a5)
 1006b2a:	9af9                	andi	a3,a3,-2
 1006b2c:	8f55                	or	a4,a4,a3
 1006b2e:	00e79023          	sh	a4,0(a5)
 1006b32:	00059863          	bnez	a1,1006b42 <app_sleep_lock_set+0x54>
 1006b36:	100107b7          	lui	a5,0x10010
 1006b3a:	0447c503          	lbu	a0,68(a5) # 10010044 <sleep_timernum>
 1006b3e:	a9cfb0ef          	jal	ra,1001dda <swtimer_stop>
 1006b42:	75b0506f          	j	100ca9c <__riscv_restore_0>
 1006b46:	0007d683          	lhu	a3,0(a5)
 1006b4a:	0706                	slli	a4,a4,0x1
 1006b4c:	4505                	li	a0,1
 1006b4e:	9af5                	andi	a3,a3,-3
 1006b50:	8f55                	or	a4,a4,a3
 1006b52:	00e79023          	sh	a4,0(a5)
 1006b56:	02059963          	bnez	a1,1006b88 <app_sleep_lock_set+0x9a>
 1006b5a:	d91ff0ef          	jal	ra,10068ea <app_lock_check>
 1006b5e:	fe0502e3          	beqz	a0,1006b42 <app_sleep_lock_set+0x54>
 1006b62:	01007537          	lui	a0,0x1007
 1006b66:	93850513          	addi	a0,a0,-1736 # 1006938 <app_sleep_task>
 1006b6a:	c5bff0ef          	jal	ra,10067c4 <app_queue_insert>
 1006b6e:	bfd1                	j	1006b42 <app_sleep_lock_set+0x54>
 1006b70:	0007d683          	lhu	a3,0(a5)
 1006b74:	070e                	slli	a4,a4,0x3
 1006b76:	9add                	andi	a3,a3,-9
 1006b78:	8f55                	or	a4,a4,a3
 1006b7a:	00e79023          	sh	a4,0(a5)
 1006b7e:	fc058ee3          	beqz	a1,1006b5a <app_sleep_lock_set+0x6c>
 1006b82:	00078123          	sb	zero,2(a5)
 1006b86:	4509                	li	a0,2
 1006b88:	8fbfd0ef          	jal	ra,1004482 <Lpm_LockLpm>
 1006b8c:	bf5d                	j	1006b42 <app_sleep_lock_set+0x54>
 1006b8e:	0007d683          	lhu	a3,0(a5)
 1006b92:	0712                	slli	a4,a4,0x4
 1006b94:	9abd                	andi	a3,a3,-17
 1006b96:	8f55                	or	a4,a4,a3
 1006b98:	00e79023          	sh	a4,0(a5)
 1006b9c:	fa058fe3          	beqz	a1,1006b5a <app_sleep_lock_set+0x6c>
 1006ba0:	00078123          	sb	zero,2(a5)
 1006ba4:	4511                	li	a0,4
 1006ba6:	b7cd                	j	1006b88 <app_sleep_lock_set+0x9a>
 1006ba8:	0007d683          	lhu	a3,0(a5)
 1006bac:	0716                	slli	a4,a4,0x5
 1006bae:	4521                	li	a0,8
 1006bb0:	fdf6f693          	andi	a3,a3,-33
 1006bb4:	8f55                	or	a4,a4,a3
 1006bb6:	00e79023          	sh	a4,0(a5)
 1006bba:	fa0580e3          	beqz	a1,1006b5a <app_sleep_lock_set+0x6c>
 1006bbe:	b7e9                	j	1006b88 <app_sleep_lock_set+0x9a>
 1006bc0:	0007d683          	lhu	a3,0(a5)
 1006bc4:	071a                	slli	a4,a4,0x6
 1006bc6:	4541                	li	a0,16
 1006bc8:	fbf6f693          	andi	a3,a3,-65
 1006bcc:	8f55                	or	a4,a4,a3
 1006bce:	00e79023          	sh	a4,0(a5)
 1006bd2:	f80584e3          	beqz	a1,1006b5a <app_sleep_lock_set+0x6c>
 1006bd6:	bf4d                	j	1006b88 <app_sleep_lock_set+0x9a>
 1006bd8:	0047c683          	lbu	a3,4(a5)
 1006bdc:	000782a3          	sb	zero,5(a5)
 1006be0:	9af9                	andi	a3,a3,-2
 1006be2:	8f55                	or	a4,a4,a3
 1006be4:	00e78223          	sb	a4,4(a5)
 1006be8:	f60589e3          	beqz	a1,1006b5a <app_sleep_lock_set+0x6c>
 1006bec:	02000513          	li	a0,32
 1006bf0:	bf61                	j	1006b88 <app_sleep_lock_set+0x9a>
 1006bf2:	0007d683          	lhu	a3,0(a5)
 1006bf6:	071e                	slli	a4,a4,0x7
 1006bf8:	f7f6f693          	andi	a3,a3,-129
 1006bfc:	8f55                	or	a4,a4,a3
 1006bfe:	00e79023          	sh	a4,0(a5)
 1006c02:	f40580e3          	beqz	a1,1006b42 <app_sleep_lock_set+0x54>
 1006c06:	bfb1                	j	1006b62 <app_sleep_lock_set+0x74>
 1006c08:	8082                	ret

01006c0a <app_sleep_timer_set>:
app_sleep_timer_set():
 1006c0a:	66f052ef          	jal	t0,100ca78 <__riscv_save_0>
 1006c0e:	6709                	lui	a4,0x2
 1006c10:	100107b7          	lui	a5,0x10010
 1006c14:	71070713          	addi	a4,a4,1808 # 2710 <__EN_MIE-0xffd96e>
 1006c18:	85aa                	mv	a1,a0
 1006c1a:	6e878793          	addi	a5,a5,1768 # 100106e8 <remote_control_status>
 1006c1e:	00e50763          	beq	a0,a4,1006c2c <app_sleep_timer_set+0x22>
 1006c22:	6705                	lui	a4,0x1
 1006c24:	38870693          	addi	a3,a4,904 # 1388 <__EN_MIE-0xffecf6>
 1006c28:	02d51663          	bne	a0,a3,1006c54 <app_sleep_timer_set+0x4a>
 1006c2c:	0007d703          	lhu	a4,0(a5)
 1006c30:	9b79                	andi	a4,a4,-2
 1006c32:	00e79023          	sh	a4,0(a5)
 1006c36:	0007d703          	lhu	a4,0(a5)
 1006c3a:	4601                	li	a2,0
 1006c3c:	eff77713          	andi	a4,a4,-257
 1006c40:	00e79023          	sh	a4,0(a5)
 1006c44:	100107b7          	lui	a5,0x10010
 1006c48:	0447c503          	lbu	a0,68(a5) # 10010044 <sleep_timernum>
 1006c4c:	9cefb0ef          	jal	ra,1001e1a <swtimer_start>
 1006c50:	64d0506f          	j	100ca9c <__riscv_restore_0>
 1006c54:	46a9                	li	a3,10
 1006c56:	a0070713          	addi	a4,a4,-1536
 1006c5a:	00d50963          	beq	a0,a3,1006c6c <app_sleep_timer_set+0x62>
 1006c5e:	03c00713          	li	a4,60
 1006c62:	fce51ae3          	bne	a0,a4,1006c36 <app_sleep_timer_set+0x2c>
 1006c66:	6711                	lui	a4,0x4
 1006c68:	c0070713          	addi	a4,a4,-1024 # 3c00 <__EN_MIE-0xffc47e>
 1006c6c:	00e79123          	sh	a4,2(a5)
 1006c70:	3e800593          	li	a1,1000
 1006c74:	b7c9                	j	1006c36 <app_sleep_timer_set+0x2c>

01006c76 <app_sleep_init>:
app_sleep_init():
 1006c76:	603052ef          	jal	t0,100ca78 <__riscv_save_0>
 1006c7a:	01007537          	lui	a0,0x1007
 1006c7e:	100107b7          	lui	a5,0x10010
 1006c82:	03c00713          	li	a4,60
 1006c86:	93850513          	addi	a0,a0,-1736 # 1006938 <app_sleep_task>
 1006c8a:	6ee785a3          	sb	a4,1771(a5) # 100106eb <remote_control_status+0x3>
 1006c8e:	a00fb0ef          	jal	ra,1001e8e <swtimer_add>
 1006c92:	100107b7          	lui	a5,0x10010
 1006c96:	04a78223          	sb	a0,68(a5) # 10010044 <sleep_timernum>
 1006c9a:	47b9                	li	a5,14
 1006c9c:	00a7e363          	bltu	a5,a0,1006ca2 <app_sleep_init+0x2c>
 1006ca0:	4501                	li	a0,0
 1006ca2:	5fb0506f          	j	100ca9c <__riscv_restore_0>

01006ca6 <batvalue_calculate>:
batvalue_calculate():
 1006ca6:	10004737          	lui	a4,0x10004
 1006caa:	41f74603          	lbu	a2,1055(a4) # 1000441f <_sidata+0xeff4847>
 1006cae:	42074783          	lbu	a5,1056(a4)
 1006cb2:	4501                	li	a0,0
 1006cb4:	07a2                	slli	a5,a5,0x8
 1006cb6:	8e5d                	or	a2,a2,a5
 1006cb8:	08060463          	beqz	a2,1006d40 <batvalue_calculate+0x9a>
 1006cbc:	100056b7          	lui	a3,0x10005
 1006cc0:	e236c783          	lbu	a5,-477(a3) # 10004e23 <_sidata+0xeff524b>
 1006cc4:	e246c783          	lbu	a5,-476(a3)
 1006cc8:	e256c803          	lbu	a6,-475(a3)
 1006ccc:	e266c503          	lbu	a0,-474(a3)
 1006cd0:	e236c883          	lbu	a7,-477(a3)
 1006cd4:	e246c703          	lbu	a4,-476(a3)
 1006cd8:	e256c583          	lbu	a1,-475(a3)
 1006cdc:	e266c683          	lbu	a3,-474(a3)
 1006ce0:	07a2                	slli	a5,a5,0x8
 1006ce2:	01081693          	slli	a3,a6,0x10
 1006ce6:	8fd5                	or	a5,a5,a3
 1006ce8:	01851693          	slli	a3,a0,0x18
 1006cec:	8fd5                	or	a5,a5,a3
 1006cee:	83b5                	srli	a5,a5,0xd
 1006cf0:	02c786b3          	mul	a3,a5,a2
 1006cf4:	0722                	slli	a4,a4,0x8
 1006cf6:	02f627b3          	mulhsu	a5,a2,a5
 1006cfa:	82a9                	srli	a3,a3,0xa
 1006cfc:	01679613          	slli	a2,a5,0x16
 1006d00:	8ed1                	or	a3,a3,a2
 1006d02:	01059613          	slli	a2,a1,0x10
 1006d06:	8f51                	or	a4,a4,a2
 1006d08:	01176733          	or	a4,a4,a7
 1006d0c:	00800637          	lui	a2,0x800
 1006d10:	072a                	slli	a4,a4,0xa
 1006d12:	c0060613          	addi	a2,a2,-1024 # 7ffc00 <__EN_MIE-0x80047e>
 1006d16:	8f71                	and	a4,a4,a2
 1006d18:	40e68733          	sub	a4,a3,a4
 1006d1c:	00e6b6b3          	sltu	a3,a3,a4
 1006d20:	83a9                	srli	a5,a5,0xa
 1006d22:	8f95                	sub	a5,a5,a3
 1006d24:	3e800693          	li	a3,1000
 1006d28:	02e68533          	mul	a0,a3,a4
 1006d2c:	02f687b3          	mul	a5,a3,a5
 1006d30:	8151                	srli	a0,a0,0x14
 1006d32:	02e6b733          	mulhu	a4,a3,a4
 1006d36:	97ba                	add	a5,a5,a4
 1006d38:	07b2                	slli	a5,a5,0xc
 1006d3a:	8d5d                	or	a0,a0,a5
 1006d3c:	0542                	slli	a0,a0,0x10
 1006d3e:	8141                	srli	a0,a0,0x10
 1006d40:	8082                	ret

01006d42 <vbat_task>:
vbat_task():
 1006d42:	537052ef          	jal	t0,100ca78 <__riscv_save_0>
 1006d46:	100104b7          	lui	s1,0x10010
 1006d4a:	6ee4c403          	lbu	s0,1774(s1) # 100106ee <adc_sample_cnt>
 1006d4e:	478d                	li	a5,3
 1006d50:	0687f363          	bgeu	a5,s0,1006db6 <vbat_task+0x74>
 1006d54:	10010537          	lui	a0,0x10010
 1006d58:	4595                	li	a1,5
 1006d5a:	6f050513          	addi	a0,a0,1776 # 100106f0 <adc_value>
 1006d5e:	9cefb0ef          	jal	ra,1001f2c <MedianFilter>
 1006d62:	6705                	lui	a4,0x1
 1006d64:	87aa                	mv	a5,a0
 1006d66:	89870693          	addi	a3,a4,-1896 # 898 <__EN_MIE-0xfff7e6>
 1006d6a:	8926                	mv	s2,s1
 1006d6c:	4501                	li	a0,0
 1006d6e:	02f6fb63          	bgeu	a3,a5,1006da4 <vbat_task+0x62>
 1006d72:	ce370713          	addi	a4,a4,-797
 1006d76:	06400513          	li	a0,100
 1006d7a:	02f76563          	bltu	a4,a5,1006da4 <vbat_task+0x62>
 1006d7e:	8f95                	sub	a5,a5,a3
 1006d80:	d007f7d3          	fcvt.s.w	fa5,a5
 1006d84:	0100d7b7          	lui	a5,0x100d
 1006d88:	7407a707          	flw	fa4,1856(a5) # 100d740 <AAP_StopAnc4+0x344>
 1006d8c:	0100d7b7          	lui	a5,0x100d
 1006d90:	18e7f7d3          	fdiv.s	fa5,fa5,fa4
 1006d94:	7447a707          	flw	fa4,1860(a5) # 100d744 <AAP_StopAnc4+0x348>
 1006d98:	10e7f7d3          	fmul.s	fa5,fa5,fa4
 1006d9c:	c0179553          	fcvt.wu.s	a0,fa5,rtz
 1006da0:	0ff57513          	andi	a0,a0,255
 1006da4:	100107b7          	lui	a5,0x10010
 1006da8:	6fc7a783          	lw	a5,1788(a5) # 100106fc <power_report_cb>
 1006dac:	9782                	jalr	a5
 1006dae:	6e090723          	sb	zero,1774(s2)
 1006db2:	4eb0506f          	j	100ca9c <__riscv_restore_0>
 1006db6:	ef1ff0ef          	jal	ra,1006ca6 <batvalue_calculate>
 1006dba:	fe050ce3          	beqz	a0,1006db2 <vbat_task+0x70>
 1006dbe:	100107b7          	lui	a5,0x10010
 1006dc2:	00141713          	slli	a4,s0,0x1
 1006dc6:	6f078793          	addi	a5,a5,1776 # 100106f0 <adc_value>
 1006dca:	97ba                	add	a5,a5,a4
 1006dcc:	0405                	addi	s0,s0,1
 1006dce:	00a79023          	sh	a0,0(a5)
 1006dd2:	6e848723          	sb	s0,1774(s1)
 1006dd6:	bff1                	j	1006db2 <vbat_task+0x70>

01006dd8 <vbat_reinit>:
vbat_reinit():
 1006dd8:	4a1052ef          	jal	t0,100ca78 <__riscv_save_0>
 1006ddc:	100057b7          	lui	a5,0x10005
 1006de0:	4705                	li	a4,1
 1006de2:	e8e78b23          	sb	a4,-362(a5) # 10004e96 <_sidata+0xeff52be>
 1006de6:	e8078ba3          	sb	zero,-361(a5)
 1006dea:	100107b7          	lui	a5,0x10010
 1006dee:	0457c503          	lbu	a0,69(a5) # 10010045 <vbat_adc_timernum>
 1006df2:	fa3fa0ef          	jal	ra,1001d94 <swtimer_restart>
 1006df6:	4a70506f          	j	100ca9c <__riscv_restore_0>

01006dfa <vbat_deinit>:
vbat_deinit():
 1006dfa:	47f052ef          	jal	t0,100ca78 <__riscv_save_0>
 1006dfe:	100057b7          	lui	a5,0x10005
 1006e02:	e8078b23          	sb	zero,-362(a5) # 10004e96 <_sidata+0xeff52be>
 1006e06:	e8078ba3          	sb	zero,-361(a5)
 1006e0a:	100107b7          	lui	a5,0x10010
 1006e0e:	0457c503          	lbu	a0,69(a5) # 10010045 <vbat_adc_timernum>
 1006e12:	fc9fa0ef          	jal	ra,1001dda <swtimer_stop>
 1006e16:	4870506f          	j	100ca9c <__riscv_restore_0>

01006e1a <vbat_init>:
vbat_init():
 1006e1a:	45f052ef          	jal	t0,100ca78 <__riscv_save_0>
 1006e1e:	100057b7          	lui	a5,0x10005
 1006e22:	4705                	li	a4,1
 1006e24:	e8e78b23          	sb	a4,-362(a5) # 10004e96 <_sidata+0xeff52be>
 1006e28:	e8078ba3          	sb	zero,-361(a5)
 1006e2c:	100107b7          	lui	a5,0x10010
 1006e30:	6ea7ae23          	sw	a0,1788(a5) # 100106fc <power_report_cb>
 1006e34:	01007537          	lui	a0,0x1007
 1006e38:	d4250513          	addi	a0,a0,-702 # 1006d42 <vbat_task>
 1006e3c:	852fb0ef          	jal	ra,1001e8e <swtimer_add>
 1006e40:	10010737          	lui	a4,0x10010
 1006e44:	04a702a3          	sb	a0,69(a4) # 10010045 <vbat_adc_timernum>
 1006e48:	4735                	li	a4,13
 1006e4a:	87aa                	mv	a5,a0
 1006e4c:	00a76863          	bltu	a4,a0,1006e5c <vbat_init+0x42>
 1006e50:	4605                	li	a2,1
 1006e52:	3e800593          	li	a1,1000
 1006e56:	fc5fa0ef          	jal	ra,1001e1a <swtimer_start>
 1006e5a:	4781                	li	a5,0
 1006e5c:	853e                	mv	a0,a5
 1006e5e:	43f0506f          	j	100ca9c <__riscv_restore_0>

01006e62 <row_scan>:
row_scan():
 1006e62:	417052ef          	jal	t0,100ca78 <__riscv_save_0>
 1006e66:	4799                	li	a5,6
 1006e68:	842a                	mv	s0,a0
 1006e6a:	02a7e863          	bltu	a5,a0,1006e9a <row_scan+0x38>
 1006e6e:	0100d737          	lui	a4,0x100d
 1006e72:	00251793          	slli	a5,a0,0x2
 1006e76:	74870713          	addi	a4,a4,1864 # 100d748 <AAP_StopAnc4+0x34c>
 1006e7a:	97ba                	add	a5,a5,a4
 1006e7c:	439c                	lw	a5,0(a5)
 1006e7e:	03f00593          	li	a1,63
 1006e82:	8782                	jr	a5
 1006e84:	4531                	li	a0,12
 1006e86:	899fc0ef          	jal	ra,100371e <GPIO_Init>
 1006e8a:	03e00593          	li	a1,62
 1006e8e:	02200513          	li	a0,34
 1006e92:	a835                	j	1006ece <row_scan+0x6c>
 1006e94:	4535                	li	a0,13
 1006e96:	889fc0ef          	jal	ra,100371e <GPIO_Init>
 1006e9a:	147d                	addi	s0,s0,-1
 1006e9c:	4799                	li	a5,6
 1006e9e:	0287ea63          	bltu	a5,s0,1006ed2 <row_scan+0x70>
 1006ea2:	0100d7b7          	lui	a5,0x100d
 1006ea6:	76478793          	addi	a5,a5,1892 # 100d764 <AAP_StopAnc4+0x368>
 1006eaa:	040a                	slli	s0,s0,0x2
 1006eac:	943e                	add	s0,s0,a5
 1006eae:	401c                	lw	a5,0(s0)
 1006eb0:	03e00593          	li	a1,62
 1006eb4:	8782                	jr	a5
 1006eb6:	4539                	li	a0,14
 1006eb8:	bff9                	j	1006e96 <row_scan+0x34>
 1006eba:	453d                	li	a0,15
 1006ebc:	bfe9                	j	1006e96 <row_scan+0x34>
 1006ebe:	454d                	li	a0,19
 1006ec0:	bfd9                	j	1006e96 <row_scan+0x34>
 1006ec2:	455d                	li	a0,23
 1006ec4:	bfc9                	j	1006e96 <row_scan+0x34>
 1006ec6:	02200513          	li	a0,34
 1006eca:	b7f1                	j	1006e96 <row_scan+0x34>
 1006ecc:	4531                	li	a0,12
 1006ece:	851fc0ef          	jal	ra,100371e <GPIO_Init>
 1006ed2:	3cb0506f          	j	100ca9c <__riscv_restore_0>
 1006ed6:	4535                	li	a0,13
 1006ed8:	bfdd                	j	1006ece <row_scan+0x6c>
 1006eda:	4539                	li	a0,14
 1006edc:	bfcd                	j	1006ece <row_scan+0x6c>
 1006ede:	453d                	li	a0,15
 1006ee0:	b7fd                	j	1006ece <row_scan+0x6c>
 1006ee2:	454d                	li	a0,19
 1006ee4:	b7ed                	j	1006ece <row_scan+0x6c>
 1006ee6:	455d                	li	a0,23
 1006ee8:	b7dd                	j	1006ece <row_scan+0x6c>

01006eea <keyscan_once>:
keyscan_once():
 1006eea:	375052ef          	jal	t0,100ca5e <__riscv_save_4>
 1006eee:	10013537          	lui	a0,0x10013
 1006ef2:	10013437          	lui	s0,0x10013
 1006ef6:	4619                	li	a2,6
 1006ef8:	4581                	li	a1,0
 1006efa:	31150513          	addi	a0,a0,785 # 10013311 <key_report+0x1>
 1006efe:	100104b7          	lui	s1,0x10010
 1006f02:	30040823          	sb	zero,784(s0) # 10013310 <key_report>
 1006f06:	70048493          	addi	s1,s1,1792 # 10010700 <keynum_buf>
 1006f0a:	4bb050ef          	jal	ra,100cbc4 <memset>
 1006f0e:	4901                	li	s2,0
 1006f10:	31040413          	addi	s0,s0,784
 1006f14:	499d                	li	s3,7
 1006f16:	0ff97513          	andi	a0,s2,255
 1006f1a:	f49ff0ef          	jal	ra,1006e62 <row_scan>
 1006f1e:	4561                	li	a0,24
 1006f20:	84ffc0ef          	jal	ra,100376e <GPIO_ReadDataBit>
 1006f24:	00050b63          	beqz	a0,1006f3a <keyscan_once+0x50>
 1006f28:	0004c783          	lbu	a5,0(s1)
 1006f2c:	00f400a3          	sb	a5,1(s0)
 1006f30:	00044783          	lbu	a5,0(s0)
 1006f34:	0785                	addi	a5,a5,1
 1006f36:	00f40023          	sb	a5,0(s0)
 1006f3a:	456d                	li	a0,27
 1006f3c:	833fc0ef          	jal	ra,100376e <GPIO_ReadDataBit>
 1006f40:	00050b63          	beqz	a0,1006f56 <keyscan_once+0x6c>
 1006f44:	0014c783          	lbu	a5,1(s1)
 1006f48:	00f40123          	sb	a5,2(s0)
 1006f4c:	00044783          	lbu	a5,0(s0)
 1006f50:	0785                	addi	a5,a5,1
 1006f52:	00f40023          	sb	a5,0(s0)
 1006f56:	4571                	li	a0,28
 1006f58:	817fc0ef          	jal	ra,100376e <GPIO_ReadDataBit>
 1006f5c:	00050b63          	beqz	a0,1006f72 <keyscan_once+0x88>
 1006f60:	0024c783          	lbu	a5,2(s1)
 1006f64:	00f401a3          	sb	a5,3(s0)
 1006f68:	00044783          	lbu	a5,0(s0)
 1006f6c:	0785                	addi	a5,a5,1
 1006f6e:	00f40023          	sb	a5,0(s0)
 1006f72:	4575                	li	a0,29
 1006f74:	ffafc0ef          	jal	ra,100376e <GPIO_ReadDataBit>
 1006f78:	00050b63          	beqz	a0,1006f8e <keyscan_once+0xa4>
 1006f7c:	0034c783          	lbu	a5,3(s1)
 1006f80:	00f40223          	sb	a5,4(s0)
 1006f84:	00044783          	lbu	a5,0(s0)
 1006f88:	0785                	addi	a5,a5,1
 1006f8a:	00f40023          	sb	a5,0(s0)
 1006f8e:	4579                	li	a0,30
 1006f90:	fdefc0ef          	jal	ra,100376e <GPIO_ReadDataBit>
 1006f94:	00050b63          	beqz	a0,1006faa <keyscan_once+0xc0>
 1006f98:	0044c783          	lbu	a5,4(s1)
 1006f9c:	00f402a3          	sb	a5,5(s0)
 1006fa0:	00044783          	lbu	a5,0(s0)
 1006fa4:	0785                	addi	a5,a5,1
 1006fa6:	00f40023          	sb	a5,0(s0)
 1006faa:	457d                	li	a0,31
 1006fac:	fc2fc0ef          	jal	ra,100376e <GPIO_ReadDataBit>
 1006fb0:	00050b63          	beqz	a0,1006fc6 <keyscan_once+0xdc>
 1006fb4:	0054c783          	lbu	a5,5(s1)
 1006fb8:	00f40323          	sb	a5,6(s0)
 1006fbc:	00044783          	lbu	a5,0(s0)
 1006fc0:	0785                	addi	a5,a5,1
 1006fc2:	00f40023          	sb	a5,0(s0)
 1006fc6:	0905                	addi	s2,s2,1
 1006fc8:	0499                	addi	s1,s1,6
 1006fca:	f53916e3          	bne	s2,s3,1006f16 <keyscan_once+0x2c>
 1006fce:	00044783          	lbu	a5,0(s0)
 1006fd2:	00078663          	beqz	a5,1006fde <keyscan_once+0xf4>
 1006fd6:	4585                	li	a1,1
 1006fd8:	4509                	li	a0,2
 1006fda:	b15ff0ef          	jal	ra,1006aee <app_sleep_lock_set>
 1006fde:	2b50506f          	j	100ca92 <__riscv_restore_4>

01006fe2 <key_task>:
key_task():
 1006fe2:	297052ef          	jal	t0,100ca78 <__riscv_save_0>
 1006fe6:	100134b7          	lui	s1,0x10013
 1006fea:	10013437          	lui	s0,0x10013
 1006fee:	4619                	li	a2,6
 1006ff0:	31148593          	addi	a1,s1,785 # 10013311 <key_report+0x1>
 1006ff4:	31740513          	addi	a0,s0,791 # 10013317 <key_report+0x7>
 1006ff8:	2ed050ef          	jal	ra,100cae4 <memcmp>
 1006ffc:	06051d63          	bnez	a0,1007076 <key_task+0x94>
 1007000:	100107b7          	lui	a5,0x10010
 1007004:	72c78693          	addi	a3,a5,1836 # 1001072c <key_cfg>
 1007008:	4298                	lw	a4,0(a3)
 100700a:	72c78793          	addi	a5,a5,1836
 100700e:	02071a63          	bnez	a4,1007042 <key_task+0x60>
 1007012:	100137b7          	lui	a5,0x10013
 1007016:	30c7c703          	lbu	a4,780(a5) # 1001330c <key_changed>
 100701a:	06070a63          	beqz	a4,100708e <key_task+0xac>
 100701e:	30078623          	sb	zero,780(a5)
 1007022:	42dc                	lw	a5,4(a3)
 1007024:	10013437          	lui	s0,0x10013
 1007028:	31040513          	addi	a0,s0,784 # 10013310 <key_report>
 100702c:	9782                	jalr	a5
 100702e:	31044783          	lbu	a5,784(s0)
 1007032:	00079663          	bnez	a5,100703e <key_task+0x5c>
 1007036:	4581                	li	a1,0
 1007038:	4509                	li	a0,2
 100703a:	ab5ff0ef          	jal	ra,1006aee <app_sleep_lock_set>
 100703e:	25f0506f          	j	100ca9c <__riscv_restore_0>
 1007042:	4685                	li	a3,1
 1007044:	fed71de3          	bne	a4,a3,100703e <key_task+0x5c>
 1007048:	10013737          	lui	a4,0x10013
 100704c:	30c74683          	lbu	a3,780(a4) # 1001330c <key_changed>
 1007050:	10013537          	lui	a0,0x10013
 1007054:	31050413          	addi	s0,a0,784 # 10013310 <key_report>
 1007058:	00069663          	bnez	a3,1007064 <key_task+0x82>
 100705c:	00044683          	lbu	a3,0(s0)
 1007060:	02068763          	beqz	a3,100708e <key_task+0xac>
 1007064:	43dc                	lw	a5,4(a5)
 1007066:	31050513          	addi	a0,a0,784
 100706a:	30070623          	sb	zero,780(a4)
 100706e:	9782                	jalr	a5
 1007070:	00044783          	lbu	a5,0(s0)
 1007074:	bf7d                	j	1007032 <key_task+0x50>
 1007076:	100137b7          	lui	a5,0x10013
 100707a:	4705                	li	a4,1
 100707c:	4619                	li	a2,6
 100707e:	31148593          	addi	a1,s1,785
 1007082:	31740513          	addi	a0,s0,791
 1007086:	30e78623          	sb	a4,780(a5) # 1001330c <key_changed>
 100708a:	281050ef          	jal	ra,100cb0a <memcpy>
 100708e:	e5dff0ef          	jal	ra,1006eea <keyscan_once>
 1007092:	b775                	j	100703e <key_task+0x5c>

01007094 <keyscan_row_cfg>:
keyscan_row_cfg():
 1007094:	1e5052ef          	jal	t0,100ca78 <__riscv_save_0>
 1007098:	03e00593          	li	a1,62
 100709c:	4531                	li	a0,12
 100709e:	e80fc0ef          	jal	ra,100371e <GPIO_Init>
 10070a2:	03e00593          	li	a1,62
 10070a6:	4535                	li	a0,13
 10070a8:	e76fc0ef          	jal	ra,100371e <GPIO_Init>
 10070ac:	03e00593          	li	a1,62
 10070b0:	4539                	li	a0,14
 10070b2:	e6cfc0ef          	jal	ra,100371e <GPIO_Init>
 10070b6:	03e00593          	li	a1,62
 10070ba:	453d                	li	a0,15
 10070bc:	e62fc0ef          	jal	ra,100371e <GPIO_Init>
 10070c0:	03e00593          	li	a1,62
 10070c4:	454d                	li	a0,19
 10070c6:	e58fc0ef          	jal	ra,100371e <GPIO_Init>
 10070ca:	03e00593          	li	a1,62
 10070ce:	455d                	li	a0,23
 10070d0:	e4efc0ef          	jal	ra,100371e <GPIO_Init>
 10070d4:	03e00593          	li	a1,62
 10070d8:	02200513          	li	a0,34
 10070dc:	e42fc0ef          	jal	ra,100371e <GPIO_Init>
 10070e0:	1bd0506f          	j	100ca9c <__riscv_restore_0>

010070e4 <keyscan_col_cfg>:
keyscan_col_cfg():
 10070e4:	195052ef          	jal	t0,100ca78 <__riscv_save_0>
 10070e8:	08000593          	li	a1,128
 10070ec:	4561                	li	a0,24
 10070ee:	e30fc0ef          	jal	ra,100371e <GPIO_Init>
 10070f2:	08000593          	li	a1,128
 10070f6:	456d                	li	a0,27
 10070f8:	e26fc0ef          	jal	ra,100371e <GPIO_Init>
 10070fc:	08000593          	li	a1,128
 1007100:	4571                	li	a0,28
 1007102:	e1cfc0ef          	jal	ra,100371e <GPIO_Init>
 1007106:	08000593          	li	a1,128
 100710a:	4575                	li	a0,29
 100710c:	e12fc0ef          	jal	ra,100371e <GPIO_Init>
 1007110:	08000593          	li	a1,128
 1007114:	4579                	li	a0,30
 1007116:	e08fc0ef          	jal	ra,100371e <GPIO_Init>
 100711a:	08000593          	li	a1,128
 100711e:	457d                	li	a0,31
 1007120:	dfefc0ef          	jal	ra,100371e <GPIO_Init>
 1007124:	1790506f          	j	100ca9c <__riscv_restore_0>

01007128 <key_wakeup_get>:
key_wakeup_get():
 1007128:	151052ef          	jal	t0,100ca78 <__riscv_save_0>
 100712c:	4561                	li	a0,24
 100712e:	e40fc0ef          	jal	ra,100376e <GPIO_ReadDataBit>
 1007132:	842a                	mv	s0,a0
 1007134:	456d                	li	a0,27
 1007136:	e38fc0ef          	jal	ra,100376e <GPIO_ReadDataBit>
 100713a:	00153513          	seqz	a0,a0
 100713e:	00143413          	seqz	s0,s0
 1007142:	8c49                	or	s0,s0,a0
 1007144:	4571                	li	a0,28
 1007146:	e28fc0ef          	jal	ra,100376e <GPIO_ReadDataBit>
 100714a:	00153513          	seqz	a0,a0
 100714e:	8c49                	or	s0,s0,a0
 1007150:	4575                	li	a0,29
 1007152:	e1cfc0ef          	jal	ra,100376e <GPIO_ReadDataBit>
 1007156:	00153513          	seqz	a0,a0
 100715a:	8c49                	or	s0,s0,a0
 100715c:	4579                	li	a0,30
 100715e:	e10fc0ef          	jal	ra,100376e <GPIO_ReadDataBit>
 1007162:	00153513          	seqz	a0,a0
 1007166:	8c49                	or	s0,s0,a0
 1007168:	457d                	li	a0,31
 100716a:	e04fc0ef          	jal	ra,100376e <GPIO_ReadDataBit>
 100716e:	84aa                	mv	s1,a0
 1007170:	4521                	li	a0,8
 1007172:	dfcfc0ef          	jal	ra,100376e <GPIO_ReadDataBit>
 1007176:	0014b793          	seqz	a5,s1
 100717a:	8c5d                	or	s0,s0,a5
 100717c:	8d41                	or	a0,a0,s0
 100717e:	00a03533          	snez	a0,a0
 1007182:	11b0506f          	j	100ca9c <__riscv_restore_0>

01007186 <key_wakeup_set>:
key_wakeup_set():
 1007186:	0f3052ef          	jal	t0,100ca78 <__riscv_save_0>
 100718a:	04000593          	li	a1,64
 100718e:	4561                	li	a0,24
 1007190:	d8efc0ef          	jal	ra,100371e <GPIO_Init>
 1007194:	4581                	li	a1,0
 1007196:	4561                	li	a0,24
 1007198:	e8efc0ef          	jal	ra,1003826 <GPIO_WakeUp>
 100719c:	04000593          	li	a1,64
 10071a0:	456d                	li	a0,27
 10071a2:	d7cfc0ef          	jal	ra,100371e <GPIO_Init>
 10071a6:	4581                	li	a1,0
 10071a8:	456d                	li	a0,27
 10071aa:	e7cfc0ef          	jal	ra,1003826 <GPIO_WakeUp>
 10071ae:	04000593          	li	a1,64
 10071b2:	4571                	li	a0,28
 10071b4:	d6afc0ef          	jal	ra,100371e <GPIO_Init>
 10071b8:	4581                	li	a1,0
 10071ba:	4571                	li	a0,28
 10071bc:	e6afc0ef          	jal	ra,1003826 <GPIO_WakeUp>
 10071c0:	04000593          	li	a1,64
 10071c4:	4575                	li	a0,29
 10071c6:	d58fc0ef          	jal	ra,100371e <GPIO_Init>
 10071ca:	4581                	li	a1,0
 10071cc:	4575                	li	a0,29
 10071ce:	e58fc0ef          	jal	ra,1003826 <GPIO_WakeUp>
 10071d2:	04000593          	li	a1,64
 10071d6:	4579                	li	a0,30
 10071d8:	d46fc0ef          	jal	ra,100371e <GPIO_Init>
 10071dc:	4581                	li	a1,0
 10071de:	4579                	li	a0,30
 10071e0:	e46fc0ef          	jal	ra,1003826 <GPIO_WakeUp>
 10071e4:	04000593          	li	a1,64
 10071e8:	457d                	li	a0,31
 10071ea:	d34fc0ef          	jal	ra,100371e <GPIO_Init>
 10071ee:	4581                	li	a1,0
 10071f0:	457d                	li	a0,31
 10071f2:	e34fc0ef          	jal	ra,1003826 <GPIO_WakeUp>
 10071f6:	0a70506f          	j	100ca9c <__riscv_restore_0>

010071fa <keyscan_stop>:
keyscan_stop():
 10071fa:	07f052ef          	jal	t0,100ca78 <__riscv_save_0>
 10071fe:	100107b7          	lui	a5,0x10010
 1007202:	0467c503          	lbu	a0,70(a5) # 10010046 <key_report_timernum>
 1007206:	bd5fa0ef          	jal	ra,1001dda <swtimer_stop>
 100720a:	e8bff0ef          	jal	ra,1007094 <keyscan_row_cfg>
 100720e:	08f0506f          	j	100ca9c <__riscv_restore_0>

01007212 <keyscan_start>:
keyscan_start():
 1007212:	067052ef          	jal	t0,100ca78 <__riscv_save_0>
 1007216:	100137b7          	lui	a5,0x10013
 100721a:	30078623          	sb	zero,780(a5) # 1001330c <key_changed>
 100721e:	ec7ff0ef          	jal	ra,10070e4 <keyscan_col_cfg>
 1007222:	e73ff0ef          	jal	ra,1007094 <keyscan_row_cfg>
 1007226:	cc5ff0ef          	jal	ra,1006eea <keyscan_once>
 100722a:	10013537          	lui	a0,0x10013
 100722e:	4619                	li	a2,6
 1007230:	4581                	li	a1,0
 1007232:	31750513          	addi	a0,a0,791 # 10013317 <key_report+0x7>
 1007236:	18f050ef          	jal	ra,100cbc4 <memset>
 100723a:	100107b7          	lui	a5,0x10010
 100723e:	0467c503          	lbu	a0,70(a5) # 10010046 <key_report_timernum>
 1007242:	b53fa0ef          	jal	ra,1001d94 <swtimer_restart>
 1007246:	0570506f          	j	100ca9c <__riscv_restore_0>

0100724a <keyscan_init>:
keyscan_init():
 100724a:	02f052ef          	jal	t0,100ca78 <__riscv_save_0>
 100724e:	100107b7          	lui	a5,0x10010
 1007252:	72c78793          	addi	a5,a5,1836 # 1001072c <key_cfg>
 1007256:	10010737          	lui	a4,0x10010
 100725a:	c3cc                	sw	a1,4(a5)
 100725c:	c388                	sw	a0,0(a5)
 100725e:	70070713          	addi	a4,a4,1792 # 10010700 <keynum_buf>
 1007262:	469d                	li	a3,7
 1007264:	03100593          	li	a1,49
 1007268:	ffa68793          	addi	a5,a3,-6
 100726c:	0ff7f793          	andi	a5,a5,255
 1007270:	863a                	mv	a2,a4
 1007272:	00178513          	addi	a0,a5,1
 1007276:	00f60023          	sb	a5,0(a2)
 100727a:	0ff57793          	andi	a5,a0,255
 100727e:	0605                	addi	a2,a2,1
 1007280:	fed799e3          	bne	a5,a3,1007272 <keyscan_init+0x28>
 1007284:	0799                	addi	a5,a5,6
 1007286:	0ff7f693          	andi	a3,a5,255
 100728a:	0719                	addi	a4,a4,6
 100728c:	fcb69ee3          	bne	a3,a1,1007268 <keyscan_init+0x1e>
 1007290:	e55ff0ef          	jal	ra,10070e4 <keyscan_col_cfg>
 1007294:	e01ff0ef          	jal	ra,1007094 <keyscan_row_cfg>
 1007298:	c53ff0ef          	jal	ra,1006eea <keyscan_once>
 100729c:	01007537          	lui	a0,0x1007
 10072a0:	fe250513          	addi	a0,a0,-30 # 1006fe2 <key_task>
 10072a4:	bebfa0ef          	jal	ra,1001e8e <swtimer_add>
 10072a8:	10010737          	lui	a4,0x10010
 10072ac:	04a70323          	sb	a0,70(a4) # 10010046 <key_report_timernum>
 10072b0:	4739                	li	a4,14
 10072b2:	87aa                	mv	a5,a0
 10072b4:	00a76763          	bltu	a4,a0,10072c2 <keyscan_init+0x78>
 10072b8:	4605                	li	a2,1
 10072ba:	45a9                	li	a1,10
 10072bc:	b5ffa0ef          	jal	ra,1001e1a <swtimer_start>
 10072c0:	4781                	li	a5,0
 10072c2:	853e                	mv	a0,a5
 10072c4:	7d80506f          	j	100ca9c <__riscv_restore_0>

010072c8 <led_task>:
led_task():
 10072c8:	7b0052ef          	jal	t0,100ca78 <__riscv_save_0>
 10072cc:	10013437          	lui	s0,0x10013
 10072d0:	32044683          	lbu	a3,800(s0) # 10013320 <led>
 10072d4:	32040413          	addi	s0,s0,800
 10072d8:	0026f793          	andi	a5,a3,2
 10072dc:	02078163          	beqz	a5,10072fe <led_task+0x36>
 10072e0:	00245703          	lhu	a4,2(s0)
 10072e4:	8a91                	andi	a3,a3,4
 10072e6:	00645603          	lhu	a2,6(s0)
 10072ea:	06470713          	addi	a4,a4,100
 10072ee:	0742                	slli	a4,a4,0x10
 10072f0:	8341                	srli	a4,a4,0x10
 10072f2:	04068c63          	beqz	a3,100734a <led_task+0x82>
 10072f6:	02c77163          	bgeu	a4,a2,1007318 <led_task+0x50>
 10072fa:	00e41123          	sh	a4,2(s0)
 10072fe:	401c                	lw	a5,0(s0)
 1007300:	8385                	srli	a5,a5,0x1
 1007302:	8b85                	andi	a5,a5,1
 1007304:	06078c63          	beqz	a5,100737c <led_task+0xb4>
 1007308:	100107b7          	lui	a5,0x10010
 100730c:	0477c503          	lbu	a0,71(a5) # 10010047 <led_blk_timernum>
 1007310:	a85fa0ef          	jal	ra,1001d94 <swtimer_restart>
 1007314:	7880506f          	j	100ca9c <__riscv_restore_0>
 1007318:	00041123          	sh	zero,2(s0)
 100731c:	401c                	lw	a5,0(s0)
 100731e:	00044703          	lbu	a4,0(s0)
 1007322:	03e00593          	li	a1,62
 1007326:	838d                	srli	a5,a5,0x3
 1007328:	8b85                	andi	a5,a5,1
 100732a:	0017c793          	xori	a5,a5,1
 100732e:	078e                	slli	a5,a5,0x3
 1007330:	9b5d                	andi	a4,a4,-9
 1007332:	8fd9                	or	a5,a5,a4
 1007334:	00f40023          	sb	a5,0(s0)
 1007338:	8ba1                	andi	a5,a5,8
 100733a:	00079463          	bnez	a5,1007342 <led_task+0x7a>
 100733e:	03f00593          	li	a1,63
 1007342:	451d                	li	a0,7
 1007344:	bdafc0ef          	jal	ra,100371e <GPIO_Init>
 1007348:	bf5d                	j	10072fe <led_task+0x36>
 100734a:	00e41123          	sh	a4,2(s0)
 100734e:	fac768e3          	bltu	a4,a2,10072fe <led_task+0x36>
 1007352:	00445783          	lhu	a5,4(s0)
 1007356:	4418                	lw	a4,8(s0)
 1007358:	00041123          	sh	zero,2(s0)
 100735c:	0785                	addi	a5,a5,1
 100735e:	07c2                	slli	a5,a5,0x10
 1007360:	83c1                	srli	a5,a5,0x10
 1007362:	00f41223          	sh	a5,4(s0)
 1007366:	02c787b3          	mul	a5,a5,a2
 100736a:	fae7e9e3          	bltu	a5,a4,100731c <led_task+0x54>
 100736e:	00042023          	sw	zero,0(s0)
 1007372:	00042223          	sw	zero,4(s0)
 1007376:	00042423          	sw	zero,8(s0)
 100737a:	b7d1                	j	100733e <led_task+0x76>
 100737c:	4581                	li	a1,0
 100737e:	450d                	li	a0,3
 1007380:	f6eff0ef          	jal	ra,1006aee <app_sleep_lock_set>
 1007384:	4aa040ef          	jal	ra,100b82e <action_after_led_blk>
 1007388:	b771                	j	1007314 <led_task+0x4c>

0100738a <led_off>:
led_off():
 100738a:	6ee052ef          	jal	t0,100ca78 <__riscv_save_0>
 100738e:	10013437          	lui	s0,0x10013
 1007392:	4785                	li	a5,1
 1007394:	32040413          	addi	s0,s0,800 # 10013320 <led>
 1007398:	00a7ed63          	bltu	a5,a0,10073b2 <led_off+0x28>
 100739c:	03f00593          	li	a1,63
 10073a0:	451d                	li	a0,7
 10073a2:	00042023          	sw	zero,0(s0)
 10073a6:	00042223          	sw	zero,4(s0)
 10073aa:	00042423          	sw	zero,8(s0)
 10073ae:	b70fc0ef          	jal	ra,100371e <GPIO_Init>
 10073b2:	401c                	lw	a5,0(s0)
 10073b4:	0017f713          	andi	a4,a5,1
 10073b8:	00071a63          	bnez	a4,10073cc <led_off+0x42>
 10073bc:	8385                	srli	a5,a5,0x1
 10073be:	8b85                	andi	a5,a5,1
 10073c0:	00079663          	bnez	a5,10073cc <led_off+0x42>
 10073c4:	4581                	li	a1,0
 10073c6:	450d                	li	a0,3
 10073c8:	f26ff0ef          	jal	ra,1006aee <app_sleep_lock_set>
 10073cc:	6d00506f          	j	100ca9c <__riscv_restore_0>

010073d0 <led_on>:
led_on():
 10073d0:	68e052ef          	jal	t0,100ca5e <__riscv_save_4>
 10073d4:	89aa                	mv	s3,a0
 10073d6:	8a2e                	mv	s4,a1
 10073d8:	8932                	mv	s2,a2
 10073da:	00051763          	bnez	a0,10073e8 <led_on+0x18>
 10073de:	03e00593          	li	a1,62
 10073e2:	451d                	li	a0,7
 10073e4:	b3afc0ef          	jal	ra,100371e <GPIO_Init>
 10073e8:	44b1                	li	s1,12
 10073ea:	029984b3          	mul	s1,s3,s1
 10073ee:	100107b7          	lui	a5,0x10010
 10073f2:	0477ca83          	lbu	s5,71(a5) # 10010047 <led_blk_timernum>
 10073f6:	100137b7          	lui	a5,0x10013
 10073fa:	32078713          	addi	a4,a5,800 # 10013320 <led>
 10073fe:	32078413          	addi	s0,a5,800
 1007402:	94ba                	add	s1,s1,a4
 1007404:	000a1463          	bnez	s4,100740c <led_on+0x3c>
 1007408:	06090663          	beqz	s2,1007474 <led_on+0xa4>
 100740c:	4631                	li	a2,12
 100740e:	4581                	li	a1,0
 1007410:	8526                	mv	a0,s1
 1007412:	7b2050ef          	jal	ra,100cbc4 <memset>
 1007416:	4531                	li	a0,12
 1007418:	02a98533          	mul	a0,s3,a0
 100741c:	9522                	add	a0,a0,s0
 100741e:	00054703          	lbu	a4,0(a0)
 1007422:	9b55                	andi	a4,a4,-11
 1007424:	00a76793          	ori	a5,a4,10
 1007428:	00f50023          	sb	a5,0(a0)
 100742c:	020a0c63          	beqz	s4,1007464 <led_on+0x94>
 1007430:	01451323          	sh	s4,6(a0)
 1007434:	02091263          	bnez	s2,1007458 <led_on+0x88>
 1007438:	00e76713          	ori	a4,a4,14
 100743c:	00e50023          	sb	a4,0(a0)
 1007440:	4601                	li	a2,0
 1007442:	06400593          	li	a1,100
 1007446:	8556                	mv	a0,s5
 1007448:	9d3fa0ef          	jal	ra,1001e1a <swtimer_start>
 100744c:	4585                	li	a1,1
 100744e:	450d                	li	a0,3
 1007450:	e9eff0ef          	jal	ra,1006aee <app_sleep_lock_set>
 1007454:	63e0506f          	j	100ca92 <__riscv_restore_4>
 1007458:	9bed                	andi	a5,a5,-5
 100745a:	00f50023          	sb	a5,0(a0)
 100745e:	01252423          	sw	s2,8(a0)
 1007462:	bff9                	j	1007440 <led_on+0x70>
 1007464:	9bed                	andi	a5,a5,-5
 1007466:	00f50023          	sb	a5,0(a0)
 100746a:	01252423          	sw	s2,8(a0)
 100746e:	01251323          	sh	s2,6(a0)
 1007472:	b7f9                	j	1007440 <led_on+0x70>
 1007474:	8556                	mv	a0,s5
 1007476:	965fa0ef          	jal	ra,1001dda <swtimer_stop>
 100747a:	4631                	li	a2,12
 100747c:	4581                	li	a1,0
 100747e:	8526                	mv	a0,s1
 1007480:	744050ef          	jal	ra,100cbc4 <memset>
 1007484:	4785                	li	a5,1
 1007486:	00f48023          	sb	a5,0(s1)
 100748a:	b7c9                	j	100744c <led_on+0x7c>

0100748c <led_reinit>:
led_reinit():
 100748c:	100137b7          	lui	a5,0x10013
 1007490:	32078793          	addi	a5,a5,800 # 10013320 <led>
 1007494:	0007a023          	sw	zero,0(a5)
 1007498:	0007a223          	sw	zero,4(a5)
 100749c:	0007a423          	sw	zero,8(a5)
 10074a0:	8082                	ret

010074a2 <led_deinit>:
led_deinit():
 10074a2:	5d6052ef          	jal	t0,100ca78 <__riscv_save_0>
 10074a6:	03f00593          	li	a1,63
 10074aa:	451d                	li	a0,7
 10074ac:	a72fc0ef          	jal	ra,100371e <GPIO_Init>
 10074b0:	5ec0506f          	j	100ca9c <__riscv_restore_0>

010074b4 <led_init>:
led_init():
 10074b4:	5c4052ef          	jal	t0,100ca78 <__riscv_save_0>
 10074b8:	03f00593          	li	a1,63
 10074bc:	451d                	li	a0,7
 10074be:	a60fc0ef          	jal	ra,100371e <GPIO_Init>
 10074c2:	01007537          	lui	a0,0x1007
 10074c6:	2c850513          	addi	a0,a0,712 # 10072c8 <led_task>
 10074ca:	9c5fa0ef          	jal	ra,1001e8e <swtimer_add>
 10074ce:	100107b7          	lui	a5,0x10010
 10074d2:	04a783a3          	sb	a0,71(a5) # 10010047 <led_blk_timernum>
 10074d6:	47b9                	li	a5,14
 10074d8:	00a7e363          	bltu	a5,a0,10074de <led_init+0x2a>
 10074dc:	4501                	li	a0,0
 10074de:	5be0506f          	j	100ca9c <__riscv_restore_0>

010074e2 <get_key_press_state>:
get_key_press_state():
 10074e2:	100107b7          	lui	a5,0x10010
 10074e6:	7347c503          	lbu	a0,1844(a5) # 10010734 <key_pressed>
 10074ea:	8082                	ret

010074ec <set_key_press_state>:
set_key_press_state():
 10074ec:	100107b7          	lui	a5,0x10010
 10074f0:	72a78a23          	sb	a0,1844(a5) # 10010734 <key_pressed>
 10074f4:	8082                	ret

010074f6 <set_pwm_freq_div>:
set_pwm_freq_div():
 10074f6:	582052ef          	jal	t0,100ca78 <__riscv_save_0>
 10074fa:	c0dfc0ef          	jal	ra,1004106 <System_WorkClockGet>
 10074fe:	016e37b7          	lui	a5,0x16e3
 1007502:	60078793          	addi	a5,a5,1536 # 16e3600 <_sidata+0x6d3a28>
 1007506:	02f55533          	divu	a0,a0,a5
 100750a:	100107b7          	lui	a5,0x10010
 100750e:	04a78623          	sb	a0,76(a5) # 1001004c <clk_div>
 1007512:	58a0506f          	j	100ca9c <__riscv_restore_0>

01007516 <ir_set_freq>:
ir_set_freq():
 1007516:	562052ef          	jal	t0,100ca78 <__riscv_save_0>
 100751a:	016e37b7          	lui	a5,0x16e3
 100751e:	60078793          	addi	a5,a5,1536 # 16e3600 <_sidata+0x6d3a28>
 1007522:	02a7c533          	div	a0,a5,a0
 1007526:	4b6050ef          	jal	ra,100c9dc <__floatsidf>
 100752a:	0100d7b7          	lui	a5,0x100d
 100752e:	7807a603          	lw	a2,1920(a5) # 100d780 <AAP_StopAnc4+0x384>
 1007532:	7847a683          	lw	a3,1924(a5)
 1007536:	842a                	mv	s0,a0
 1007538:	84ae                	mv	s1,a1
 100753a:	651040ef          	jal	ra,100c38a <__muldf3>
 100753e:	402050ef          	jal	ra,100c940 <__fixunsdfsi>
 1007542:	100107b7          	lui	a5,0x10010
 1007546:	04a79423          	sh	a0,72(a5) # 10010048 <ir_pcnt>
 100754a:	0100d7b7          	lui	a5,0x100d
 100754e:	7887a603          	lw	a2,1928(a5) # 100d788 <AAP_StopAnc4+0x38c>
 1007552:	78c7a683          	lw	a3,1932(a5)
 1007556:	8522                	mv	a0,s0
 1007558:	85a6                	mv	a1,s1
 100755a:	631040ef          	jal	ra,100c38a <__muldf3>
 100755e:	3e2050ef          	jal	ra,100c940 <__fixunsdfsi>
 1007562:	100107b7          	lui	a5,0x10010
 1007566:	04a79523          	sh	a0,74(a5) # 1001004a <ir_ncnt>
 100756a:	5320506f          	j	100ca9c <__riscv_restore_0>

0100756e <ir_gpio_send>:
ir_gpio_send():
 100756e:	50a052ef          	jal	t0,100ca78 <__riscv_save_0>
 1007572:	842e                	mv	s0,a1
 1007574:	03f00593          	li	a1,63
 1007578:	00051463          	bnez	a0,1007580 <ir_gpio_send+0x12>
 100757c:	03e00593          	li	a1,62
 1007580:	4511                	li	a0,4
 1007582:	99cfc0ef          	jal	ra,100371e <GPIO_Init>
 1007586:	8522                	mv	a0,s0
 1007588:	beffc0ef          	jal	ra,1004176 <SysTick_DelayUs>
 100758c:	5100506f          	j	100ca9c <__riscv_restore_0>

01007590 <ir_pwm_send>:
ir_pwm_send():
 1007590:	4e8052ef          	jal	t0,100ca78 <__riscv_save_0>
 1007594:	842e                	mv	s0,a1
 1007596:	02050963          	beqz	a0,10075c8 <ir_pwm_send+0x38>
 100759a:	100107b7          	lui	a5,0x10010
 100759e:	04c7c683          	lbu	a3,76(a5) # 1001004c <clk_div>
 10075a2:	100107b7          	lui	a5,0x10010
 10075a6:	04a7d603          	lhu	a2,74(a5) # 1001004a <ir_ncnt>
 10075aa:	100107b7          	lui	a5,0x10010
 10075ae:	0487d583          	lhu	a1,72(a5) # 10010048 <ir_pcnt>
 10075b2:	16fd                	addi	a3,a3,-1
 10075b4:	0ff6f693          	andi	a3,a3,255
 10075b8:	4511                	li	a0,4
 10075ba:	efdfc0ef          	jal	ra,10044b6 <PWM_Config>
 10075be:	8522                	mv	a0,s0
 10075c0:	bb7fc0ef          	jal	ra,1004176 <SysTick_DelayUs>
 10075c4:	4d80506f          	j	100ca9c <__riscv_restore_0>
 10075c8:	4511                	li	a0,4
 10075ca:	f39fc0ef          	jal	ra,1004502 <PWM_DisConfig>
 10075ce:	03e00593          	li	a1,62
 10075d2:	4511                	li	a0,4
 10075d4:	94afc0ef          	jal	ra,100371e <GPIO_Init>
 10075d8:	b7dd                	j	10075be <ir_pwm_send+0x2e>

010075da <ir_without_freq>:
ir_without_freq():
 10075da:	49e052ef          	jal	t0,100ca78 <__riscv_save_0>
 10075de:	4585                	li	a1,1
 10075e0:	4511                	li	a0,4
 10075e2:	10010437          	lui	s0,0x10010
 10075e6:	d08ff0ef          	jal	ra,1006aee <app_sleep_lock_set>
 10075ea:	4481                	li	s1,0
 10075ec:	74040413          	addi	s0,s0,1856 # 10010740 <ir_send_param>
 10075f0:	00045783          	lhu	a5,0(s0)
 10075f4:	04f4e763          	bltu	s1,a5,1007642 <ir_without_freq+0x68>
 10075f8:	100107b7          	lui	a5,0x10010
 10075fc:	73878793          	addi	a5,a5,1848 # 10010738 <ir_endcode_param>
 1007600:	0007c703          	lbu	a4,0(a5)
 1007604:	02070363          	beqz	a4,100762a <ir_without_freq+0x50>
 1007608:	0027d583          	lhu	a1,2(a5)
 100760c:	0047d603          	lhu	a2,4(a5)
 1007610:	4048                	lw	a0,4(s0)
 1007612:	00078023          	sb	zero,0(a5)
 1007616:	8e0d                	sub	a2,a2,a1
 1007618:	0642                	slli	a2,a2,0x10
 100761a:	8241                	srli	a2,a2,0x10
 100761c:	058a                	slli	a1,a1,0x2
 100761e:	00c41023          	sh	a2,0(s0)
 1007622:	95aa                	add	a1,a1,a0
 1007624:	060a                	slli	a2,a2,0x2
 1007626:	4e4050ef          	jal	ra,100cb0a <memcpy>
 100762a:	eb9ff0ef          	jal	ra,10074e2 <get_key_press_state>
 100762e:	04050563          	beqz	a0,1007678 <ir_without_freq+0x9e>
 1007632:	01007537          	lui	a0,0x1007
 1007636:	5da50513          	addi	a0,a0,1498 # 10075da <ir_without_freq>
 100763a:	98aff0ef          	jal	ra,10067c4 <app_queue_insert>
 100763e:	45e0506f          	j	100ca9c <__riscv_restore_0>
 1007642:	00148793          	addi	a5,s1,1
 1007646:	4058                	lw	a4,4(s0)
 1007648:	07c2                	slli	a5,a5,0x10
 100764a:	83c1                	srli	a5,a5,0x10
 100764c:	078a                	slli	a5,a5,0x2
 100764e:	97ba                	add	a5,a5,a4
 1007650:	438c                	lw	a1,0(a5)
 1007652:	00249793          	slli	a5,s1,0x2
 1007656:	973e                	add	a4,a4,a5
 1007658:	431c                	lw	a5,0(a4)
 100765a:	00079963          	bnez	a5,100766c <ir_without_freq+0x92>
 100765e:	4501                	li	a0,0
 1007660:	00059963          	bnez	a1,1007672 <ir_without_freq+0x98>
 1007664:	0489                	addi	s1,s1,2
 1007666:	04c2                	slli	s1,s1,0x10
 1007668:	80c1                	srli	s1,s1,0x10
 100766a:	b759                	j	10075f0 <ir_without_freq+0x16>
 100766c:	fe058ce3          	beqz	a1,1007664 <ir_without_freq+0x8a>
 1007670:	4505                	li	a0,1
 1007672:	efdff0ef          	jal	ra,100756e <ir_gpio_send>
 1007676:	b7fd                	j	1007664 <ir_without_freq+0x8a>
 1007678:	00241783          	lh	a5,2(s0)
 100767c:	fff78713          	addi	a4,a5,-1
 1007680:	00e41123          	sh	a4,2(s0)
 1007684:	faf047e3          	bgtz	a5,1007632 <ir_without_freq+0x58>
 1007688:	4581                	li	a1,0
 100768a:	4511                	li	a0,4
 100768c:	c62ff0ef          	jal	ra,1006aee <app_sleep_lock_set>
 1007690:	b77d                	j	100763e <ir_without_freq+0x64>

01007692 <ir_send>:
ir_send():
 1007692:	3e6052ef          	jal	t0,100ca78 <__riscv_save_0>
 1007696:	4585                	li	a1,1
 1007698:	4511                	li	a0,4
 100769a:	10010437          	lui	s0,0x10010
 100769e:	c50ff0ef          	jal	ra,1006aee <app_sleep_lock_set>
 10076a2:	4481                	li	s1,0
 10076a4:	74040413          	addi	s0,s0,1856 # 10010740 <ir_send_param>
 10076a8:	00045783          	lhu	a5,0(s0)
 10076ac:	04f4e763          	bltu	s1,a5,10076fa <ir_send+0x68>
 10076b0:	100107b7          	lui	a5,0x10010
 10076b4:	73878793          	addi	a5,a5,1848 # 10010738 <ir_endcode_param>
 10076b8:	0007c703          	lbu	a4,0(a5)
 10076bc:	02070363          	beqz	a4,10076e2 <ir_send+0x50>
 10076c0:	0027d583          	lhu	a1,2(a5)
 10076c4:	0047d603          	lhu	a2,4(a5)
 10076c8:	4048                	lw	a0,4(s0)
 10076ca:	00078023          	sb	zero,0(a5)
 10076ce:	8e0d                	sub	a2,a2,a1
 10076d0:	0642                	slli	a2,a2,0x10
 10076d2:	8241                	srli	a2,a2,0x10
 10076d4:	058a                	slli	a1,a1,0x2
 10076d6:	00c41023          	sh	a2,0(s0)
 10076da:	95aa                	add	a1,a1,a0
 10076dc:	060a                	slli	a2,a2,0x2
 10076de:	42c050ef          	jal	ra,100cb0a <memcpy>
 10076e2:	e01ff0ef          	jal	ra,10074e2 <get_key_press_state>
 10076e6:	04050563          	beqz	a0,1007730 <ir_send+0x9e>
 10076ea:	01007537          	lui	a0,0x1007
 10076ee:	69250513          	addi	a0,a0,1682 # 1007692 <ir_send>
 10076f2:	8d2ff0ef          	jal	ra,10067c4 <app_queue_insert>
 10076f6:	3a60506f          	j	100ca9c <__riscv_restore_0>
 10076fa:	00148793          	addi	a5,s1,1
 10076fe:	4058                	lw	a4,4(s0)
 1007700:	07c2                	slli	a5,a5,0x10
 1007702:	83c1                	srli	a5,a5,0x10
 1007704:	078a                	slli	a5,a5,0x2
 1007706:	97ba                	add	a5,a5,a4
 1007708:	438c                	lw	a1,0(a5)
 100770a:	00249793          	slli	a5,s1,0x2
 100770e:	973e                	add	a4,a4,a5
 1007710:	431c                	lw	a5,0(a4)
 1007712:	00079963          	bnez	a5,1007724 <ir_send+0x92>
 1007716:	4501                	li	a0,0
 1007718:	00059963          	bnez	a1,100772a <ir_send+0x98>
 100771c:	0489                	addi	s1,s1,2
 100771e:	04c2                	slli	s1,s1,0x10
 1007720:	80c1                	srli	s1,s1,0x10
 1007722:	b759                	j	10076a8 <ir_send+0x16>
 1007724:	fe058ce3          	beqz	a1,100771c <ir_send+0x8a>
 1007728:	4505                	li	a0,1
 100772a:	e67ff0ef          	jal	ra,1007590 <ir_pwm_send>
 100772e:	b7fd                	j	100771c <ir_send+0x8a>
 1007730:	00241783          	lh	a5,2(s0)
 1007734:	fff78713          	addi	a4,a5,-1
 1007738:	00e41123          	sh	a4,2(s0)
 100773c:	faf047e3          	bgtz	a5,10076ea <ir_send+0x58>
 1007740:	100107b7          	lui	a5,0x10010
 1007744:	7887c683          	lbu	a3,1928(a5) # 10010788 <gemini_state>
 1007748:	873e                	mv	a4,a5
 100774a:	04069063          	bnez	a3,100778a <ir_send+0xf8>
 100774e:	100107b7          	lui	a5,0x10010
 1007752:	7787c783          	lbu	a5,1912(a5) # 10010778 <en_type>
 1007756:	4691                	li	a3,4
 1007758:	00d78863          	beq	a5,a3,1007768 <ir_send+0xd6>
 100775c:	17e9                	addi	a5,a5,-6
 100775e:	0ff7f793          	andi	a5,a5,255
 1007762:	4685                	li	a3,1
 1007764:	02f6e363          	bltu	a3,a5,100778a <ir_send+0xf8>
 1007768:	4048                	lw	a0,4(s0)
 100776a:	100135b7          	lui	a1,0x10013
 100776e:	4785                	li	a5,1
 1007770:	0b800613          	li	a2,184
 1007774:	72c58593          	addi	a1,a1,1836 # 1001372c <gemini_hand>
 1007778:	78f70423          	sb	a5,1928(a4)
 100777c:	38e050ef          	jal	ra,100cb0a <memcpy>
 1007780:	02e00793          	li	a5,46
 1007784:	00f41023          	sh	a5,0(s0)
 1007788:	b78d                	j	10076ea <ir_send+0x58>
 100778a:	4581                	li	a1,0
 100778c:	4511                	li	a0,4
 100778e:	b60ff0ef          	jal	ra,1006aee <app_sleep_lock_set>
 1007792:	b795                	j	10076f6 <ir_send+0x64>

01007794 <upt_pwm_time_pulse>:
upt_pwm_time_pulse():
 1007794:	100107b7          	lui	a5,0x10010
 1007798:	74078793          	addi	a5,a5,1856 # 10010740 <ir_send_param>
 100779c:	0007d703          	lhu	a4,0(a5)
 10077a0:	43d4                	lw	a3,4(a5)
 10077a2:	00052803          	lw	a6,0(a0)
 10077a6:	00271613          	slli	a2,a4,0x2
 10077aa:	414c                	lw	a1,4(a0)
 10077ac:	9636                	add	a2,a2,a3
 10077ae:	4505                	li	a0,1
 10077b0:	c208                	sw	a0,0(a2)
 10077b2:	01062223          	sw	a6,4(a2)
 10077b6:	00270613          	addi	a2,a4,2
 10077ba:	0642                	slli	a2,a2,0x10
 10077bc:	8241                	srli	a2,a2,0x10
 10077be:	060a                	slli	a2,a2,0x2
 10077c0:	96b2                	add	a3,a3,a2
 10077c2:	0006a023          	sw	zero,0(a3)
 10077c6:	c2cc                	sw	a1,4(a3)
 10077c8:	0711                	addi	a4,a4,4
 10077ca:	00e79023          	sh	a4,0(a5)
 10077ce:	8082                	ret

010077d0 <philips_upt_pwm_time_pulse>:
philips_upt_pwm_time_pulse():
 10077d0:	100105b7          	lui	a1,0x10010
 10077d4:	74058593          	addi	a1,a1,1856 # 10010740 <ir_send_param>
 10077d8:	0005d783          	lhu	a5,0(a1)
 10077dc:	41d4                	lw	a3,4(a1)
 10077de:	00052803          	lw	a6,0(a0)
 10077e2:	00278713          	addi	a4,a5,2
 10077e6:	0742                	slli	a4,a4,0x10
 10077e8:	8341                	srli	a4,a4,0x10
 10077ea:	00279613          	slli	a2,a5,0x2
 10077ee:	070a                	slli	a4,a4,0x2
 10077f0:	00c68333          	add	t1,a3,a2
 10077f4:	00e688b3          	add	a7,a3,a4
 10077f8:	0611                	addi	a2,a2,4
 10077fa:	0711                	addi	a4,a4,4
 10077fc:	9636                	add	a2,a2,a3
 10077fe:	9736                	add	a4,a4,a3
 1007800:	4154                	lw	a3,4(a0)
 1007802:	0791                	addi	a5,a5,4
 1007804:	07c2                	slli	a5,a5,0x10
 1007806:	83c1                	srli	a5,a5,0x10
 1007808:	00068e63          	beqz	a3,1007824 <philips_upt_pwm_time_pulse+0x54>
 100780c:	4685                	li	a3,1
 100780e:	00d32023          	sw	a3,0(t1)
 1007812:	01062023          	sw	a6,0(a2)
 1007816:	0008a023          	sw	zero,0(a7) # 10000000 <_sidata+0xeff0428>
 100781a:	01072023          	sw	a6,0(a4)
 100781e:	00f59023          	sh	a5,0(a1)
 1007822:	8082                	ret
 1007824:	00032023          	sw	zero,0(t1)
 1007828:	01062023          	sw	a6,0(a2)
 100782c:	4685                	li	a3,1
 100782e:	00d8a023          	sw	a3,0(a7)
 1007832:	b7e5                	j	100781a <philips_upt_pwm_time_pulse+0x4a>

01007834 <FB739A_upt_pwm_time_pulse>:
FB739A_upt_pwm_time_pulse():
 1007834:	100107b7          	lui	a5,0x10010
 1007838:	10010637          	lui	a2,0x10010
 100783c:	7567df03          	lhu	t5,1878(a5) # 10010756 <bit1_l_tm>
 1007840:	74060793          	addi	a5,a2,1856 # 10010740 <ir_send_param>
 1007844:	0047a303          	lw	t1,4(a5)
 1007848:	0007d783          	lhu	a5,0(a5)
 100784c:	4114                	lw	a3,0(a0)
 100784e:	10010eb7          	lui	t4,0x10010
 1007852:	00279713          	slli	a4,a5,0x2
 1007856:	00e305b3          	add	a1,t1,a4
 100785a:	752edf83          	lhu	t6,1874(t4) # 10010752 <bit0_l_tm>
 100785e:	0789                	addi	a5,a5,2
 1007860:	4e85                	li	t4,1
 1007862:	00452e03          	lw	t3,4(a0)
 1007866:	0711                	addi	a4,a4,4
 1007868:	07c2                	slli	a5,a5,0x10
 100786a:	0016f893          	andi	a7,a3,1
 100786e:	01d5a023          	sw	t4,0(a1)
 1007872:	00850813          	addi	a6,a0,8
 1007876:	971a                	add	a4,a4,t1
 1007878:	83c1                	srli	a5,a5,0x10
 100787a:	74060613          	addi	a2,a2,1856
 100787e:	00088d63          	beqz	a7,1007898 <FB739A_upt_pwm_time_pulse+0x64>
 1007882:	01e72023          	sw	t5,0(a4)
 1007886:	00f61023          	sh	a5,0(a2)
 100788a:	1e7d                	addi	t3,t3,-1
 100788c:	8285                	srli	a3,a3,0x1
 100788e:	0541                	addi	a0,a0,16
 1007890:	4701                	li	a4,0
 1007892:	4285                	li	t0,1
 1007894:	4581                	li	a1,0
 1007896:	a82d                	j	10078d0 <FB739A_upt_pwm_time_pulse+0x9c>
 1007898:	01f72023          	sw	t6,0(a4)
 100789c:	b7ed                	j	1007886 <FB739A_upt_pwm_time_pulse+0x52>
 100789e:	00279713          	slli	a4,a5,0x2
 10078a2:	00e30eb3          	add	t4,t1,a4
 10078a6:	0016f393          	andi	t2,a3,1
 10078aa:	0711                	addi	a4,a4,4
 10078ac:	971a                	add	a4,a4,t1
 10078ae:	02038e63          	beqz	t2,10078ea <FB739A_upt_pwm_time_pulse+0xb6>
 10078b2:	02088963          	beqz	a7,10078e4 <FB739A_upt_pwm_time_pulse+0xb0>
 10078b6:	000ea023          	sw	zero,0(t4)
 10078ba:	01e72023          	sw	t5,0(a4)
 10078be:	0585                	addi	a1,a1,1
 10078c0:	0789                	addi	a5,a5,2
 10078c2:	05c2                	slli	a1,a1,0x10
 10078c4:	07c2                	slli	a5,a5,0x10
 10078c6:	8285                	srli	a3,a3,0x1
 10078c8:	81c1                	srli	a1,a1,0x10
 10078ca:	83c1                	srli	a5,a5,0x10
 10078cc:	4705                	li	a4,1
 10078ce:	889e                	mv	a7,t2
 10078d0:	fdc5e7e3          	bltu	a1,t3,100789e <FB739A_upt_pwm_time_pulse+0x6a>
 10078d4:	03050563          	beq	a0,a6,10078fe <FB739A_upt_pwm_time_pulse+0xca>
 10078d8:	00082683          	lw	a3,0(a6)
 10078dc:	0821                	addi	a6,a6,8
 10078de:	ffc82e03          	lw	t3,-4(a6)
 10078e2:	bf4d                	j	1007894 <FB739A_upt_pwm_time_pulse+0x60>
 10078e4:	005ea023          	sw	t0,0(t4)
 10078e8:	bfc9                	j	10078ba <FB739A_upt_pwm_time_pulse+0x86>
 10078ea:	00088763          	beqz	a7,10078f8 <FB739A_upt_pwm_time_pulse+0xc4>
 10078ee:	005ea023          	sw	t0,0(t4)
 10078f2:	01f72023          	sw	t6,0(a4)
 10078f6:	b7e1                	j	10078be <FB739A_upt_pwm_time_pulse+0x8a>
 10078f8:	000ea023          	sw	zero,0(t4)
 10078fc:	bfdd                	j	10078f2 <FB739A_upt_pwm_time_pulse+0xbe>
 10078fe:	00070463          	beqz	a4,1007906 <FB739A_upt_pwm_time_pulse+0xd2>
 1007902:	00f61023          	sh	a5,0(a2)
 1007906:	8082                	ret

01007908 <rpt_bit_pwm>:
rpt_bit_pwm():
 1007908:	170052ef          	jal	t0,100ca78 <__riscv_save_0>
 100790c:	411c                	lw	a5,0(a0)
 100790e:	1141                	addi	sp,sp,-16
 1007910:	842a                	mv	s0,a0
 1007912:	c43e                	sw	a5,8(sp)
 1007914:	415c                	lw	a5,4(a0)
 1007916:	0028                	addi	a0,sp,8
 1007918:	c63e                	sw	a5,12(sp)
 100791a:	e7bff0ef          	jal	ra,1007794 <upt_pwm_time_pulse>
 100791e:	441c                	lw	a5,8(s0)
 1007920:	0028                	addi	a0,sp,8
 1007922:	c43e                	sw	a5,8(sp)
 1007924:	445c                	lw	a5,12(s0)
 1007926:	c63e                	sw	a5,12(sp)
 1007928:	e6dff0ef          	jal	ra,1007794 <upt_pwm_time_pulse>
 100792c:	0141                	addi	sp,sp,16
 100792e:	16e0506f          	j	100ca9c <__riscv_restore_0>

01007932 <IRTI1250C5D7_bit_time>:
IRTI1250C5D7_bit_time():
 1007932:	11e052ef          	jal	t0,100ca50 <__riscv_save_10>
 1007936:	47bd                	li	a5,15
 1007938:	1141                	addi	sp,sp,-16
 100793a:	892a                	mv	s2,a0
 100793c:	44c1                	li	s1,16
 100793e:	00f58363          	beq	a1,a5,1007944 <IRTI1250C5D7_bit_time+0x12>
 1007942:	84ae                	mv	s1,a1
 1007944:	6a05                	lui	s4,0x1
 1007946:	4401                	li	s0,0
 1007948:	10010bb7          	lui	s7,0x10010
 100794c:	10010c37          	lui	s8,0x10010
 1007950:	100109b7          	lui	s3,0x10010
 1007954:	10010cb7          	lui	s9,0x10010
 1007958:	10010ab7          	lui	s5,0x10010
 100795c:	10010b37          	lui	s6,0x10010
 1007960:	2fca0a13          	addi	s4,s4,764 # 12fc <__EN_MIE-0xffed82>
 1007964:	00849563          	bne	s1,s0,100796e <IRTI1250C5D7_bit_time+0x3c>
 1007968:	0141                	addi	sp,sp,16
 100796a:	11e0506f          	j	100ca88 <__riscv_restore_10>
 100796e:	00197793          	andi	a5,s2,1
 1007972:	04078f63          	beqz	a5,10079d0 <IRTI1250C5D7_bit_time+0x9e>
 1007976:	778cc783          	lbu	a5,1912(s9) # 10010778 <en_type>
 100797a:	4725                	li	a4,9
 100797c:	00e79e63          	bne	a5,a4,1007998 <IRTI1250C5D7_bit_time+0x66>
 1007980:	00147793          	andi	a5,s0,1
 1007984:	74c9a703          	lw	a4,1868(s3) # 1001074c <pwm_time_pulse>
 1007988:	02079e63          	bnez	a5,10079c4 <IRTI1250C5D7_bit_time+0x92>
 100798c:	47a9                	li	a5,10
 100798e:	c43e                	sw	a5,8(sp)
 1007990:	0b400793          	li	a5,180
 1007994:	c63e                	sw	a5,12(sp)
 1007996:	a839                	j	10079b4 <IRTI1250C5D7_bit_time+0x82>
 1007998:	04000713          	li	a4,64
 100799c:	00e79e63          	bne	a5,a4,10079b8 <IRTI1250C5D7_bit_time+0x86>
 10079a0:	00147793          	andi	a5,s0,1
 10079a4:	74c9a703          	lw	a4,1868(s3)
 10079a8:	00078e63          	beqz	a5,10079c4 <IRTI1250C5D7_bit_time+0x92>
 10079ac:	0c800793          	li	a5,200
 10079b0:	c43e                	sw	a5,8(sp)
 10079b2:	c652                	sw	s4,12(sp)
 10079b4:	0028                	addi	a0,sp,8
 10079b6:	9702                	jalr	a4
 10079b8:	0405                	addi	s0,s0,1
 10079ba:	00195913          	srli	s2,s2,0x1
 10079be:	0ff47413          	andi	s0,s0,255
 10079c2:	b74d                	j	1007964 <IRTI1250C5D7_bit_time+0x32>
 10079c4:	756ad783          	lhu	a5,1878(s5) # 10010756 <bit1_l_tm>
 10079c8:	c43e                	sw	a5,8(sp)
 10079ca:	754b5783          	lhu	a5,1876(s6) # 10010754 <bit1_h_tm>
 10079ce:	b7d9                	j	1007994 <IRTI1250C5D7_bit_time+0x62>
 10079d0:	752bd783          	lhu	a5,1874(s7) # 10010752 <bit0_l_tm>
 10079d4:	0028                	addi	a0,sp,8
 10079d6:	c43e                	sw	a5,8(sp)
 10079d8:	750c5783          	lhu	a5,1872(s8) # 10010750 <bit0_h_tm>
 10079dc:	c63e                	sw	a5,12(sp)
 10079de:	74c9a783          	lw	a5,1868(s3)
 10079e2:	9782                	jalr	a5
 10079e4:	bfd1                	j	10079b8 <IRTI1250C5D7_bit_time+0x86>

010079e6 <repeat_bit_time>:
repeat_bit_time():
 10079e6:	078052ef          	jal	t0,100ca5e <__riscv_save_4>
 10079ea:	100107b7          	lui	a5,0x10010
 10079ee:	7787c783          	lbu	a5,1912(a5) # 10010778 <en_type>
 10079f2:	8a36                	mv	s4,a3
 10079f4:	4685                	li	a3,1
 10079f6:	fc878713          	addi	a4,a5,-56
 10079fa:	0ff77713          	andi	a4,a4,255
 10079fe:	842a                	mv	s0,a0
 1007a00:	892e                	mv	s2,a1
 1007a02:	89b2                	mv	s3,a2
 1007a04:	02e6e763          	bltu	a3,a4,1007a32 <repeat_bit_time+0x4c>
 1007a08:	4481                	li	s1,0
 1007a0a:	a005                	j	1007a2a <repeat_bit_time+0x44>
 1007a0c:	01041793          	slli	a5,s0,0x10
 1007a10:	87c1                	srai	a5,a5,0x10
 1007a12:	8552                	mv	a0,s4
 1007a14:	0007c363          	bltz	a5,1007a1a <repeat_bit_time+0x34>
 1007a18:	854e                	mv	a0,s3
 1007a1a:	0406                	slli	s0,s0,0x1
 1007a1c:	0442                	slli	s0,s0,0x10
 1007a1e:	0485                	addi	s1,s1,1
 1007a20:	ee9ff0ef          	jal	ra,1007908 <rpt_bit_pwm>
 1007a24:	8041                	srli	s0,s0,0x10
 1007a26:	0ff4f493          	andi	s1,s1,255
 1007a2a:	ff24e1e3          	bltu	s1,s2,1007a0c <repeat_bit_time+0x26>
 1007a2e:	0640506f          	j	100ca92 <__riscv_restore_4>
 1007a32:	fc678793          	addi	a5,a5,-58
 1007a36:	0ff7f793          	andi	a5,a5,255
 1007a3a:	fef6eae3          	bltu	a3,a5,1007a2e <repeat_bit_time+0x48>
 1007a3e:	47bd                	li	a5,15
 1007a40:	00f59363          	bne	a1,a5,1007a46 <repeat_bit_time+0x60>
 1007a44:	4941                	li	s2,16
 1007a46:	4481                	li	s1,0
 1007a48:	01098a93          	addi	s5,s3,16
 1007a4c:	010a0b13          	addi	s6,s4,16
 1007a50:	fd24ffe3          	bgeu	s1,s2,1007a2e <repeat_bit_time+0x48>
 1007a54:	00147793          	andi	a5,s0,1
 1007a58:	00078d63          	beqz	a5,1007a72 <repeat_bit_time+0x8c>
 1007a5c:	8552                	mv	a0,s4
 1007a5e:	eabff0ef          	jal	ra,1007908 <rpt_bit_pwm>
 1007a62:	855a                	mv	a0,s6
 1007a64:	0485                	addi	s1,s1,1
 1007a66:	d2fff0ef          	jal	ra,1007794 <upt_pwm_time_pulse>
 1007a6a:	8005                	srli	s0,s0,0x1
 1007a6c:	0ff4f493          	andi	s1,s1,255
 1007a70:	b7c5                	j	1007a50 <repeat_bit_time+0x6a>
 1007a72:	854e                	mv	a0,s3
 1007a74:	e95ff0ef          	jal	ra,1007908 <rpt_bit_pwm>
 1007a78:	8556                	mv	a0,s5
 1007a7a:	b7ed                	j	1007a64 <repeat_bit_time+0x7e>

01007a7c <philips_bit_time>:
philips_bit_time():
 1007a7c:	7d5042ef          	jal	t0,100ca50 <__riscv_save_10>
 1007a80:	10010937          	lui	s2,0x10010
 1007a84:	1141                	addi	sp,sp,-16
 1007a86:	84aa                	mv	s1,a0
 1007a88:	89ae                	mv	s3,a1
 1007a8a:	4401                	li	s0,0
 1007a8c:	10010a37          	lui	s4,0x10010
 1007a90:	10010ab7          	lui	s5,0x10010
 1007a94:	10010b37          	lui	s6,0x10010
 1007a98:	10010bb7          	lui	s7,0x10010
 1007a9c:	10010c37          	lui	s8,0x10010
 1007aa0:	77090913          	addi	s2,s2,1904 # 10010770 <lead_buf>
 1007aa4:	01341563          	bne	s0,s3,1007aae <philips_bit_time+0x32>
 1007aa8:	0141                	addi	sp,sp,16
 1007aaa:	7df0406f          	j	100ca88 <__riscv_restore_10>
 1007aae:	00e4d693          	srli	a3,s1,0xe
 1007ab2:	752a5703          	lhu	a4,1874(s4) # 10010752 <bit0_l_tm>
 1007ab6:	74caa783          	lw	a5,1868(s5) # 1001074c <pwm_time_pulse>
 1007aba:	00069f63          	bnez	a3,1007ad8 <philips_bit_time+0x5c>
 1007abe:	c43a                	sw	a4,8(sp)
 1007ac0:	00492703          	lw	a4,4(s2)
 1007ac4:	048a                	slli	s1,s1,0x2
 1007ac6:	c63a                	sw	a4,12(sp)
 1007ac8:	0028                	addi	a0,sp,8
 1007aca:	04c2                	slli	s1,s1,0x10
 1007acc:	0405                	addi	s0,s0,1
 1007ace:	9782                	jalr	a5
 1007ad0:	80c1                	srli	s1,s1,0x10
 1007ad2:	0ff47413          	andi	s0,s0,255
 1007ad6:	b7f9                	j	1007aa4 <philips_bit_time+0x28>
 1007ad8:	4605                	li	a2,1
 1007ada:	00c69663          	bne	a3,a2,1007ae6 <philips_bit_time+0x6a>
 1007ade:	c43a                	sw	a4,8(sp)
 1007ae0:	750c5703          	lhu	a4,1872(s8) # 10010750 <bit0_h_tm>
 1007ae4:	b7c5                	j	1007ac4 <philips_bit_time+0x48>
 1007ae6:	4609                	li	a2,2
 1007ae8:	c43a                	sw	a4,8(sp)
 1007aea:	00c69563          	bne	a3,a2,1007af4 <philips_bit_time+0x78>
 1007aee:	756bd703          	lhu	a4,1878(s7) # 10010756 <bit1_l_tm>
 1007af2:	bfc9                	j	1007ac4 <philips_bit_time+0x48>
 1007af4:	754b5703          	lhu	a4,1876(s6) # 10010754 <bit1_h_tm>
 1007af8:	b7f1                	j	1007ac4 <philips_bit_time+0x48>

01007afa <high_bit_time>:
high_bit_time():
 1007afa:	757042ef          	jal	t0,100ca50 <__riscv_save_10>
 1007afe:	1141                	addi	sp,sp,-16
 1007b00:	84aa                	mv	s1,a0
 1007b02:	89ae                	mv	s3,a1
 1007b04:	4401                	li	s0,0
 1007b06:	10010937          	lui	s2,0x10010
 1007b0a:	10010a37          	lui	s4,0x10010
 1007b0e:	10010ab7          	lui	s5,0x10010
 1007b12:	10010b37          	lui	s6,0x10010
 1007b16:	10010bb7          	lui	s7,0x10010
 1007b1a:	10010c37          	lui	s8,0x10010
 1007b1e:	03d00c93          	li	s9,61
 1007b22:	01341563          	bne	s0,s3,1007b2c <high_bit_time+0x32>
 1007b26:	0141                	addi	sp,sp,16
 1007b28:	7610406f          	j	100ca88 <__riscv_restore_10>
 1007b2c:	01049713          	slli	a4,s1,0x10
 1007b30:	8741                	srai	a4,a4,0x10
 1007b32:	74c92783          	lw	a5,1868(s2) # 1001074c <pwm_time_pulse>
 1007b36:	02075963          	bgez	a4,1007b68 <high_bit_time+0x6e>
 1007b3a:	756b5703          	lhu	a4,1878(s6) # 10010756 <bit1_l_tm>
 1007b3e:	c43a                	sw	a4,8(sp)
 1007b40:	754bd703          	lhu	a4,1876(s7) # 10010754 <bit1_h_tm>
 1007b44:	c63a                	sw	a4,12(sp)
 1007b46:	778c4703          	lbu	a4,1912(s8) # 10010778 <en_type>
 1007b4a:	01971463          	bne	a4,s9,1007b52 <high_bit_time+0x58>
 1007b4e:	0028                	addi	a0,sp,8
 1007b50:	9782                	jalr	a5
 1007b52:	74c92783          	lw	a5,1868(s2)
 1007b56:	0486                	slli	s1,s1,0x1
 1007b58:	0028                	addi	a0,sp,8
 1007b5a:	04c2                	slli	s1,s1,0x10
 1007b5c:	0405                	addi	s0,s0,1
 1007b5e:	9782                	jalr	a5
 1007b60:	80c1                	srli	s1,s1,0x10
 1007b62:	0ff47413          	andi	s0,s0,255
 1007b66:	bf75                	j	1007b22 <high_bit_time+0x28>
 1007b68:	752a5703          	lhu	a4,1874(s4) # 10010752 <bit0_l_tm>
 1007b6c:	c43a                	sw	a4,8(sp)
 1007b6e:	750ad703          	lhu	a4,1872(s5) # 10010750 <bit0_h_tm>
 1007b72:	c63a                	sw	a4,12(sp)
 1007b74:	b7cd                	j	1007b56 <high_bit_time+0x5c>

01007b76 <bit_time>:
bit_time():
 1007b76:	6db042ef          	jal	t0,100ca50 <__riscv_save_10>
 1007b7a:	47bd                	li	a5,15
 1007b7c:	1141                	addi	sp,sp,-16
 1007b7e:	892a                	mv	s2,a0
 1007b80:	44c1                	li	s1,16
 1007b82:	00f58363          	beq	a1,a5,1007b88 <bit_time+0x12>
 1007b86:	84ae                	mv	s1,a1
 1007b88:	4401                	li	s0,0
 1007b8a:	100109b7          	lui	s3,0x10010
 1007b8e:	10010a37          	lui	s4,0x10010
 1007b92:	10010ab7          	lui	s5,0x10010
 1007b96:	10010b37          	lui	s6,0x10010
 1007b9a:	10010bb7          	lui	s7,0x10010
 1007b9e:	00849563          	bne	s1,s0,1007ba8 <bit_time+0x32>
 1007ba2:	0141                	addi	sp,sp,16
 1007ba4:	6e50406f          	j	100ca88 <__riscv_restore_10>
 1007ba8:	00197713          	andi	a4,s2,1
 1007bac:	74c9a783          	lw	a5,1868(s3) # 1001074c <pwm_time_pulse>
 1007bb0:	02070063          	beqz	a4,1007bd0 <bit_time+0x5a>
 1007bb4:	756b5703          	lhu	a4,1878(s6) # 10010756 <bit1_l_tm>
 1007bb8:	c43a                	sw	a4,8(sp)
 1007bba:	754bd703          	lhu	a4,1876(s7) # 10010754 <bit1_h_tm>
 1007bbe:	c63a                	sw	a4,12(sp)
 1007bc0:	0028                	addi	a0,sp,8
 1007bc2:	0405                	addi	s0,s0,1
 1007bc4:	9782                	jalr	a5
 1007bc6:	00195913          	srli	s2,s2,0x1
 1007bca:	0ff47413          	andi	s0,s0,255
 1007bce:	bfc1                	j	1007b9e <bit_time+0x28>
 1007bd0:	752a5703          	lhu	a4,1874(s4) # 10010752 <bit0_l_tm>
 1007bd4:	c43a                	sw	a4,8(sp)
 1007bd6:	750ad703          	lhu	a4,1872(s5) # 10010750 <bit0_h_tm>
 1007bda:	b7d5                	j	1007bbe <bit_time+0x48>

01007bdc <Zenith_D5_ready>:
Zenith_D5_ready():
 1007bdc:	683042ef          	jal	t0,100ca5e <__riscv_save_4>
 1007be0:	10010437          	lui	s0,0x10010
 1007be4:	74040413          	addi	s0,s0,1856 # 10010740 <ir_send_param>
 1007be8:	89aa                	mv	s3,a0
 1007bea:	10013537          	lui	a0,0x10013
 1007bee:	32c50493          	addi	s1,a0,812 # 1001332c <ir_pulse_data>
 1007bf2:	7179                	addi	sp,sp,-48
 1007bf4:	00042023          	sw	zero,0(s0)
 1007bf8:	40000613          	li	a2,1024
 1007bfc:	4581                	li	a1,0
 1007bfe:	32c50513          	addi	a0,a0,812
 1007c02:	7c3040ef          	jal	ra,100cbc4 <memset>
 1007c06:	100107b7          	lui	a5,0x10010
 1007c0a:	7797c783          	lbu	a5,1913(a5) # 10010779 <user_repeat>
 1007c0e:	c044                	sw	s1,4(s0)
 1007c10:	00078463          	beqz	a5,1007c18 <Zenith_D5_ready+0x3c>
 1007c14:	00f41123          	sh	a5,2(s0)
 1007c18:	10010737          	lui	a4,0x10010
 1007c1c:	100107b7          	lui	a5,0x10010
 1007c20:	75675903          	lhu	s2,1878(a4) # 10010756 <bit1_l_tm>
 1007c24:	7787c783          	lbu	a5,1912(a5) # 10010778 <en_type>
 1007c28:	10010737          	lui	a4,0x10010
 1007c2c:	75275403          	lhu	s0,1874(a4) # 10010752 <bit0_l_tm>
 1007c30:	10010737          	lui	a4,0x10010
 1007c34:	75475483          	lhu	s1,1876(a4) # 10010754 <bit1_h_tm>
 1007c38:	03a00713          	li	a4,58
 1007c3c:	04e79e63          	bne	a5,a4,1007c98 <Zenith_D5_ready+0xbc>
 1007c40:	0828                	addi	a0,sp,24
 1007c42:	cc22                	sw	s0,24(sp)
 1007c44:	ce22                	sw	s0,28(sp)
 1007c46:	d022                	sw	s0,32(sp)
 1007c48:	d24a                	sw	s2,36(sp)
 1007c4a:	cbfff0ef          	jal	ra,1007908 <rpt_bit_pwm>
 1007c4e:	100107b7          	lui	a5,0x10010
 1007c52:	7847a783          	lw	a5,1924(a5) # 10010784 <brand_type>
 1007c56:	c022                	sw	s0,0(sp)
 1007c58:	c226                	sw	s1,4(sp)
 1007c5a:	0027d583          	lhu	a1,2(a5)
 1007c5e:	c422                	sw	s0,8(sp)
 1007c60:	c622                	sw	s0,12(sp)
 1007c62:	8191                	srli	a1,a1,0x4
 1007c64:	c822                	sw	s0,16(sp)
 1007c66:	ca4a                	sw	s2,20(sp)
 1007c68:	cc22                	sw	s0,24(sp)
 1007c6a:	ce22                	sw	s0,28(sp)
 1007c6c:	d022                	sw	s0,32(sp)
 1007c6e:	d24a                	sw	s2,36(sp)
 1007c70:	d422                	sw	s0,40(sp)
 1007c72:	d626                	sw	s1,44(sp)
 1007c74:	89bd                	andi	a1,a1,15
 1007c76:	00058763          	beqz	a1,1007c84 <Zenith_D5_ready+0xa8>
 1007c7a:	0834                	addi	a3,sp,24
 1007c7c:	860a                	mv	a2,sp
 1007c7e:	854e                	mv	a0,s3
 1007c80:	d67ff0ef          	jal	ra,10079e6 <repeat_bit_time>
 1007c84:	10010537          	lui	a0,0x10010
 1007c88:	76850513          	addi	a0,a0,1896 # 10010768 <stop_buf>
 1007c8c:	b09ff0ef          	jal	ra,1007794 <upt_pwm_time_pulse>
 1007c90:	4501                	li	a0,0
 1007c92:	6145                	addi	sp,sp,48
 1007c94:	5ff0406f          	j	100ca92 <__riscv_restore_4>
 1007c98:	03b00713          	li	a4,59
 1007c9c:	fae799e3          	bne	a5,a4,1007c4e <Zenith_D5_ready+0x72>
 1007ca0:	0828                	addi	a0,sp,24
 1007ca2:	cc22                	sw	s0,24(sp)
 1007ca4:	ce26                	sw	s1,28(sp)
 1007ca6:	aefff0ef          	jal	ra,1007794 <upt_pwm_time_pulse>
 1007caa:	b755                	j	1007c4e <Zenith_D5_ready+0x72>

01007cac <IRTI1250C5D7_ready>:
IRTI1250C5D7_ready():
 1007cac:	5cd042ef          	jal	t0,100ca78 <__riscv_save_0>
 1007cb0:	100104b7          	lui	s1,0x10010
 1007cb4:	74048493          	addi	s1,s1,1856 # 10010740 <ir_send_param>
 1007cb8:	842a                	mv	s0,a0
 1007cba:	10013537          	lui	a0,0x10013
 1007cbe:	1141                	addi	sp,sp,-16
 1007cc0:	32c50913          	addi	s2,a0,812 # 1001332c <ir_pulse_data>
 1007cc4:	0004a023          	sw	zero,0(s1)
 1007cc8:	40000613          	li	a2,1024
 1007ccc:	4581                	li	a1,0
 1007cce:	32c50513          	addi	a0,a0,812
 1007cd2:	c402                	sw	zero,8(sp)
 1007cd4:	c602                	sw	zero,12(sp)
 1007cd6:	6ef040ef          	jal	ra,100cbc4 <memset>
 1007cda:	100107b7          	lui	a5,0x10010
 1007cde:	7787c783          	lbu	a5,1912(a5) # 10010778 <en_type>
 1007ce2:	0124a223          	sw	s2,4(s1)
 1007ce6:	4725                	li	a4,9
 1007ce8:	08e79863          	bne	a5,a4,1007d78 <IRTI1250C5D7_ready+0xcc>
 1007cec:	100107b7          	lui	a5,0x10010
 1007cf0:	7807a783          	lw	a5,1920(a5) # 10010780 <cust_code>
 1007cf4:	00811623          	sh	s0,12(sp)
 1007cf8:	0007d783          	lhu	a5,0(a5)
 1007cfc:	00f11423          	sh	a5,8(sp)
 1007d00:	10010437          	lui	s0,0x10010
 1007d04:	77042783          	lw	a5,1904(s0) # 10010770 <lead_buf>
 1007d08:	00078663          	beqz	a5,1007d14 <IRTI1250C5D7_ready+0x68>
 1007d0c:	77040513          	addi	a0,s0,1904
 1007d10:	a85ff0ef          	jal	ra,1007794 <upt_pwm_time_pulse>
 1007d14:	100104b7          	lui	s1,0x10010
 1007d18:	7844a783          	lw	a5,1924(s1) # 10010784 <brand_type>
 1007d1c:	0027d583          	lhu	a1,2(a5)
 1007d20:	81b1                	srli	a1,a1,0xc
 1007d22:	00058663          	beqz	a1,1007d2e <IRTI1250C5D7_ready+0x82>
 1007d26:	00815503          	lhu	a0,8(sp)
 1007d2a:	e4dff0ef          	jal	ra,1007b76 <bit_time>
 1007d2e:	7844a783          	lw	a5,1924(s1)
 1007d32:	0027d583          	lhu	a1,2(a5)
 1007d36:	8191                	srli	a1,a1,0x4
 1007d38:	89bd                	andi	a1,a1,15
 1007d3a:	00058663          	beqz	a1,1007d46 <IRTI1250C5D7_ready+0x9a>
 1007d3e:	00c15503          	lhu	a0,12(sp)
 1007d42:	bf1ff0ef          	jal	ra,1007932 <IRTI1250C5D7_bit_time>
 1007d46:	7844a783          	lw	a5,1924(s1)
 1007d4a:	0027d583          	lhu	a1,2(a5)
 1007d4e:	89bd                	andi	a1,a1,15
 1007d50:	00058663          	beqz	a1,1007d5c <IRTI1250C5D7_ready+0xb0>
 1007d54:	00e15503          	lhu	a0,14(sp)
 1007d58:	e1fff0ef          	jal	ra,1007b76 <bit_time>
 1007d5c:	77040513          	addi	a0,s0,1904
 1007d60:	a35ff0ef          	jal	ra,1007794 <upt_pwm_time_pulse>
 1007d64:	10010537          	lui	a0,0x10010
 1007d68:	76850513          	addi	a0,a0,1896 # 10010768 <stop_buf>
 1007d6c:	a29ff0ef          	jal	ra,1007794 <upt_pwm_time_pulse>
 1007d70:	4501                	li	a0,0
 1007d72:	0141                	addi	sp,sp,16
 1007d74:	5290406f          	j	100ca9c <__riscv_restore_0>
 1007d78:	04000713          	li	a4,64
 1007d7c:	f8e792e3          	bne	a5,a4,1007d00 <IRTI1250C5D7_ready+0x54>
 1007d80:	100107b7          	lui	a5,0x10010
 1007d84:	7807a783          	lw	a5,1920(a5) # 10010780 <cust_code>
 1007d88:	0007d783          	lhu	a5,0(a5)
 1007d8c:	00f11423          	sh	a5,8(sp)
 1007d90:	00845793          	srli	a5,s0,0x8
 1007d94:	0ff47413          	andi	s0,s0,255
 1007d98:	00f11623          	sh	a5,12(sp)
 1007d9c:	00811723          	sh	s0,14(sp)
 1007da0:	b785                	j	1007d00 <IRTI1250C5D7_ready+0x54>

01007da2 <ir_fb739a_ready>:
ir_fb739a_ready():
 1007da2:	4d7042ef          	jal	t0,100ca78 <__riscv_save_0>
 1007da6:	84aa                	mv	s1,a0
 1007da8:	10010437          	lui	s0,0x10010
 1007dac:	10013537          	lui	a0,0x10013
 1007db0:	74040413          	addi	s0,s0,1856 # 10010740 <ir_send_param>
 1007db4:	32c50913          	addi	s2,a0,812 # 1001332c <ir_pulse_data>
 1007db8:	1141                	addi	sp,sp,-16
 1007dba:	40000613          	li	a2,1024
 1007dbe:	4581                	li	a1,0
 1007dc0:	32c50513          	addi	a0,a0,812
 1007dc4:	00042023          	sw	zero,0(s0)
 1007dc8:	5fd040ef          	jal	ra,100cbc4 <memset>
 1007dcc:	100107b7          	lui	a5,0x10010
 1007dd0:	7797c783          	lbu	a5,1913(a5) # 10010779 <user_repeat>
 1007dd4:	01242223          	sw	s2,4(s0)
 1007dd8:	00078463          	beqz	a5,1007de0 <ir_fb739a_ready+0x3e>
 1007ddc:	00f41123          	sh	a5,2(s0)
 1007de0:	100107b7          	lui	a5,0x10010
 1007de4:	7847a783          	lw	a5,1924(a5) # 10010784 <brand_type>
 1007de8:	c026                	sw	s1,0(sp)
 1007dea:	850a                	mv	a0,sp
 1007dec:	0027d783          	lhu	a5,2(a5)
 1007df0:	00c7d713          	srli	a4,a5,0xc
 1007df4:	c23a                	sw	a4,4(sp)
 1007df6:	10010737          	lui	a4,0x10010
 1007dfa:	78072703          	lw	a4,1920(a4) # 10010780 <cust_code>
 1007dfe:	83a1                	srli	a5,a5,0x8
 1007e00:	8bbd                	andi	a5,a5,15
 1007e02:	00075703          	lhu	a4,0(a4)
 1007e06:	c63e                	sw	a5,12(sp)
 1007e08:	100107b7          	lui	a5,0x10010
 1007e0c:	74c7a783          	lw	a5,1868(a5) # 1001074c <pwm_time_pulse>
 1007e10:	c43a                	sw	a4,8(sp)
 1007e12:	9782                	jalr	a5
 1007e14:	10010537          	lui	a0,0x10010
 1007e18:	76850513          	addi	a0,a0,1896 # 10010768 <stop_buf>
 1007e1c:	979ff0ef          	jal	ra,1007794 <upt_pwm_time_pulse>
 1007e20:	4501                	li	a0,0
 1007e22:	0141                	addi	sp,sp,16
 1007e24:	4790406f          	j	100ca9c <__riscv_restore_0>

01007e28 <repeat_bit_data_ready>:
repeat_bit_data_ready():
 1007e28:	437042ef          	jal	t0,100ca5e <__riscv_save_4>
 1007e2c:	10010437          	lui	s0,0x10010
 1007e30:	74040413          	addi	s0,s0,1856 # 10010740 <ir_send_param>
 1007e34:	892a                	mv	s2,a0
 1007e36:	10013537          	lui	a0,0x10013
 1007e3a:	32c50493          	addi	s1,a0,812 # 1001332c <ir_pulse_data>
 1007e3e:	7139                	addi	sp,sp,-64
 1007e40:	00042023          	sw	zero,0(s0)
 1007e44:	40000613          	li	a2,1024
 1007e48:	4581                	li	a1,0
 1007e4a:	32c50513          	addi	a0,a0,812
 1007e4e:	577040ef          	jal	ra,100cbc4 <memset>
 1007e52:	100107b7          	lui	a5,0x10010
 1007e56:	7797c783          	lbu	a5,1913(a5) # 10010779 <user_repeat>
 1007e5a:	c044                	sw	s1,4(s0)
 1007e5c:	00078463          	beqz	a5,1007e64 <repeat_bit_data_ready+0x3c>
 1007e60:	00f41123          	sh	a5,2(s0)
 1007e64:	100107b7          	lui	a5,0x10010
 1007e68:	7527d483          	lhu	s1,1874(a5) # 10010752 <bit0_l_tm>
 1007e6c:	100107b7          	lui	a5,0x10010
 1007e70:	7507d403          	lhu	s0,1872(a5) # 10010750 <bit0_h_tm>
 1007e74:	4795                	li	a5,5
 1007e76:	1028                	addi	a0,sp,40
 1007e78:	02f407b3          	mul	a5,s0,a5
 1007e7c:	00141993          	slli	s3,s0,0x1
 1007e80:	d426                	sw	s1,40(sp)
 1007e82:	d622                	sw	s0,44(sp)
 1007e84:	d826                	sw	s1,48(sp)
 1007e86:	da4e                	sw	s3,52(sp)
 1007e88:	dc26                	sw	s1,56(sp)
 1007e8a:	de3e                	sw	a5,60(sp)
 1007e8c:	a7dff0ef          	jal	ra,1007908 <rpt_bit_pwm>
 1007e90:	1828                	addi	a0,sp,56
 1007e92:	903ff0ef          	jal	ra,1007794 <upt_pwm_time_pulse>
 1007e96:	478d                	li	a5,3
 1007e98:	02f407b3          	mul	a5,s0,a5
 1007e9c:	c426                	sw	s1,8(sp)
 1007e9e:	c826                	sw	s1,16(sp)
 1007ea0:	cc26                	sw	s1,24(sp)
 1007ea2:	ce22                	sw	s0,28(sp)
 1007ea4:	d026                	sw	s1,32(sp)
 1007ea6:	d24e                	sw	s3,36(sp)
 1007ea8:	c63e                	sw	a5,12(sp)
 1007eaa:	00241793          	slli	a5,s0,0x2
 1007eae:	ca3e                	sw	a5,20(sp)
 1007eb0:	100107b7          	lui	a5,0x10010
 1007eb4:	7847a783          	lw	a5,1924(a5) # 10010784 <brand_type>
 1007eb8:	0027d583          	lhu	a1,2(a5)
 1007ebc:	81b1                	srli	a1,a1,0xc
 1007ebe:	00058a63          	beqz	a1,1007ed2 <repeat_bit_data_ready+0xaa>
 1007ec2:	00891513          	slli	a0,s2,0x8
 1007ec6:	0542                	slli	a0,a0,0x10
 1007ec8:	8141                	srli	a0,a0,0x10
 1007eca:	0834                	addi	a3,sp,24
 1007ecc:	0030                	addi	a2,sp,8
 1007ece:	b19ff0ef          	jal	ra,10079e6 <repeat_bit_time>
 1007ed2:	100107b7          	lui	a5,0x10010
 1007ed6:	7787c783          	lbu	a5,1912(a5) # 10010778 <en_type>
 1007eda:	03800713          	li	a4,56
 1007ede:	04e79663          	bne	a5,a4,1007f2a <repeat_bit_data_ready+0x102>
 1007ee2:	10010937          	lui	s2,0x10010
 1007ee6:	78a95703          	lhu	a4,1930(s2) # 1001078a <coust_code>
 1007eea:	478d                	li	a5,3
 1007eec:	00e7f463          	bgeu	a5,a4,1007ef4 <repeat_bit_data_ready+0xcc>
 1007ef0:	78091523          	sh	zero,1930(s2)
 1007ef4:	78a95403          	lhu	s0,1930(s2)
 1007ef8:	0834                	addi	a3,sp,24
 1007efa:	0030                	addi	a2,sp,8
 1007efc:	043a                	slli	s0,s0,0xe
 1007efe:	0442                	slli	s0,s0,0x10
 1007f00:	8041                	srli	s0,s0,0x10
 1007f02:	8522                	mv	a0,s0
 1007f04:	8039                	srli	s0,s0,0xe
 1007f06:	4589                	li	a1,2
 1007f08:	0405                	addi	s0,s0,1
 1007f0a:	addff0ef          	jal	ra,10079e6 <repeat_bit_time>
 1007f0e:	78891523          	sh	s0,1930(s2)
 1007f12:	67bd                	lui	a5,0xf
 1007f14:	a6078793          	addi	a5,a5,-1440 # ea60 <__EN_MIE-0xff161e>
 1007f18:	850a                	mv	a0,sp
 1007f1a:	c026                	sw	s1,0(sp)
 1007f1c:	c23e                	sw	a5,4(sp)
 1007f1e:	877ff0ef          	jal	ra,1007794 <upt_pwm_time_pulse>
 1007f22:	4501                	li	a0,0
 1007f24:	6121                	addi	sp,sp,64
 1007f26:	36d0406f          	j	100ca92 <__riscv_restore_4>
 1007f2a:	03900713          	li	a4,57
 1007f2e:	fee792e3          	bne	a5,a4,1007f12 <repeat_bit_data_ready+0xea>
 1007f32:	100107b7          	lui	a5,0x10010
 1007f36:	78a7d503          	lhu	a0,1930(a5) # 1001078a <coust_code>
 1007f3a:	6711                	lui	a4,0x4
 1007f3c:	0834                	addi	a3,sp,24
 1007f3e:	8d39                	xor	a0,a0,a4
 1007f40:	0030                	addi	a2,sp,8
 1007f42:	4589                	li	a1,2
 1007f44:	78a79523          	sh	a0,1930(a5)
 1007f48:	a9fff0ef          	jal	ra,10079e6 <repeat_bit_time>
 1007f4c:	b7d9                	j	1007f12 <repeat_bit_data_ready+0xea>

01007f4e <philips_rcmm_bit_data_ready>:
philips_rcmm_bit_data_ready():
 1007f4e:	32b042ef          	jal	t0,100ca78 <__riscv_save_0>
 1007f52:	100104b7          	lui	s1,0x10010
 1007f56:	842a                	mv	s0,a0
 1007f58:	74048493          	addi	s1,s1,1856 # 10010740 <ir_send_param>
 1007f5c:	10013537          	lui	a0,0x10013
 1007f60:	40000613          	li	a2,1024
 1007f64:	32c50913          	addi	s2,a0,812 # 1001332c <ir_pulse_data>
 1007f68:	4581                	li	a1,0
 1007f6a:	0004a023          	sw	zero,0(s1)
 1007f6e:	32c50513          	addi	a0,a0,812
 1007f72:	453040ef          	jal	ra,100cbc4 <memset>
 1007f76:	10010537          	lui	a0,0x10010
 1007f7a:	77050513          	addi	a0,a0,1904 # 10010770 <lead_buf>
 1007f7e:	0124a223          	sw	s2,4(s1)
 1007f82:	813ff0ef          	jal	ra,1007794 <upt_pwm_time_pulse>
 1007f86:	100104b7          	lui	s1,0x10010
 1007f8a:	7844a783          	lw	a5,1924(s1) # 10010784 <brand_type>
 1007f8e:	0027d583          	lhu	a1,2(a5)
 1007f92:	100107b7          	lui	a5,0x10010
 1007f96:	7807a783          	lw	a5,1920(a5) # 10010780 <cust_code>
 1007f9a:	81b1                	srli	a1,a1,0xc
 1007f9c:	0007d503          	lhu	a0,0(a5)
 1007fa0:	addff0ef          	jal	ra,1007a7c <philips_bit_time>
 1007fa4:	100107b7          	lui	a5,0x10010
 1007fa8:	04e7d503          	lhu	a0,78(a5) # 1001004e <toggle.4276>
 1007fac:	6721                	lui	a4,0x8
 1007fae:	8d39                	xor	a0,a0,a4
 1007fb0:	04a79723          	sh	a0,78(a5)
 1007fb4:	7844a783          	lw	a5,1924(s1)
 1007fb8:	0027d583          	lhu	a1,2(a5)
 1007fbc:	81a1                	srli	a1,a1,0x8
 1007fbe:	89bd                	andi	a1,a1,15
 1007fc0:	abdff0ef          	jal	ra,1007a7c <philips_bit_time>
 1007fc4:	7844a783          	lw	a5,1924(s1)
 1007fc8:	00841513          	slli	a0,s0,0x8
 1007fcc:	0542                	slli	a0,a0,0x10
 1007fce:	0027d583          	lhu	a1,2(a5)
 1007fd2:	8141                	srli	a0,a0,0x10
 1007fd4:	8191                	srli	a1,a1,0x4
 1007fd6:	89bd                	andi	a1,a1,15
 1007fd8:	aa5ff0ef          	jal	ra,1007a7c <philips_bit_time>
 1007fdc:	10010537          	lui	a0,0x10010
 1007fe0:	76850513          	addi	a0,a0,1896 # 10010768 <stop_buf>
 1007fe4:	fb0ff0ef          	jal	ra,1007794 <upt_pwm_time_pulse>
 1007fe8:	4501                	li	a0,0
 1007fea:	2b30406f          	j	100ca9c <__riscv_restore_0>

01007fee <ir_gemini_ready>:
ir_gemini_ready():
 1007fee:	271042ef          	jal	t0,100ca5e <__riscv_save_4>
 1007ff2:	10010437          	lui	s0,0x10010
 1007ff6:	74040493          	addi	s1,s0,1856 # 10010740 <ir_send_param>
 1007ffa:	89aa                	mv	s3,a0
 1007ffc:	10013537          	lui	a0,0x10013
 1008000:	32c50913          	addi	s2,a0,812 # 1001332c <ir_pulse_data>
 1008004:	0004a023          	sw	zero,0(s1)
 1008008:	40000613          	li	a2,1024
 100800c:	4581                	li	a1,0
 100800e:	32c50513          	addi	a0,a0,812
 1008012:	3b3040ef          	jal	ra,100cbc4 <memset>
 1008016:	100107b7          	lui	a5,0x10010
 100801a:	7797c783          	lbu	a5,1913(a5) # 10010779 <user_repeat>
 100801e:	0124a223          	sw	s2,4(s1)
 1008022:	74040413          	addi	s0,s0,1856
 1008026:	00078463          	beqz	a5,100802e <ir_gemini_ready+0x40>
 100802a:	00f41123          	sh	a5,2(s0)
 100802e:	10010937          	lui	s2,0x10010
 1008032:	77092783          	lw	a5,1904(s2) # 10010770 <lead_buf>
 1008036:	00078663          	beqz	a5,1008042 <ir_gemini_ready+0x54>
 100803a:	77090513          	addi	a0,s2,1904
 100803e:	f56ff0ef          	jal	ra,1007794 <upt_pwm_time_pulse>
 1008042:	100107b7          	lui	a5,0x10010
 1008046:	7787c703          	lbu	a4,1912(a5) # 10010778 <en_type>
 100804a:	02a00793          	li	a5,42
 100804e:	00f71663          	bne	a4,a5,100805a <ir_gemini_ready+0x6c>
 1008052:	4585                	li	a1,1
 1008054:	4505                	li	a0,1
 1008056:	b21ff0ef          	jal	ra,1007b76 <bit_time>
 100805a:	100104b7          	lui	s1,0x10010
 100805e:	7844a783          	lw	a5,1924(s1) # 10010784 <brand_type>
 1008062:	0027d583          	lhu	a1,2(a5)
 1008066:	81b1                	srli	a1,a1,0xc
 1008068:	00058a63          	beqz	a1,100807c <ir_gemini_ready+0x8e>
 100806c:	100107b7          	lui	a5,0x10010
 1008070:	7807a783          	lw	a5,1920(a5) # 10010780 <cust_code>
 1008074:	0007d503          	lhu	a0,0(a5)
 1008078:	affff0ef          	jal	ra,1007b76 <bit_time>
 100807c:	10010537          	lui	a0,0x10010
 1008080:	76850513          	addi	a0,a0,1896 # 10010768 <stop_buf>
 1008084:	f10ff0ef          	jal	ra,1007794 <upt_pwm_time_pulse>
 1008088:	00045a83          	lhu	s5,0(s0)
 100808c:	404c                	lw	a1,4(s0)
 100808e:	10013537          	lui	a0,0x10013
 1008092:	100107b7          	lui	a5,0x10010
 1008096:	002a9613          	slli	a2,s5,0x2
 100809a:	72c50513          	addi	a0,a0,1836 # 1001372c <gemini_hand>
 100809e:	78078423          	sb	zero,1928(a5) # 10010788 <gemini_state>
 10080a2:	10010a37          	lui	s4,0x10010
 10080a6:	265040ef          	jal	ra,100cb0a <memcpy>
 10080aa:	738a0793          	addi	a5,s4,1848 # 10010738 <ir_endcode_param>
 10080ae:	0007a023          	sw	zero,0(a5)
 10080b2:	00079223          	sh	zero,4(a5)
 10080b6:	4705                	li	a4,1
 10080b8:	77090513          	addi	a0,s2,1904
 10080bc:	00e78023          	sb	a4,0(a5)
 10080c0:	01579123          	sh	s5,2(a5)
 10080c4:	ed0ff0ef          	jal	ra,1007794 <upt_pwm_time_pulse>
 10080c8:	7844a783          	lw	a5,1924(s1)
 10080cc:	738a0a13          	addi	s4,s4,1848
 10080d0:	0027d583          	lhu	a1,2(a5)
 10080d4:	81a1                	srli	a1,a1,0x8
 10080d6:	89bd                	andi	a1,a1,15
 10080d8:	00058563          	beqz	a1,10080e2 <ir_gemini_ready+0xf4>
 10080dc:	4505                	li	a0,1
 10080de:	a99ff0ef          	jal	ra,1007b76 <bit_time>
 10080e2:	7844a783          	lw	a5,1924(s1)
 10080e6:	0027d583          	lhu	a1,2(a5)
 10080ea:	8191                	srli	a1,a1,0x4
 10080ec:	89bd                	andi	a1,a1,15
 10080ee:	00058563          	beqz	a1,10080f8 <ir_gemini_ready+0x10a>
 10080f2:	854e                	mv	a0,s3
 10080f4:	a83ff0ef          	jal	ra,1007b76 <bit_time>
 10080f8:	7844a783          	lw	a5,1924(s1)
 10080fc:	0027d583          	lhu	a1,2(a5)
 1008100:	89bd                	andi	a1,a1,15
 1008102:	00058a63          	beqz	a1,1008116 <ir_gemini_ready+0x128>
 1008106:	100107b7          	lui	a5,0x10010
 100810a:	7807a783          	lw	a5,1920(a5) # 10010780 <cust_code>
 100810e:	0027d503          	lhu	a0,2(a5)
 1008112:	a65ff0ef          	jal	ra,1007b76 <bit_time>
 1008116:	10010537          	lui	a0,0x10010
 100811a:	75850513          	addi	a0,a0,1880 # 10010758 <rpt_lead_buf>
 100811e:	feaff0ef          	jal	ra,1007908 <rpt_bit_pwm>
 1008122:	00045783          	lhu	a5,0(s0)
 1008126:	4501                	li	a0,0
 1008128:	00fa1223          	sh	a5,4(s4)
 100812c:	1670406f          	j	100ca92 <__riscv_restore_4>

01008130 <high_ir_data_ready>:
high_ir_data_ready():
 1008130:	12f042ef          	jal	t0,100ca5e <__riscv_save_4>
 1008134:	100104b7          	lui	s1,0x10010
 1008138:	74048493          	addi	s1,s1,1856 # 10010740 <ir_send_param>
 100813c:	842a                	mv	s0,a0
 100813e:	10013537          	lui	a0,0x10013
 1008142:	1141                	addi	sp,sp,-16
 1008144:	32c50913          	addi	s2,a0,812 # 1001332c <ir_pulse_data>
 1008148:	0004a023          	sw	zero,0(s1)
 100814c:	40000613          	li	a2,1024
 1008150:	4581                	li	a1,0
 1008152:	32c50513          	addi	a0,a0,812
 1008156:	c002                	sw	zero,0(sp)
 1008158:	c202                	sw	zero,4(sp)
 100815a:	26b040ef          	jal	ra,100cbc4 <memset>
 100815e:	100107b7          	lui	a5,0x10010
 1008162:	7797c783          	lbu	a5,1913(a5) # 10010779 <user_repeat>
 1008166:	0124a223          	sw	s2,4(s1)
 100816a:	00078463          	beqz	a5,1008172 <high_ir_data_ready+0x42>
 100816e:	00f49123          	sh	a5,2(s1)
 1008172:	10010937          	lui	s2,0x10010
 1008176:	78492483          	lw	s1,1924(s2) # 10010784 <brand_type>
 100817a:	0422                	slli	s0,s0,0x8
 100817c:	0442                	slli	s0,s0,0x10
 100817e:	0004d783          	lhu	a5,0(s1)
 1008182:	4715                	li	a4,5
 1008184:	8041                	srli	s0,s0,0x10
 1008186:	17c9                	addi	a5,a5,-14
 1008188:	07c2                	slli	a5,a5,0x10
 100818a:	83c1                	srli	a5,a5,0x10
 100818c:	4505                	li	a0,1
 100818e:	12f76663          	bltu	a4,a5,10082ba <high_ir_data_ready+0x18a>
 1008192:	0100d737          	lui	a4,0x100d
 1008196:	078a                	slli	a5,a5,0x2
 1008198:	79070713          	addi	a4,a4,1936 # 100d790 <AAP_StopAnc4+0x394>
 100819c:	97ba                	add	a5,a5,a4
 100819e:	439c                	lw	a5,0(a5)
 10081a0:	100109b7          	lui	s3,0x10010
 10081a4:	8782                	jr	a5
 10081a6:	7809a783          	lw	a5,1920(s3) # 10010780 <cust_code>
 10081aa:	00811223          	sh	s0,4(sp)
 10081ae:	0007d703          	lhu	a4,0(a5)
 10081b2:	0027d783          	lhu	a5,2(a5)
 10081b6:	00e11023          	sh	a4,0(sp)
 10081ba:	00f11123          	sh	a5,2(sp)
 10081be:	10010437          	lui	s0,0x10010
 10081c2:	77042783          	lw	a5,1904(s0) # 10010770 <lead_buf>
 10081c6:	00078663          	beqz	a5,10081d2 <high_ir_data_ready+0xa2>
 10081ca:	77040513          	addi	a0,s0,1904
 10081ce:	dc6ff0ef          	jal	ra,1007794 <upt_pwm_time_pulse>
 10081d2:	100107b7          	lui	a5,0x10010
 10081d6:	7787c703          	lbu	a4,1912(a5) # 10010778 <en_type>
 10081da:	03c00793          	li	a5,60
 10081de:	00f71663          	bne	a4,a5,10081ea <high_ir_data_ready+0xba>
 10081e2:	77040513          	addi	a0,s0,1904
 10081e6:	daeff0ef          	jal	ra,1007794 <upt_pwm_time_pulse>
 10081ea:	0024d583          	lhu	a1,2(s1)
 10081ee:	81b1                	srli	a1,a1,0xc
 10081f0:	00058663          	beqz	a1,10081fc <high_ir_data_ready+0xcc>
 10081f4:	00015503          	lhu	a0,0(sp)
 10081f8:	903ff0ef          	jal	ra,1007afa <high_bit_time>
 10081fc:	78492703          	lw	a4,1924(s2)
 1008200:	47b9                	li	a5,14
 1008202:	00075683          	lhu	a3,0(a4)
 1008206:	02f69063          	bne	a3,a5,1008226 <high_ir_data_ready+0xf6>
 100820a:	100106b7          	lui	a3,0x10010
 100820e:	7566d783          	lhu	a5,1878(a3) # 10010756 <bit1_l_tm>
 1008212:	0786                	slli	a5,a5,0x1
 1008214:	74f69b23          	sh	a5,1878(a3)
 1008218:	100106b7          	lui	a3,0x10010
 100821c:	7526d783          	lhu	a5,1874(a3) # 10010752 <bit0_l_tm>
 1008220:	0786                	slli	a5,a5,0x1
 1008222:	74f69923          	sh	a5,1874(a3)
 1008226:	00275583          	lhu	a1,2(a4)
 100822a:	81a1                	srli	a1,a1,0x8
 100822c:	89bd                	andi	a1,a1,15
 100822e:	00058663          	beqz	a1,100823a <high_ir_data_ready+0x10a>
 1008232:	00215503          	lhu	a0,2(sp)
 1008236:	8c5ff0ef          	jal	ra,1007afa <high_bit_time>
 100823a:	78492703          	lw	a4,1924(s2)
 100823e:	47b9                	li	a5,14
 1008240:	00075683          	lhu	a3,0(a4)
 1008244:	02f69063          	bne	a3,a5,1008264 <high_ir_data_ready+0x134>
 1008248:	100106b7          	lui	a3,0x10010
 100824c:	7566d783          	lhu	a5,1878(a3) # 10010756 <bit1_l_tm>
 1008250:	8385                	srli	a5,a5,0x1
 1008252:	74f69b23          	sh	a5,1878(a3)
 1008256:	100106b7          	lui	a3,0x10010
 100825a:	7526d783          	lhu	a5,1874(a3) # 10010752 <bit0_l_tm>
 100825e:	8385                	srli	a5,a5,0x1
 1008260:	74f69923          	sh	a5,1874(a3)
 1008264:	00275583          	lhu	a1,2(a4)
 1008268:	8191                	srli	a1,a1,0x4
 100826a:	89bd                	andi	a1,a1,15
 100826c:	00058663          	beqz	a1,1008278 <high_ir_data_ready+0x148>
 1008270:	00415503          	lhu	a0,4(sp)
 1008274:	887ff0ef          	jal	ra,1007afa <high_bit_time>
 1008278:	78492403          	lw	s0,1924(s2)
 100827c:	47c9                	li	a5,18
 100827e:	00045703          	lhu	a4,0(s0)
 1008282:	00f71c63          	bne	a4,a5,100829a <high_ir_data_ready+0x16a>
 1008286:	1f400793          	li	a5,500
 100828a:	c43e                	sw	a5,8(sp)
 100828c:	6785                	lui	a5,0x1
 100828e:	fa078793          	addi	a5,a5,-96 # fa0 <__EN_MIE-0xfff0de>
 1008292:	0028                	addi	a0,sp,8
 1008294:	c63e                	sw	a5,12(sp)
 1008296:	cfeff0ef          	jal	ra,1007794 <upt_pwm_time_pulse>
 100829a:	00245583          	lhu	a1,2(s0)
 100829e:	89bd                	andi	a1,a1,15
 10082a0:	00058663          	beqz	a1,10082ac <high_ir_data_ready+0x17c>
 10082a4:	00615503          	lhu	a0,6(sp)
 10082a8:	853ff0ef          	jal	ra,1007afa <high_bit_time>
 10082ac:	10010537          	lui	a0,0x10010
 10082b0:	76850513          	addi	a0,a0,1896 # 10010768 <stop_buf>
 10082b4:	ce0ff0ef          	jal	ra,1007794 <upt_pwm_time_pulse>
 10082b8:	4501                	li	a0,0
 10082ba:	0141                	addi	sp,sp,16
 10082bc:	7d60406f          	j	100ca92 <__riscv_restore_4>
 10082c0:	37800793          	li	a5,888
 10082c4:	0028                	addi	a0,sp,8
 10082c6:	c43e                	sw	a5,8(sp)
 10082c8:	c602                	sw	zero,12(sp)
 10082ca:	ccaff0ef          	jal	ra,1007794 <upt_pwm_time_pulse>
 10082ce:	10010737          	lui	a4,0x10010
 10082d2:	78c75783          	lhu	a5,1932(a4) # 1001078c <toggle.4290>
 10082d6:	66a1                	lui	a3,0x8
 10082d8:	8fb5                	xor	a5,a5,a3
 10082da:	78f71623          	sh	a5,1932(a4)
 10082de:	7809a703          	lw	a4,1920(s3)
 10082e2:	00f11123          	sh	a5,2(sp)
 10082e6:	00075683          	lhu	a3,0(a4)
 10082ea:	00275783          	lhu	a5,2(a4)
 10082ee:	00d11023          	sh	a3,0(sp)
 10082f2:	00f11223          	sh	a5,4(sp)
 10082f6:	00811323          	sh	s0,6(sp)
 10082fa:	b5d1                	j	10081be <high_ir_data_ready+0x8e>
 10082fc:	10010737          	lui	a4,0x10010
 1008300:	78e75683          	lhu	a3,1934(a4) # 1001078e <coust_code.4292>
 1008304:	478d                	li	a5,3
 1008306:	00d7f463          	bgeu	a5,a3,100830e <high_ir_data_ready+0x1de>
 100830a:	78071723          	sh	zero,1934(a4)
 100830e:	78e75783          	lhu	a5,1934(a4)
 1008312:	7809a683          	lw	a3,1920(s3)
 1008316:	00811323          	sh	s0,6(sp)
 100831a:	07ba                	slli	a5,a5,0xe
 100831c:	07c2                	slli	a5,a5,0x10
 100831e:	83c1                	srli	a5,a5,0x10
 1008320:	0006d683          	lhu	a3,0(a3) # 8000 <__EN_MIE-0xff807e>
 1008324:	00f11023          	sh	a5,0(sp)
 1008328:	83b9                	srli	a5,a5,0xe
 100832a:	0785                	addi	a5,a5,1
 100832c:	00d11223          	sh	a3,4(sp)
 1008330:	78f71723          	sh	a5,1934(a4)
 1008334:	b569                	j	10081be <high_ir_data_ready+0x8e>
 1008336:	7809a783          	lw	a5,1920(s3)
 100833a:	00811123          	sh	s0,2(sp)
 100833e:	fff44413          	not	s0,s0
 1008342:	0007d783          	lhu	a5,0(a5)
 1008346:	00f11023          	sh	a5,0(sp)
 100834a:	fff7c793          	not	a5,a5
 100834e:	00f11223          	sh	a5,4(sp)
 1008352:	b755                	j	10082f6 <high_ir_data_ready+0x1c6>

01008354 <ir_data_ready>:
ir_data_ready():
 1008354:	70a042ef          	jal	t0,100ca5e <__riscv_save_4>
 1008358:	100104b7          	lui	s1,0x10010
 100835c:	74048913          	addi	s2,s1,1856 # 10010740 <ir_send_param>
 1008360:	842a                	mv	s0,a0
 1008362:	10013537          	lui	a0,0x10013
 1008366:	1141                	addi	sp,sp,-16
 1008368:	32c50993          	addi	s3,a0,812 # 1001332c <ir_pulse_data>
 100836c:	00092023          	sw	zero,0(s2)
 1008370:	40000613          	li	a2,1024
 1008374:	4581                	li	a1,0
 1008376:	32c50513          	addi	a0,a0,812
 100837a:	c002                	sw	zero,0(sp)
 100837c:	c202                	sw	zero,4(sp)
 100837e:	047040ef          	jal	ra,100cbc4 <memset>
 1008382:	100107b7          	lui	a5,0x10010
 1008386:	7797c783          	lbu	a5,1913(a5) # 10010779 <user_repeat>
 100838a:	01392223          	sw	s3,4(s2)
 100838e:	74048493          	addi	s1,s1,1856
 1008392:	00078463          	beqz	a5,100839a <ir_data_ready+0x46>
 1008396:	00f49123          	sh	a5,2(s1)
 100839a:	10010937          	lui	s2,0x10010
 100839e:	78492a03          	lw	s4,1924(s2) # 10010784 <brand_type>
 10083a2:	4725                	li	a4,9
 10083a4:	000a5783          	lhu	a5,0(s4)
 10083a8:	2af76163          	bltu	a4,a5,100864a <ir_data_ready+0x2f6>
 10083ac:	0100d737          	lui	a4,0x100d
 10083b0:	078a                	slli	a5,a5,0x2
 10083b2:	7a870713          	addi	a4,a4,1960 # 100d7a8 <AAP_StopAnc4+0x3ac>
 10083b6:	97ba                	add	a5,a5,a4
 10083b8:	439c                	lw	a5,0(a5)
 10083ba:	8782                	jr	a5
 10083bc:	00811023          	sh	s0,0(sp)
 10083c0:	10010437          	lui	s0,0x10010
 10083c4:	77042783          	lw	a5,1904(s0) # 10010770 <lead_buf>
 10083c8:	00078663          	beqz	a5,10083d4 <ir_data_ready+0x80>
 10083cc:	77040513          	addi	a0,s0,1904
 10083d0:	bc4ff0ef          	jal	ra,1007794 <upt_pwm_time_pulse>
 10083d4:	100109b7          	lui	s3,0x10010
 10083d8:	7789c703          	lbu	a4,1912(s3) # 10010778 <en_type>
 10083dc:	03600793          	li	a5,54
 10083e0:	02f71163          	bne	a4,a5,1008402 <ir_data_ready+0xae>
 10083e4:	100107b7          	lui	a5,0x10010
 10083e8:	73878793          	addi	a5,a5,1848 # 10010738 <ir_endcode_param>
 10083ec:	0007a023          	sw	zero,0(a5)
 10083f0:	4705                	li	a4,1
 10083f2:	00e78023          	sb	a4,0(a5)
 10083f6:	0004d703          	lhu	a4,0(s1)
 10083fa:	00079223          	sh	zero,4(a5)
 10083fe:	00e79123          	sh	a4,2(a5)
 1008402:	002a5583          	lhu	a1,2(s4)
 1008406:	81b1                	srli	a1,a1,0xc
 1008408:	00058663          	beqz	a1,1008414 <ir_data_ready+0xc0>
 100840c:	00015503          	lhu	a0,0(sp)
 1008410:	f66ff0ef          	jal	ra,1007b76 <bit_time>
 1008414:	78492783          	lw	a5,1924(s2)
 1008418:	0027d583          	lhu	a1,2(a5)
 100841c:	81a1                	srli	a1,a1,0x8
 100841e:	89bd                	andi	a1,a1,15
 1008420:	00058663          	beqz	a1,100842c <ir_data_ready+0xd8>
 1008424:	00215503          	lhu	a0,2(sp)
 1008428:	f4eff0ef          	jal	ra,1007b76 <bit_time>
 100842c:	7789c783          	lbu	a5,1912(s3)
 1008430:	02900713          	li	a4,41
 1008434:	10010a37          	lui	s4,0x10010
 1008438:	10e79463          	bne	a5,a4,1008540 <ir_data_ready+0x1ec>
 100843c:	4505                	li	a0,1
 100843e:	4589                	li	a1,2
 1008440:	f36ff0ef          	jal	ra,1007b76 <bit_time>
 1008444:	768a0513          	addi	a0,s4,1896 # 10010768 <stop_buf>
 1008448:	b4cff0ef          	jal	ra,1007794 <upt_pwm_time_pulse>
 100844c:	aa29                	j	1008566 <ir_data_ready+0x212>
 100844e:	100107b7          	lui	a5,0x10010
 1008452:	7807a783          	lw	a5,1920(a5) # 10010780 <cust_code>
 1008456:	00811023          	sh	s0,0(sp)
 100845a:	0007d783          	lhu	a5,0(a5)
 100845e:	00f11123          	sh	a5,2(sp)
 1008462:	bfb9                	j	10083c0 <ir_data_ready+0x6c>
 1008464:	100107b7          	lui	a5,0x10010
 1008468:	7807a783          	lw	a5,1920(a5) # 10010780 <cust_code>
 100846c:	0007d703          	lhu	a4,0(a5)
 1008470:	0027d783          	lhu	a5,2(a5)
 1008474:	00e11023          	sh	a4,0(sp)
 1008478:	00f11123          	sh	a5,2(sp)
 100847c:	00811223          	sh	s0,4(sp)
 1008480:	b781                	j	10083c0 <ir_data_ready+0x6c>
 1008482:	100107b7          	lui	a5,0x10010
 1008486:	7807a783          	lw	a5,1920(a5) # 10010780 <cust_code>
 100848a:	00811023          	sh	s0,0(sp)
 100848e:	fff44413          	not	s0,s0
 1008492:	0007d703          	lhu	a4,0(a5)
 1008496:	0027d783          	lhu	a5,2(a5)
 100849a:	00811123          	sh	s0,2(sp)
 100849e:	00e11223          	sh	a4,4(sp)
 10084a2:	00f11323          	sh	a5,6(sp)
 10084a6:	bf29                	j	10083c0 <ir_data_ready+0x6c>
 10084a8:	100107b7          	lui	a5,0x10010
 10084ac:	7807a783          	lw	a5,1920(a5) # 10010780 <cust_code>
 10084b0:	00811223          	sh	s0,4(sp)
 10084b4:	0007d703          	lhu	a4,0(a5)
 10084b8:	0027d783          	lhu	a5,2(a5)
 10084bc:	00e11023          	sh	a4,0(sp)
 10084c0:	00f11123          	sh	a5,2(sp)
 10084c4:	fff44413          	not	s0,s0
 10084c8:	00811323          	sh	s0,6(sp)
 10084cc:	bdd5                	j	10083c0 <ir_data_ready+0x6c>
 10084ce:	100107b7          	lui	a5,0x10010
 10084d2:	7807a783          	lw	a5,1920(a5) # 10010780 <cust_code>
 10084d6:	00811123          	sh	s0,2(sp)
 10084da:	0007d703          	lhu	a4,0(a5)
 10084de:	0027d783          	lhu	a5,2(a5)
 10084e2:	00e11023          	sh	a4,0(sp)
 10084e6:	00f11223          	sh	a5,4(sp)
 10084ea:	bfe9                	j	10084c4 <ir_data_ready+0x170>
 10084ec:	100107b7          	lui	a5,0x10010
 10084f0:	7807a703          	lw	a4,1920(a5) # 10010780 <cust_code>
 10084f4:	00811223          	sh	s0,4(sp)
 10084f8:	00275783          	lhu	a5,2(a4)
 10084fc:	00075703          	lhu	a4,0(a4)
 1008500:	00f11123          	sh	a5,2(sp)
 1008504:	83a1                	srli	a5,a5,0x8
 1008506:	0807c793          	xori	a5,a5,128
 100850a:	00e11023          	sh	a4,0(sp)
 100850e:	8c3d                	xor	s0,s0,a5
 1008510:	bf65                	j	10084c8 <ir_data_ready+0x174>
 1008512:	100107b7          	lui	a5,0x10010
 1008516:	7807a783          	lw	a5,1920(a5) # 10010780 <cust_code>
 100851a:	0007d783          	lhu	a5,0(a5)
 100851e:	00f11023          	sh	a5,0(sp)
 1008522:	bfa9                	j	100847c <ir_data_ready+0x128>
 1008524:	0ff47793          	andi	a5,s0,255
 1008528:	00f11023          	sh	a5,0(sp)
 100852c:	100107b7          	lui	a5,0x10010
 1008530:	7807a783          	lw	a5,1920(a5) # 10010780 <cust_code>
 1008534:	8021                	srli	s0,s0,0x8
 1008536:	0007d783          	lhu	a5,0(a5)
 100853a:	00f11123          	sh	a5,2(sp)
 100853e:	bf3d                	j	100847c <ir_data_ready+0x128>
 1008540:	4761                	li	a4,24
 1008542:	00e79b63          	bne	a5,a4,1008558 <ir_data_ready+0x204>
 1008546:	21200793          	li	a5,530
 100854a:	c43e                	sw	a5,8(sp)
 100854c:	6785                	lui	a5,0x1
 100854e:	09a78793          	addi	a5,a5,154 # 109a <__EN_MIE-0xffefe4>
 1008552:	c63e                	sw	a5,12(sp)
 1008554:	0028                	addi	a0,sp,8
 1008556:	bdcd                	j	1008448 <ir_data_ready+0xf4>
 1008558:	4779                	li	a4,30
 100855a:	0ce79963          	bne	a5,a4,100862c <ir_data_ready+0x2d8>
 100855e:	45a1                	li	a1,8
 1008560:	4501                	li	a0,0
 1008562:	e14ff0ef          	jal	ra,1007b76 <bit_time>
 1008566:	78492783          	lw	a5,1924(s2)
 100856a:	0027d583          	lhu	a1,2(a5)
 100856e:	8191                	srli	a1,a1,0x4
 1008570:	89bd                	andi	a1,a1,15
 1008572:	00058663          	beqz	a1,100857e <ir_data_ready+0x22a>
 1008576:	00415503          	lhu	a0,4(sp)
 100857a:	dfcff0ef          	jal	ra,1007b76 <bit_time>
 100857e:	78492783          	lw	a5,1924(s2)
 1008582:	0027d583          	lhu	a1,2(a5)
 1008586:	89bd                	andi	a1,a1,15
 1008588:	00058663          	beqz	a1,1008594 <ir_data_ready+0x240>
 100858c:	00615503          	lhu	a0,6(sp)
 1008590:	de6ff0ef          	jal	ra,1007b76 <bit_time>
 1008594:	7789c783          	lbu	a5,1912(s3)
 1008598:	02900713          	li	a4,41
 100859c:	08e79f63          	bne	a5,a4,100863a <ir_data_ready+0x2e6>
 10085a0:	4589                	li	a1,2
 10085a2:	4509                	li	a0,2
 10085a4:	dd2ff0ef          	jal	ra,1007b76 <bit_time>
 10085a8:	768a0513          	addi	a0,s4,1896
 10085ac:	9e8ff0ef          	jal	ra,1007794 <upt_pwm_time_pulse>
 10085b0:	7789c703          	lbu	a4,1912(s3)
 10085b4:	03600793          	li	a5,54
 10085b8:	00f71863          	bne	a4,a5,10085c8 <ir_data_ready+0x274>
 10085bc:	0004d683          	lhu	a3,0(s1)
 10085c0:	100107b7          	lui	a5,0x10010
 10085c4:	72d79e23          	sh	a3,1852(a5) # 1001073c <ir_endcode_param+0x4>
 10085c8:	78492783          	lw	a5,1924(s2)
 10085cc:	4501                	li	a0,0
 10085ce:	0167d783          	lhu	a5,22(a5)
 10085d2:	04078a63          	beqz	a5,1008626 <ir_data_ready+0x2d2>
 10085d6:	10010937          	lui	s2,0x10010
 10085da:	73890793          	addi	a5,s2,1848 # 10010738 <ir_endcode_param>
 10085de:	0007a023          	sw	zero,0(a5)
 10085e2:	4685                	li	a3,1
 10085e4:	00d78023          	sb	a3,0(a5)
 10085e8:	0004d683          	lhu	a3,0(s1)
 10085ec:	00079223          	sh	zero,4(a5)
 10085f0:	73890913          	addi	s2,s2,1848
 10085f4:	00d79123          	sh	a3,2(a5)
 10085f8:	02b00793          	li	a5,43
 10085fc:	00f71663          	bne	a4,a5,1008608 <ir_data_ready+0x2b4>
 1008600:	77040513          	addi	a0,s0,1904
 1008604:	990ff0ef          	jal	ra,1007794 <upt_pwm_time_pulse>
 1008608:	10010537          	lui	a0,0x10010
 100860c:	75850513          	addi	a0,a0,1880 # 10010758 <rpt_lead_buf>
 1008610:	af8ff0ef          	jal	ra,1007908 <rpt_bit_pwm>
 1008614:	0004d783          	lhu	a5,0(s1)
 1008618:	4501                	li	a0,0
 100861a:	00f91223          	sh	a5,4(s2)
 100861e:	00295783          	lhu	a5,2(s2)
 1008622:	00f49023          	sh	a5,0(s1)
 1008626:	0141                	addi	sp,sp,16
 1008628:	46a0406f          	j	100ca92 <__riscv_restore_4>
 100862c:	04400713          	li	a4,68
 1008630:	f2e79be3          	bne	a5,a4,1008566 <ir_data_ready+0x212>
 1008634:	77040513          	addi	a0,s0,1904
 1008638:	bd01                	j	1008448 <ir_data_ready+0xf4>
 100863a:	4721                	li	a4,8
 100863c:	f6e796e3          	bne	a5,a4,10085a8 <ir_data_ready+0x254>
 1008640:	77040513          	addi	a0,s0,1904
 1008644:	950ff0ef          	jal	ra,1007794 <upt_pwm_time_pulse>
 1008648:	b785                	j	10085a8 <ir_data_ready+0x254>
 100864a:	4505                	li	a0,1
 100864c:	bfe9                	j	1008626 <ir_data_ready+0x2d2>

0100864e <ir_comm_send>:
ir_comm_send():
 100864e:	42a042ef          	jal	t0,100ca78 <__riscv_save_0>
 1008652:	842a                	mv	s0,a0
 1008654:	4585                	li	a1,1
 1008656:	4511                	li	a0,4
 1008658:	c96fe0ef          	jal	ra,1006aee <app_sleep_lock_set>
 100865c:	100107b7          	lui	a5,0x10010
 1008660:	7847a783          	lw	a5,1924(a5) # 10010784 <brand_type>
 1008664:	100104b7          	lui	s1,0x10010
 1008668:	01a7d783          	lhu	a5,26(a5)
 100866c:	02078263          	beqz	a5,1008690 <ir_comm_send+0x42>
 1008670:	e87fe0ef          	jal	ra,10074f6 <set_pwm_freq_div>
 1008674:	7484a783          	lw	a5,1864(s1) # 10010748 <ir_ready>
 1008678:	8522                	mv	a0,s0
 100867a:	9782                	jalr	a5
 100867c:	00051863          	bnez	a0,100868c <ir_comm_send+0x3e>
 1008680:	01007537          	lui	a0,0x1007
 1008684:	69250513          	addi	a0,a0,1682 # 1007692 <ir_send>
 1008688:	93cfe0ef          	jal	ra,10067c4 <app_queue_insert>
 100868c:	4100406f          	j	100ca9c <__riscv_restore_0>
 1008690:	7484a783          	lw	a5,1864(s1)
 1008694:	8522                	mv	a0,s0
 1008696:	9782                	jalr	a5
 1008698:	fe051ae3          	bnez	a0,100868c <ir_comm_send+0x3e>
 100869c:	01007537          	lui	a0,0x1007
 10086a0:	5da50513          	addi	a0,a0,1498 # 10075da <ir_without_freq>
 10086a4:	b7d5                	j	1008688 <ir_comm_send+0x3a>

010086a6 <ir_single_send>:
ir_single_send():
 10086a6:	3d2042ef          	jal	t0,100ca78 <__riscv_save_0>
 10086aa:	84aa                	mv	s1,a0
 10086ac:	842e                	mv	s0,a1
 10086ae:	4511                	li	a0,4
 10086b0:	4585                	li	a1,1
 10086b2:	c3cfe0ef          	jal	ra,1006aee <app_sleep_lock_set>
 10086b6:	100107b7          	lui	a5,0x10010
 10086ba:	7847a783          	lw	a5,1924(a5) # 10010784 <brand_type>
 10086be:	01a7d783          	lhu	a5,26(a5)
 10086c2:	02078263          	beqz	a5,10086e6 <ir_single_send+0x40>
 10086c6:	e31fe0ef          	jal	ra,10074f6 <set_pwm_freq_div>
 10086ca:	100107b7          	lui	a5,0x10010
 10086ce:	7487a783          	lw	a5,1864(a5) # 10010748 <ir_ready>
 10086d2:	8526                	mv	a0,s1
 10086d4:	9782                	jalr	a5
 10086d6:	00051863          	bnez	a0,10086e6 <ir_single_send+0x40>
 10086da:	100107b7          	lui	a5,0x10010
 10086de:	74879123          	sh	s0,1858(a5) # 10010742 <ir_send_param+0x2>
 10086e2:	fb1fe0ef          	jal	ra,1007692 <ir_send>
 10086e6:	3b60406f          	j	100ca9c <__riscv_restore_0>

010086ea <ir_type_init>:
ir_type_init():
 10086ea:	38e042ef          	jal	t0,100ca78 <__riscv_save_0>
 10086ee:	1141                	addi	sp,sp,-16
 10086f0:	100107b7          	lui	a5,0x10010
 10086f4:	76a78c23          	sb	a0,1912(a5) # 10010778 <en_type>
 10086f8:	c62e                	sw	a1,12(sp)
 10086fa:	2c11                	jal	100890e <get_ir_brand>
 10086fc:	45b2                	lw	a1,12(sp)
 10086fe:	10010437          	lui	s0,0x10010
 1008702:	78a42223          	sw	a0,1924(s0) # 10010784 <brand_type>
 1008706:	852e                	mv	a0,a1
 1008708:	22d5                	jal	10088ec <get_ir_customer>
 100870a:	100107b7          	lui	a5,0x10010
 100870e:	78a7a023          	sw	a0,1920(a5) # 10010780 <cust_code>
 1008712:	78442783          	lw	a5,1924(s0)
 1008716:	10010737          	lui	a4,0x10010
 100871a:	77070713          	addi	a4,a4,1904 # 10010770 <lead_buf>
 100871e:	0047d683          	lhu	a3,4(a5)
 1008722:	0147d603          	lhu	a2,20(a5)
 1008726:	c314                	sw	a3,0(a4)
 1008728:	0067d683          	lhu	a3,6(a5)
 100872c:	c354                	sw	a3,4(a4)
 100872e:	0107d683          	lhu	a3,16(a5)
 1008732:	10010737          	lui	a4,0x10010
 1008736:	76870713          	addi	a4,a4,1896 # 10010768 <stop_buf>
 100873a:	c314                	sw	a3,0(a4)
 100873c:	0127d683          	lhu	a3,18(a5)
 1008740:	96b2                	add	a3,a3,a2
 1008742:	c354                	sw	a3,4(a4)
 1008744:	0167d703          	lhu	a4,22(a5)
 1008748:	02070c63          	beqz	a4,1008780 <ir_type_init+0x96>
 100874c:	0187d503          	lhu	a0,24(a5)
 1008750:	2ab5                	jal	10088cc <get_ir_rpt>
 1008752:	00055703          	lhu	a4,0(a0)
 1008756:	100107b7          	lui	a5,0x10010
 100875a:	76a7ae23          	sw	a0,1916(a5) # 1001077c <brand_rpt_code>
 100875e:	100107b7          	lui	a5,0x10010
 1008762:	75878793          	addi	a5,a5,1880 # 10010758 <rpt_lead_buf>
 1008766:	c398                	sw	a4,0(a5)
 1008768:	00255703          	lhu	a4,2(a0)
 100876c:	00855683          	lhu	a3,8(a0)
 1008770:	c3d8                	sw	a4,4(a5)
 1008772:	00455703          	lhu	a4,4(a0)
 1008776:	c798                	sw	a4,8(a5)
 1008778:	00655703          	lhu	a4,6(a0)
 100877c:	9736                	add	a4,a4,a3
 100877e:	c7d8                	sw	a4,12(a5)
 1008780:	78442783          	lw	a5,1924(s0)
 1008784:	10010737          	lui	a4,0x10010
 1008788:	0087d683          	lhu	a3,8(a5)
 100878c:	01a7d503          	lhu	a0,26(a5)
 1008790:	74d71923          	sh	a3,1874(a4) # 10010752 <bit0_l_tm>
 1008794:	00a7d683          	lhu	a3,10(a5)
 1008798:	10010737          	lui	a4,0x10010
 100879c:	74d71823          	sh	a3,1872(a4) # 10010750 <bit0_h_tm>
 10087a0:	00c7d683          	lhu	a3,12(a5)
 10087a4:	10010737          	lui	a4,0x10010
 10087a8:	74d71b23          	sh	a3,1878(a4) # 10010756 <bit1_l_tm>
 10087ac:	00e7d683          	lhu	a3,14(a5)
 10087b0:	10010737          	lui	a4,0x10010
 10087b4:	74d71a23          	sh	a3,1876(a4) # 10010754 <bit1_h_tm>
 10087b8:	d5ffe0ef          	jal	ra,1007516 <ir_set_freq>
 10087bc:	78442783          	lw	a5,1924(s0)
 10087c0:	10010737          	lui	a4,0x10010
 10087c4:	01c7d683          	lhu	a3,28(a5)
 10087c8:	0007d783          	lhu	a5,0(a5)
 10087cc:	76d70ca3          	sb	a3,1913(a4) # 10010779 <user_repeat>
 10087d0:	4755                	li	a4,21
 10087d2:	06f76863          	bltu	a4,a5,1008842 <ir_type_init+0x158>
 10087d6:	0100d737          	lui	a4,0x100d
 10087da:	078a                	slli	a5,a5,0x2
 10087dc:	7d070713          	addi	a4,a4,2000 # 100d7d0 <AAP_StopAnc4+0x3d4>
 10087e0:	97ba                	add	a5,a5,a4
 10087e2:	439c                	lw	a5,0(a5)
 10087e4:	8782                	jr	a5
 10087e6:	010087b7          	lui	a5,0x1008
 10087ea:	10010737          	lui	a4,0x10010
 10087ee:	35478793          	addi	a5,a5,852 # 1008354 <ir_data_ready>
 10087f2:	74f72423          	sw	a5,1864(a4) # 10010748 <ir_ready>
 10087f6:	010077b7          	lui	a5,0x1007
 10087fa:	10010737          	lui	a4,0x10010
 10087fe:	79478793          	addi	a5,a5,1940 # 1007794 <upt_pwm_time_pulse>
 1008802:	a835                	j	100883e <ir_type_init+0x154>
 1008804:	010087b7          	lui	a5,0x1008
 1008808:	10010737          	lui	a4,0x10010
 100880c:	fee78793          	addi	a5,a5,-18 # 1007fee <ir_gemini_ready>
 1008810:	74f72423          	sw	a5,1864(a4) # 10010748 <ir_ready>
 1008814:	010077b7          	lui	a5,0x1007
 1008818:	10010737          	lui	a4,0x10010
 100881c:	7d078793          	addi	a5,a5,2000 # 10077d0 <philips_upt_pwm_time_pulse>
 1008820:	a839                	j	100883e <ir_type_init+0x154>
 1008822:	010087b7          	lui	a5,0x1008
 1008826:	10010737          	lui	a4,0x10010
 100882a:	da278793          	addi	a5,a5,-606 # 1007da2 <ir_fb739a_ready>
 100882e:	74f72423          	sw	a5,1864(a4) # 10010748 <ir_ready>
 1008832:	010087b7          	lui	a5,0x1008
 1008836:	10010737          	lui	a4,0x10010
 100883a:	83478793          	addi	a5,a5,-1996 # 1007834 <FB739A_upt_pwm_time_pulse>
 100883e:	74f72623          	sw	a5,1868(a4) # 1001074c <pwm_time_pulse>
 1008842:	0141                	addi	sp,sp,16
 1008844:	2580406f          	j	100ca9c <__riscv_restore_0>
 1008848:	010087b7          	lui	a5,0x1008
 100884c:	10010737          	lui	a4,0x10010
 1008850:	13078793          	addi	a5,a5,304 # 1008130 <high_ir_data_ready>
 1008854:	bf79                	j	10087f2 <ir_type_init+0x108>
 1008856:	010087b7          	lui	a5,0x1008
 100885a:	10010737          	lui	a4,0x10010
 100885e:	13078793          	addi	a5,a5,304 # 1008130 <high_ir_data_ready>
 1008862:	b77d                	j	1008810 <ir_type_init+0x126>
 1008864:	010087b7          	lui	a5,0x1008
 1008868:	10010737          	lui	a4,0x10010
 100886c:	e2878793          	addi	a5,a5,-472 # 1007e28 <repeat_bit_data_ready>
 1008870:	b749                	j	10087f2 <ir_type_init+0x108>
 1008872:	010087b7          	lui	a5,0x1008
 1008876:	10010737          	lui	a4,0x10010
 100887a:	f4e78793          	addi	a5,a5,-178 # 1007f4e <philips_rcmm_bit_data_ready>
 100887e:	bf95                	j	10087f2 <ir_type_init+0x108>
 1008880:	010087b7          	lui	a5,0x1008
 1008884:	10010737          	lui	a4,0x10010
 1008888:	cac78793          	addi	a5,a5,-852 # 1007cac <IRTI1250C5D7_ready>
 100888c:	b79d                	j	10087f2 <ir_type_init+0x108>
 100888e:	010087b7          	lui	a5,0x1008
 1008892:	10010737          	lui	a4,0x10010
 1008896:	bdc78793          	addi	a5,a5,-1060 # 1007bdc <Zenith_D5_ready>
 100889a:	bfa1                	j	10087f2 <ir_type_init+0x108>

0100889c <ir_init>:
ir_init():
 100889c:	1dc042ef          	jal	t0,100ca78 <__riscv_save_0>
 10088a0:	842a                	mv	s0,a0
 10088a2:	84ae                	mv	s1,a1
 10088a4:	4511                	li	a0,4
 10088a6:	03e00593          	li	a1,62
 10088aa:	e75fa0ef          	jal	ra,100371e <GPIO_Init>
 10088ae:	03f00593          	li	a1,63
 10088b2:	4515                	li	a0,5
 10088b4:	e6bfa0ef          	jal	ra,100371e <GPIO_Init>
 10088b8:	67c1                	lui	a5,0x10
 10088ba:	17fd                	addi	a5,a5,-1
 10088bc:	00f40663          	beq	s0,a5,10088c8 <ir_init+0x2c>
 10088c0:	85a6                	mv	a1,s1
 10088c2:	8522                	mv	a0,s0
 10088c4:	e27ff0ef          	jal	ra,10086ea <ir_type_init>
 10088c8:	1d40406f          	j	100ca9c <__riscv_restore_0>

010088cc <get_ir_rpt>:
get_ir_rpt():
 10088cc:	4799                	li	a5,6
 10088ce:	00a7ea63          	bltu	a5,a0,10088e2 <get_ir_rpt+0x16>
 10088d2:	0100e7b7          	lui	a5,0x100e
 10088d6:	050a                	slli	a0,a0,0x2
 10088d8:	45c78793          	addi	a5,a5,1116 # 100e45c <CSWTCH.0>
 10088dc:	97aa                	add	a5,a5,a0
 10088de:	4388                	lw	a0,0(a5)
 10088e0:	8082                	ret
 10088e2:	0100e537          	lui	a0,0x100e
 10088e6:	84050513          	addi	a0,a0,-1984 # 100d840 <rpt_udp6121_9000_BUF>
 10088ea:	8082                	ret

010088ec <get_ir_customer>:
get_ir_customer():
 10088ec:	0cf00793          	li	a5,207
 10088f0:	00a7ea63          	bltu	a5,a0,1008904 <get_ir_customer+0x18>
 10088f4:	0100e7b7          	lui	a5,0x100e
 10088f8:	050a                	slli	a0,a0,0x2
 10088fa:	47878793          	addi	a5,a5,1144 # 100e478 <CSWTCH.1>
 10088fe:	97aa                	add	a5,a5,a0
 1008900:	4388                	lw	a0,0(a5)
 1008902:	8082                	ret
 1008904:	0100e537          	lui	a0,0x100e
 1008908:	af050513          	addi	a0,a0,-1296 # 100daf0 <CUSTOM_DC_00_BUF>
 100890c:	8082                	ret

0100890e <get_ir_brand>:
get_ir_brand():
 100890e:	04400793          	li	a5,68
 1008912:	00a7ea63          	bltu	a5,a0,1008926 <get_ir_brand+0x18>
 1008916:	0100e7b7          	lui	a5,0x100e
 100891a:	050a                	slli	a0,a0,0x2
 100891c:	7b878793          	addi	a5,a5,1976 # 100e7b8 <CSWTCH.2>
 1008920:	97aa                	add	a5,a5,a0
 1008922:	4388                	lw	a0,0(a5)
 1008924:	8082                	ret
 1008926:	0100e537          	lui	a0,0x100e
 100892a:	1fc50513          	addi	a0,a0,508 # 100e1fc <UPD6121G2_D8_68_BUF>
 100892e:	8082                	ret

01008930 <tx_power_switch_set>:
tx_power_switch_set():
 1008930:	8082                	ret

01008932 <Get_MicReocrd_Len>:
Get_MicReocrd_Len():
 1008932:	10008737          	lui	a4,0x10008
 1008936:	31674683          	lbu	a3,790(a4) # 10008316 <_sidata+0xeff873e>
 100893a:	31774783          	lbu	a5,791(a4)
 100893e:	10014737          	lui	a4,0x10014
 1008942:	ac475703          	lhu	a4,-1340(a4) # 10013ac4 <MicRecord>
 1008946:	07a2                	slli	a5,a5,0x8
 1008948:	8fd5                	or	a5,a5,a3
 100894a:	8f99                	sub	a5,a5,a4
 100894c:	01079513          	slli	a0,a5,0x10
 1008950:	8141                	srli	a0,a0,0x10
 1008952:	0007d863          	bgez	a5,1008962 <Get_MicReocrd_Len+0x30>
 1008956:	6785                	lui	a5,0x1
 1008958:	96078793          	addi	a5,a5,-1696 # 960 <__EN_MIE-0xfff71e>
 100895c:	953e                	add	a0,a0,a5
 100895e:	0542                	slli	a0,a0,0x10
 1008960:	8141                	srli	a0,a0,0x10
 1008962:	8082                	ret

01008964 <Audio_AdcConfig>:
Audio_AdcConfig():
 1008964:	114042ef          	jal	t0,100ca78 <__riscv_save_0>
 1008968:	100147b7          	lui	a5,0x10014
 100896c:	711d                	addi	sp,sp,-96
 100896e:	ac878793          	addi	a5,a5,-1336 # 10013ac8 <MicRecord+0x4>
 1008972:	dc3e                	sw	a5,56(sp)
 1008974:	6785                	lui	a5,0x1
 1008976:	96078713          	addi	a4,a5,-1696 # 960 <__EN_MIE-0xfff71e>
 100897a:	a0278793          	addi	a5,a5,-1534
 100897e:	02e11e23          	sh	a4,60(sp)
 1008982:	04f11623          	sh	a5,76(sp)
 1008986:	4741                	li	a4,16
 1008988:	4791                	li	a5,4
 100898a:	182c                	addi	a1,sp,56
 100898c:	c0ba                	sw	a4,64(sp)
 100898e:	cabe                	sw	a5,84(sp)
 1008990:	4705                	li	a4,1
 1008992:	4789                	li	a5,2
 1008994:	02800613          	li	a2,40
 1008998:	850a                	mv	a0,sp
 100899a:	c4ba                	sw	a4,72(sp)
 100899c:	cebe                	sw	a5,92(sp)
 100899e:	c282                	sw	zero,68(sp)
 10089a0:	c882                	sw	zero,80(sp)
 10089a2:	cc82                	sw	zero,88(sp)
 10089a4:	166040ef          	jal	ra,100cb0a <memcpy>
 10089a8:	850a                	mv	a0,sp
 10089aa:	f5df90ef          	jal	ra,1002906 <AUDIO_AdcInit>
 10089ae:	6125                	addi	sp,sp,96
 10089b0:	0ec0406f          	j	100ca9c <__riscv_restore_0>

010089b4 <Voice_Send>:
Voice_Send():
 10089b4:	09c042ef          	jal	t0,100ca50 <__riscv_save_10>
 10089b8:	10014937          	lui	s2,0x10014
 10089bc:	100134b7          	lui	s1,0x10013
 10089c0:	10014ab7          	lui	s5,0x10014
 10089c4:	86890b13          	addi	s6,s2,-1944 # 10013868 <VoiceEncodeQueMgr>
 10089c8:	7e848493          	addi	s1,s1,2024 # 100137e8 <VoiceNTFBuf>
 10089cc:	86ca8a93          	addi	s5,s5,-1940 # 1001386c <VoiceEncodeQue>
 10089d0:	10014a37          	lui	s4,0x10014
 10089d4:	470a0a13          	addi	s4,s4,1136 # 10014470 <voice_status>
 10089d8:	4511                	li	a0,4
 10089da:	b31f90ef          	jal	ra,100250a <IPC_TxBufferIsEnough>
 10089de:	00050b63          	beqz	a0,10089f4 <Voice_Send+0x40>
 10089e2:	d59fb0ef          	jal	ra,100473a <Bt_HciGetUsedBufferNum>
 10089e6:	47b5                	li	a5,13
 10089e8:	00a7e663          	bltu	a5,a0,10089f4 <Voice_Send+0x40>
 10089ec:	002b4983          	lbu	s3,2(s6)
 10089f0:	00099463          	bnez	s3,10089f8 <Voice_Send+0x44>
 10089f4:	0940406f          	j	100ca88 <__riscv_restore_10>
 10089f8:	86894583          	lbu	a1,-1944(s2)
 10089fc:	10013bb7          	lui	s7,0x10013
 1008a00:	7e4bc403          	lbu	s0,2020(s7) # 100137e4 <ntf_buf_offset>
 1008a04:	00158793          	addi	a5,a1,1
 1008a08:	86f90423          	sb	a5,-1944(s2)
 1008a0c:	03c00793          	li	a5,60
 1008a10:	02f585b3          	mul	a1,a1,a5
 1008a14:	00848533          	add	a0,s1,s0
 1008a18:	03900613          	li	a2,57
 1008a1c:	19fd                	addi	s3,s3,-1
 1008a1e:	03c40413          	addi	s0,s0,60
 1008a22:	0ff47413          	andi	s0,s0,255
 1008a26:	95d6                	add	a1,a1,s5
 1008a28:	0e2040ef          	jal	ra,100cb0a <memcpy>
 1008a2c:	002a5783          	lhu	a5,2(s4)
 1008a30:	013b0123          	sb	s3,2(s6)
 1008a34:	17fd                	addi	a5,a5,-1
 1008a36:	00fa1123          	sh	a5,2(s4)
 1008a3a:	07c00793          	li	a5,124
 1008a3e:	0087ec63          	bltu	a5,s0,1008a56 <Voice_Send+0xa2>
 1008a42:	7e8b8223          	sb	s0,2020(s7)
 1008a46:	86894703          	lbu	a4,-1944(s2)
 1008a4a:	47a5                	li	a5,9
 1008a4c:	f8f716e3          	bne	a4,a5,10089d8 <Voice_Send+0x24>
 1008a50:	86090423          	sb	zero,-1944(s2)
 1008a54:	bfb5                	j	10089d0 <Voice_Send+0x1c>
 1008a56:	479d                	li	a5,7
 1008a58:	8526                	mv	a0,s1
 1008a5a:	7efb8223          	sb	a5,2020(s7)
 1008a5e:	63f010ef          	jal	ra,100a89c <update_voice_packet>
 1008a62:	0014c603          	lbu	a2,1(s1)
 1008a66:	0004c503          	lbu	a0,0(s1)
 1008a6a:	100135b7          	lui	a1,0x10013
 1008a6e:	7ea58593          	addi	a1,a1,2026 # 100137ea <VoiceNTFBuf+0x2>
 1008a72:	bcffd0ef          	jal	ra,1006640 <ATT_sendNotify>
 1008a76:	bfc1                	j	1008a46 <Voice_Send+0x92>

01008a78 <Voice_Encode>:
Voice_Encode():
 1008a78:	000042ef          	jal	t0,100ca78 <__riscv_save_0>
 1008a7c:	eb7ff0ef          	jal	ra,1008932 <Get_MicReocrd_Len>
 1008a80:	0ef00793          	li	a5,239
 1008a84:	00a7fb63          	bgeu	a5,a0,1008a9a <Voice_Encode+0x22>
 1008a88:	10014437          	lui	s0,0x10014
 1008a8c:	86840413          	addi	s0,s0,-1944 # 10013868 <VoiceEncodeQueMgr>
 1008a90:	00244783          	lbu	a5,2(s0)
 1008a94:	4925                	li	s2,9
 1008a96:	00f97963          	bgeu	s2,a5,1008aa8 <Voice_Encode+0x30>
 1008a9a:	0020406f          	j	100ca9c <__riscv_restore_0>
 1008a9e:	10014737          	lui	a4,0x10014
 1008aa2:	ac870713          	addi	a4,a4,-1336 # 10013ac8 <MicRecord+0x4>
 1008aa6:	a0a5                	j	1008b0e <Voice_Encode+0x96>
 1008aa8:	00144583          	lbu	a1,1(s0)
 1008aac:	100144b7          	lui	s1,0x10014
 1008ab0:	ac44a503          	lw	a0,-1340(s1) # 10013ac4 <MicRecord>
 1008ab4:	00158793          	addi	a5,a1,1
 1008ab8:	00f400a3          	sb	a5,1(s0)
 1008abc:	03c00793          	li	a5,60
 1008ac0:	02f585b3          	mul	a1,a1,a5
 1008ac4:	100147b7          	lui	a5,0x10014
 1008ac8:	86c78793          	addi	a5,a5,-1940 # 1001386c <VoiceEncodeQue>
 1008acc:	95be                	add	a1,a1,a5
 1008ace:	2e3d                	jal	1008e0c <msbc_encode_process>
 1008ad0:	100147b7          	lui	a5,0x10014
 1008ad4:	47078793          	addi	a5,a5,1136 # 10014470 <voice_status>
 1008ad8:	0027d703          	lhu	a4,2(a5)
 1008adc:	0705                	addi	a4,a4,1
 1008ade:	00e79123          	sh	a4,2(a5)
 1008ae2:	00244783          	lbu	a5,2(s0)
 1008ae6:	00144703          	lbu	a4,1(s0)
 1008aea:	0785                	addi	a5,a5,1
 1008aec:	00f40123          	sb	a5,2(s0)
 1008af0:	ac448793          	addi	a5,s1,-1340
 1008af4:	01271463          	bne	a4,s2,1008afc <Voice_Encode+0x84>
 1008af8:	000400a3          	sb	zero,1(s0)
 1008afc:	4398                	lw	a4,0(a5)
 1008afe:	100146b7          	lui	a3,0x10014
 1008b02:	42868693          	addi	a3,a3,1064 # 10014428 <sensor_data_report>
 1008b06:	0f070713          	addi	a4,a4,240
 1008b0a:	f8d70ae3          	beq	a4,a3,1008a9e <Voice_Encode+0x26>
 1008b0e:	c398                	sw	a4,0(a5)
 1008b10:	b769                	j	1008a9a <Voice_Encode+0x22>

01008b12 <audio_task>:
audio_task():
 1008b12:	767032ef          	jal	t0,100ca78 <__riscv_save_0>
 1008b16:	e26fc0ef          	jal	ra,100513c <bt_check_le_connected>
 1008b1a:	02050263          	beqz	a0,1008b3e <audio_task+0x2c>
 1008b1e:	100147b7          	lui	a5,0x10014
 1008b22:	4707c783          	lbu	a5,1136(a5) # 10014470 <voice_status>
 1008b26:	00078c63          	beqz	a5,1008b3e <audio_task+0x2c>
 1008b2a:	f4fff0ef          	jal	ra,1008a78 <Voice_Encode>
 1008b2e:	e87ff0ef          	jal	ra,10089b4 <Voice_Send>
 1008b32:	01009537          	lui	a0,0x1009
 1008b36:	b1250513          	addi	a0,a0,-1262 # 1008b12 <audio_task>
 1008b3a:	c8bfd0ef          	jal	ra,10067c4 <app_queue_insert>
 1008b3e:	75f0306f          	j	100ca9c <__riscv_restore_0>

01008b42 <timeout_timer_cb>:
timeout_timer_cb():
 1008b42:	100147b7          	lui	a5,0x10014
 1008b46:	4707c783          	lbu	a5,1136(a5) # 10014470 <voice_status>
 1008b4a:	00078d63          	beqz	a5,1008b64 <timeout_timer_cb+0x22>
 1008b4e:	72b032ef          	jal	t0,100ca78 <__riscv_save_0>
 1008b52:	0100f537          	lui	a0,0x100f
 1008b56:	8cc50513          	addi	a0,a0,-1844 # 100e8cc <CSWTCH.2+0x114>
 1008b5a:	bfff80ef          	jal	ra,1001758 <print_string_log>
 1008b5e:	2851                	jal	1008bf2 <mic_close>
 1008b60:	73d0306f          	j	100ca9c <__riscv_restore_0>
 1008b64:	8082                	ret

01008b66 <start_ntf_timer_cb>:
start_ntf_timer_cb():
 1008b66:	713032ef          	jal	t0,100ca78 <__riscv_save_0>
 1008b6a:	dd2fc0ef          	jal	ra,100513c <bt_check_le_connected>
 1008b6e:	00050f63          	beqz	a0,1008b8c <start_ntf_timer_cb+0x26>
 1008b72:	100147b7          	lui	a5,0x10014
 1008b76:	4707c783          	lbu	a5,1136(a5) # 10014470 <voice_status>
 1008b7a:	00078963          	beqz	a5,1008b8c <start_ntf_timer_cb+0x26>
 1008b7e:	4505                	li	a0,1
 1008b80:	9e8fa0ef          	jal	ra,1002d68 <AUDIO_AdcDmaSet>
 1008b84:	f8fff0ef          	jal	ra,1008b12 <audio_task>
 1008b88:	7150306f          	j	100ca9c <__riscv_restore_0>
 1008b8c:	209d                	jal	1008bf2 <mic_close>
 1008b8e:	bfed                	j	1008b88 <start_ntf_timer_cb+0x22>

01008b90 <voice_timer_init>:
voice_timer_init():
 1008b90:	6e9032ef          	jal	t0,100ca78 <__riscv_save_0>
 1008b94:	01009537          	lui	a0,0x1009
 1008b98:	b6650513          	addi	a0,a0,-1178 # 1008b66 <start_ntf_timer_cb>
 1008b9c:	af2f90ef          	jal	ra,1001e8e <swtimer_add>
 1008ba0:	10010437          	lui	s0,0x10010
 1008ba4:	04a408a3          	sb	a0,81(s0) # 10010051 <start_ntf_timernum>
 1008ba8:	44b9                	li	s1,14
 1008baa:	00a4fd63          	bgeu	s1,a0,1008bc4 <voice_timer_init+0x34>
 1008bae:	85aa                	mv	a1,a0
 1008bb0:	0100f537          	lui	a0,0x100f
 1008bb4:	8d850513          	addi	a0,a0,-1832 # 100e8d8 <CSWTCH.2+0x120>
 1008bb8:	ba1f80ef          	jal	ra,1001758 <print_string_log>
 1008bbc:	05144503          	lbu	a0,81(s0)
 1008bc0:	6dd0306f          	j	100ca9c <__riscv_restore_0>
 1008bc4:	01009537          	lui	a0,0x1009
 1008bc8:	b4250513          	addi	a0,a0,-1214 # 1008b42 <timeout_timer_cb>
 1008bcc:	ac2f90ef          	jal	ra,1001e8e <swtimer_add>
 1008bd0:	10010437          	lui	s0,0x10010
 1008bd4:	85aa                	mv	a1,a0
 1008bd6:	04a40823          	sb	a0,80(s0) # 10010050 <timeout_timernum>
 1008bda:	4501                	li	a0,0
 1008bdc:	feb4f2e3          	bgeu	s1,a1,1008bc0 <voice_timer_init+0x30>
 1008be0:	0100f537          	lui	a0,0x100f
 1008be4:	8f850513          	addi	a0,a0,-1800 # 100e8f8 <CSWTCH.2+0x140>
 1008be8:	b71f80ef          	jal	ra,1001758 <print_string_log>
 1008bec:	05044503          	lbu	a0,80(s0)
 1008bf0:	bfc1                	j	1008bc0 <voice_timer_init+0x30>

01008bf2 <mic_close>:
mic_close():
 1008bf2:	687032ef          	jal	t0,100ca78 <__riscv_save_0>
 1008bf6:	cc7fd0ef          	jal	ra,10068bc <app_queue_reset>
 1008bfa:	1b1010ef          	jal	ra,100a5aa <encode_on>
 1008bfe:	100147b7          	lui	a5,0x10014
 1008c02:	46078823          	sb	zero,1136(a5) # 10014470 <voice_status>
 1008c06:	47078793          	addi	a5,a5,1136
 1008c0a:	00079123          	sh	zero,2(a5)
 1008c0e:	100107b7          	lui	a5,0x10010
 1008c12:	0507c503          	lbu	a0,80(a5) # 10010050 <timeout_timernum>
 1008c16:	9c4f90ef          	jal	ra,1001dda <swtimer_stop>
 1008c1a:	4501                	li	a0,0
 1008c1c:	94cfa0ef          	jal	ra,1002d68 <AUDIO_AdcDmaSet>
 1008c20:	962fa0ef          	jal	ra,1002d82 <AUDIO_AdcStop>
 1008c24:	ce4fc0ef          	jal	ra,1005108 <bt_disable_le_tx_md>
 1008c28:	4505                	li	a0,1
 1008c2a:	d07ff0ef          	jal	ra,1008930 <tx_power_switch_set>
 1008c2e:	4581                	li	a1,0
 1008c30:	4515                	li	a0,5
 1008c32:	ebdfd0ef          	jal	ra,1006aee <app_sleep_lock_set>
 1008c36:	40b020ef          	jal	ra,100b840 <action_after_mic_close>
 1008c3a:	4501                	li	a0,0
 1008c3c:	c5efb0ef          	jal	ra,100409a <System_ChangeDPLL>
 1008c40:	0100f537          	lui	a0,0x100f
 1008c44:	91c50513          	addi	a0,a0,-1764 # 100e91c <CSWTCH.2+0x164>
 1008c48:	b11f80ef          	jal	ra,1001758 <print_string_log>
 1008c4c:	6510306f          	j	100ca9c <__riscv_restore_0>

01008c50 <mic_open>:
mic_open():
 1008c50:	629032ef          	jal	t0,100ca78 <__riscv_save_0>
 1008c54:	0100f537          	lui	a0,0x100f
 1008c58:	92c50513          	addi	a0,a0,-1748 # 100e92c <CSWTCH.2+0x174>
 1008c5c:	afdf80ef          	jal	ra,1001758 <print_string_log>
 1008c60:	167010ef          	jal	ra,100a5c6 <encode_off>
 1008c64:	4585                	li	a1,1
 1008c66:	4515                	li	a0,5
 1008c68:	e87fd0ef          	jal	ra,1006aee <app_sleep_lock_set>
 1008c6c:	4501                	li	a0,0
 1008c6e:	cc3ff0ef          	jal	ra,1008930 <tx_power_switch_set>
 1008c72:	4515                	li	a0,5
 1008c74:	d18fc0ef          	jal	ra,100518c <bt_set_tx_power>
 1008c78:	ca0fc0ef          	jal	ra,1005118 <bt_enable_le_tx_md>
 1008c7c:	471d                	li	a4,7
 1008c7e:	10014437          	lui	s0,0x10014
 1008c82:	100137b7          	lui	a5,0x10013
 1008c86:	7ee78223          	sb	a4,2020(a5) # 100137e4 <ntf_buf_offset>
 1008c8a:	4509                	li	a0,2
 1008c8c:	47040793          	addi	a5,s0,1136 # 10014470 <voice_status>
 1008c90:	000780a3          	sb	zero,1(a5)
 1008c94:	c06fb0ef          	jal	ra,100409a <System_ChangeDPLL>
 1008c98:	10013537          	lui	a0,0x10013
 1008c9c:	07600613          	li	a2,118
 1008ca0:	4581                	li	a1,0
 1008ca2:	7e850513          	addi	a0,a0,2024 # 100137e8 <VoiceNTFBuf>
 1008ca6:	71f030ef          	jal	ra,100cbc4 <memset>
 1008caa:	4785                	li	a5,1
 1008cac:	10014537          	lui	a0,0x10014
 1008cb0:	6605                	lui	a2,0x1
 1008cb2:	ac850713          	addi	a4,a0,-1336 # 10013ac8 <MicRecord+0x4>
 1008cb6:	46f40823          	sb	a5,1136(s0)
 1008cba:	96060613          	addi	a2,a2,-1696 # 960 <__EN_MIE-0xfff71e>
 1008cbe:	100147b7          	lui	a5,0x10014
 1008cc2:	4581                	li	a1,0
 1008cc4:	ac850513          	addi	a0,a0,-1336
 1008cc8:	ace7a223          	sw	a4,-1340(a5) # 10013ac4 <MicRecord>
 1008ccc:	6f9030ef          	jal	ra,100cbc4 <memset>
 1008cd0:	10014537          	lui	a0,0x10014
 1008cd4:	25800613          	li	a2,600
 1008cd8:	4581                	li	a1,0
 1008cda:	86c50513          	addi	a0,a0,-1940 # 1001386c <VoiceEncodeQue>
 1008cde:	6e7030ef          	jal	ra,100cbc4 <memset>
 1008ce2:	100147b7          	lui	a5,0x10014
 1008ce6:	86079423          	sh	zero,-1944(a5) # 10013868 <VoiceEncodeQueMgr>
 1008cea:	86878793          	addi	a5,a5,-1944
 1008cee:	00078123          	sb	zero,2(a5)
 1008cf2:	e17f80ef          	jal	ra,1001b08 <Audio_ClkInit>
 1008cf6:	c6fff0ef          	jal	ra,1008964 <Audio_AdcConfig>
 1008cfa:	100107b7          	lui	a5,0x10010
 1008cfe:	0517c503          	lbu	a0,81(a5) # 10010051 <start_ntf_timernum>
 1008d02:	4601                	li	a2,0
 1008d04:	45a9                	li	a1,10
 1008d06:	914f90ef          	jal	ra,1001e1a <swtimer_start>
 1008d0a:	100107b7          	lui	a5,0x10010
 1008d0e:	0507c503          	lbu	a0,80(a5) # 10010050 <timeout_timernum>
 1008d12:	6591                	lui	a1,0x4
 1008d14:	4601                	li	a2,0
 1008d16:	a9858593          	addi	a1,a1,-1384 # 3a98 <__EN_MIE-0xffc5e6>
 1008d1a:	900f90ef          	jal	ra,1001e1a <swtimer_start>
 1008d1e:	57f0306f          	j	100ca9c <__riscv_restore_0>

01008d22 <voice_report_reinit>:
voice_report_reinit():
 1008d22:	557032ef          	jal	t0,100ca78 <__riscv_save_0>
 1008d26:	100147b7          	lui	a5,0x10014
 1008d2a:	46079823          	sh	zero,1136(a5) # 10014470 <voice_status>
 1008d2e:	47078793          	addi	a5,a5,1136
 1008d32:	00079123          	sh	zero,2(a5)
 1008d36:	28f5                	jal	1008e32 <msbc_encoder_init>
 1008d38:	5650306f          	j	100ca9c <__riscv_restore_0>

01008d3c <voice_report_init>:
voice_report_init():
 1008d3c:	53d032ef          	jal	t0,100ca78 <__riscv_save_0>
 1008d40:	1141                	addi	sp,sp,-16
 1008d42:	e4fff0ef          	jal	ra,1008b90 <voice_timer_init>
 1008d46:	c62a                	sw	a0,12(sp)
 1008d48:	20ed                	jal	1008e32 <msbc_encoder_init>
 1008d4a:	4532                	lw	a0,12(sp)
 1008d4c:	0141                	addi	sp,sp,16
 1008d4e:	54f0306f          	j	100ca9c <__riscv_restore_0>

01008d52 <SBC_Encoder>:
SBC_Encoder():
 1008d52:	50d032ef          	jal	t0,100ca5e <__riscv_save_4>
 1008d56:	23c52783          	lw	a5,572(a0)
 1008d5a:	842a                	mv	s0,a0
 1008d5c:	4a81                	li	s5,0
 1008d5e:	24f52023          	sw	a5,576(a0)
 1008d62:	551c                	lw	a5,40(a0)
 1008d64:	02250493          	addi	s1,a0,34
 1008d68:	00800937          	lui	s2,0x800
 1008d6c:	d15c                	sw	a5,36(a0)
 1008d6e:	69a1                	lui	s3,0x8
 1008d70:	4a3d                	li	s4,15
 1008d72:	8522                	mv	a0,s0
 1008d74:	24b9                	jal	1008fc2 <SbcAnalysisFilter8>
 1008d76:	505c                	lw	a5,36(s0)
 1008d78:	01240713          	addi	a4,s0,18
 1008d7c:	22c40693          	addi	a3,s0,556
 1008d80:	0f078793          	addi	a5,a5,240
 1008d84:	d05c                	sw	a5,36(s0)
 1008d86:	e2068593          	addi	a1,a3,-480
 1008d8a:	4601                	li	a2,0
 1008d8c:	419c                	lw	a5,0(a1)
 1008d8e:	41f7d513          	srai	a0,a5,0x1f
 1008d92:	8fa9                	xor	a5,a5,a0
 1008d94:	8f89                	sub	a5,a5,a0
 1008d96:	00f65363          	bge	a2,a5,1008d9c <SBC_Encoder+0x4a>
 1008d9a:	863e                	mv	a2,a5
 1008d9c:	02058593          	addi	a1,a1,32
 1008da0:	fed596e3          	bne	a1,a3,1008d8c <SBC_Encoder+0x3a>
 1008da4:	47a5                	li	a5,9
 1008da6:	00c94363          	blt	s2,a2,1008dac <SBC_Encoder+0x5a>
 1008daa:	4781                	li	a5,0
 1008dac:	00f995b3          	sll	a1,s3,a5
 1008db0:	00c5d563          	bge	a1,a2,1008dba <SBC_Encoder+0x68>
 1008db4:	0785                	addi	a5,a5,1
 1008db6:	ff479be3          	bne	a5,s4,1008dac <SBC_Encoder+0x5a>
 1008dba:	0709                	addi	a4,a4,2
 1008dbc:	fef71f23          	sh	a5,-2(a4)
 1008dc0:	00faf363          	bgeu	s5,a5,1008dc6 <SBC_Encoder+0x74>
 1008dc4:	8abe                	mv	s5,a5
 1008dc6:	0691                	addi	a3,a3,4
 1008dc8:	fae49fe3          	bne	s1,a4,1008d86 <SBC_Encoder+0x34>
 1008dcc:	8522                	mv	a0,s0
 1008dce:	01541823          	sh	s5,16(s0)
 1008dd2:	2859                	jal	1008e68 <sbc_enc_bit_alloc_mono>
 1008dd4:	8522                	mv	a0,s0
 1008dd6:	0cd000ef          	jal	ra,10096a2 <EncPacking>
 1008dda:	00e44783          	lbu	a5,14(s0)
 1008dde:	17fd                	addi	a5,a5,-1
 1008de0:	0ff7f793          	andi	a5,a5,255
 1008de4:	00f40723          	sb	a5,14(s0)
 1008de8:	f80795e3          	bnez	a5,1008d72 <SBC_Encoder+0x20>
 1008dec:	4785                	li	a5,1
 1008dee:	00f40723          	sb	a5,14(s0)
 1008df2:	4a10306f          	j	100ca92 <__riscv_restore_4>

01008df6 <SBC_Encoder_Init>:
SBC_Encoder_Init():
 1008df6:	483032ef          	jal	t0,100ca78 <__riscv_save_0>
 1008dfa:	100117b7          	lui	a5,0x10011
 1008dfe:	09000713          	li	a4,144
 1008e02:	d4e79a23          	sh	a4,-684(a5) # 10010d54 <EncMaxShiftCounter>
 1008e06:	2d35                	jal	1009442 <SbcAnalysisInit>
 1008e08:	4950306f          	j	100ca9c <__riscv_restore_0>

01008e0c <msbc_encode_process>:
msbc_encode_process():
 1008e0c:	46d032ef          	jal	t0,100ca78 <__riscv_save_0>
 1008e10:	100107b7          	lui	a5,0x10010
 1008e14:	79078713          	addi	a4,a5,1936 # 10010790 <context>
 1008e18:	d708                	sw	a0,40(a4)
 1008e1a:	22b72e23          	sw	a1,572(a4)
 1008e1e:	fad00713          	li	a4,-83
 1008e22:	00e58023          	sb	a4,0(a1)
 1008e26:	79078513          	addi	a0,a5,1936
 1008e2a:	f29ff0ef          	jal	ra,1008d52 <SBC_Encoder>
 1008e2e:	46f0306f          	j	100ca9c <__riscv_restore_0>

01008e32 <msbc_encoder_init>:
msbc_encoder_init():
 1008e32:	447032ef          	jal	t0,100ca78 <__riscv_save_0>
 1008e36:	100107b7          	lui	a5,0x10010
 1008e3a:	6741                	lui	a4,0x10
 1008e3c:	7807a823          	sw	zero,1936(a5) # 10010790 <context>
 1008e40:	0721                	addi	a4,a4,8
 1008e42:	79078793          	addi	a5,a5,1936
 1008e46:	c3d8                	sw	a4,4(a5)
 1008e48:	473d                	li	a4,15
 1008e4a:	c798                	sw	a4,8(a5)
 1008e4c:	4769                	li	a4,26
 1008e4e:	00e79623          	sh	a4,12(a5)
 1008e52:	4705                	li	a4,1
 1008e54:	00e78723          	sb	a4,14(a5)
 1008e58:	02100713          	li	a4,33
 1008e5c:	24e79223          	sh	a4,580(a5)
 1008e60:	f97ff0ef          	jal	ra,1008df6 <SBC_Encoder_Init>
 1008e64:	4390306f          	j	100ca9c <__riscv_restore_0>

01008e68 <sbc_enc_bit_alloc_mono>:
sbc_enc_bit_alloc_mono():
 1008e68:	00a51683          	lh	a3,10(a0)
 1008e6c:	4785                	li	a5,1
 1008e6e:	22c50713          	addi	a4,a0,556
 1008e72:	0af69263          	bne	a3,a5,1008f16 <sbc_enc_bit_alloc_mono+0xae>
 1008e76:	01250693          	addi	a3,a0,18
 1008e7a:	01068e13          	addi	t3,a3,16
 1008e7e:	87b6                	mv	a5,a3
 1008e80:	4601                	li	a2,0
 1008e82:	00079583          	lh	a1,0(a5)
 1008e86:	00b65363          	bge	a2,a1,1008e8c <sbc_enc_bit_alloc_mono+0x24>
 1008e8a:	862e                	mv	a2,a1
 1008e8c:	0789                	addi	a5,a5,2
 1008e8e:	fefe1ae3          	bne	t3,a5,1008e82 <sbc_enc_bit_alloc_mono+0x1a>
 1008e92:	0605                	addi	a2,a2,1
 1008e94:	4581                	li	a1,0
 1008e96:	47e9                	li	a5,26
 1008e98:	4eb9                	li	t4,14
 1008e9a:	4f05                	li	t5,1
 1008e9c:	8f8d                	sub	a5,a5,a1
 1008e9e:	fff60813          	addi	a6,a2,-1
 1008ea2:	88b6                	mv	a7,a3
 1008ea4:	4581                	li	a1,0
 1008ea6:	00089303          	lh	t1,0(a7)
 1008eaa:	41030333          	sub	t1,t1,a6
 1008eae:	fff30f93          	addi	t6,t1,-1
 1008eb2:	01fee563          	bltu	t4,t6,1008ebc <sbc_enc_bit_alloc_mono+0x54>
 1008eb6:	0be31163          	bne	t1,t5,1008f58 <sbc_enc_bit_alloc_mono+0xf0>
 1008eba:	0589                	addi	a1,a1,2
 1008ebc:	0889                	addi	a7,a7,2
 1008ebe:	ff1e14e3          	bne	t3,a7,1008ea6 <sbc_enc_bit_alloc_mono+0x3e>
 1008ec2:	40b788b3          	sub	a7,a5,a1
 1008ec6:	09104763          	bgtz	a7,1008f54 <sbc_enc_bit_alloc_mono+0xec>
 1008eca:	00079563          	bnez	a5,1008ed4 <sbc_enc_bit_alloc_mono+0x6c>
 1008ece:	ffe60813          	addi	a6,a2,-2
 1008ed2:	87c6                	mv	a5,a7
 1008ed4:	88ba                	mv	a7,a4
 1008ed6:	85b6                	mv	a1,a3
 1008ed8:	00180313          	addi	t1,a6,1
 1008edc:	4f3d                	li	t5,15
 1008ede:	00059603          	lh	a2,0(a1)
 1008ee2:	06c34d63          	blt	t1,a2,1008f5c <sbc_enc_bit_alloc_mono+0xf4>
 1008ee6:	00089023          	sh	zero,0(a7)
 1008eea:	0589                	addi	a1,a1,2
 1008eec:	0889                	addi	a7,a7,2
 1008eee:	febe18e3          	bne	t3,a1,1008ede <sbc_enc_bit_alloc_mono+0x76>
 1008ef2:	863a                	mv	a2,a4
 1008ef4:	4581                	li	a1,0
 1008ef6:	4e21                	li	t3,8
 1008ef8:	4eb5                	li	t4,13
 1008efa:	4f05                	li	t5,1
 1008efc:	4f89                	li	t6,2
 1008efe:	00f05463          	blez	a5,1008f06 <sbc_enc_bit_alloc_mono+0x9e>
 1008f02:	07c59963          	bne	a1,t3,1008f74 <sbc_enc_bit_alloc_mono+0x10c>
 1008f06:	23c50513          	addi	a0,a0,572
 1008f0a:	463d                	li	a2,15
 1008f0c:	00f05463          	blez	a5,1008f14 <sbc_enc_bit_alloc_mono+0xac>
 1008f10:	08a71f63          	bne	a4,a0,1008fae <sbc_enc_bit_alloc_mono+0x146>
 1008f14:	8082                	ret
 1008f16:	02c50693          	addi	a3,a0,44
 1008f1a:	0100f5b7          	lui	a1,0x100f
 1008f1e:	03c50813          	addi	a6,a0,60
 1008f22:	8636                	mv	a2,a3
 1008f24:	93858593          	addi	a1,a1,-1736 # 100e938 <sbc_enc_as16Offset8>
 1008f28:	58ed                	li	a7,-5
 1008f2a:	fe661783          	lh	a5,-26(a2)
 1008f2e:	00079963          	bnez	a5,1008f40 <sbc_enc_bit_alloc_mono+0xd8>
 1008f32:	01161023          	sh	a7,0(a2)
 1008f36:	0609                	addi	a2,a2,2
 1008f38:	0589                	addi	a1,a1,2
 1008f3a:	fec818e3          	bne	a6,a2,1008f2a <sbc_enc_bit_alloc_mono+0xc2>
 1008f3e:	bf35                	j	1008e7a <sbc_enc_bit_alloc_mono+0x12>
 1008f40:	00059303          	lh	t1,0(a1)
 1008f44:	406787b3          	sub	a5,a5,t1
 1008f48:	00f05363          	blez	a5,1008f4e <sbc_enc_bit_alloc_mono+0xe6>
 1008f4c:	8785                	srai	a5,a5,0x1
 1008f4e:	00f61023          	sh	a5,0(a2)
 1008f52:	b7d5                	j	1008f36 <sbc_enc_bit_alloc_mono+0xce>
 1008f54:	8642                	mv	a2,a6
 1008f56:	b799                	j	1008e9c <sbc_enc_bit_alloc_mono+0x34>
 1008f58:	0585                	addi	a1,a1,1
 1008f5a:	b78d                	j	1008ebc <sbc_enc_bit_alloc_mono+0x54>
 1008f5c:	41060633          	sub	a2,a2,a6
 1008f60:	4ec1                	li	t4,16
 1008f62:	00cf4663          	blt	t5,a2,1008f6e <sbc_enc_bit_alloc_mono+0x106>
 1008f66:	01061e93          	slli	t4,a2,0x10
 1008f6a:	410ede93          	srai	t4,t4,0x10
 1008f6e:	01d89023          	sh	t4,0(a7)
 1008f72:	bfa5                	j	1008eea <sbc_enc_bit_alloc_mono+0x82>
 1008f74:	00065803          	lhu	a6,0(a2)
 1008f78:	ffe80893          	addi	a7,a6,-2
 1008f7c:	08c2                	slli	a7,a7,0x10
 1008f7e:	0108d893          	srli	a7,a7,0x10
 1008f82:	011ee963          	bltu	t4,a7,1008f94 <sbc_enc_bit_alloc_mono+0x12c>
 1008f86:	0805                	addi	a6,a6,1
 1008f88:	01061023          	sh	a6,0(a2)
 1008f8c:	17fd                	addi	a5,a5,-1
 1008f8e:	0585                	addi	a1,a1,1
 1008f90:	0609                	addi	a2,a2,2
 1008f92:	b7b5                	j	1008efe <sbc_enc_bit_alloc_mono+0x96>
 1008f94:	00159813          	slli	a6,a1,0x1
 1008f98:	9836                	add	a6,a6,a3
 1008f9a:	00081803          	lh	a6,0(a6)
 1008f9e:	ff0318e3          	bne	t1,a6,1008f8e <sbc_enc_bit_alloc_mono+0x126>
 1008fa2:	ffe786e3          	beq	a5,t5,1008f8e <sbc_enc_bit_alloc_mono+0x126>
 1008fa6:	01f61023          	sh	t6,0(a2)
 1008faa:	17f9                	addi	a5,a5,-2
 1008fac:	b7cd                	j	1008f8e <sbc_enc_bit_alloc_mono+0x126>
 1008fae:	00071683          	lh	a3,0(a4) # 10000 <__EN_MIE-0xff007e>
 1008fb2:	00d64663          	blt	a2,a3,1008fbe <sbc_enc_bit_alloc_mono+0x156>
 1008fb6:	0685                	addi	a3,a3,1
 1008fb8:	00d71023          	sh	a3,0(a4)
 1008fbc:	17fd                	addi	a5,a5,-1
 1008fbe:	0709                	addi	a4,a4,2
 1008fc0:	b7b1                	j	1008f0c <sbc_enc_bit_alloc_mono+0xa4>

01008fc2 <SbcAnalysisFilter8>:
SbcAnalysisFilter8():
 1008fc2:	28f032ef          	jal	t0,100ca50 <__riscv_save_10>
 1008fc6:	5144                	lw	s1,36(a0)
 1008fc8:	6905                	lui	s2,0x1
 1008fca:	10011437          	lui	s0,0x10011
 1008fce:	04c50993          	addi	s3,a0,76
 1008fd2:	0f048c13          	addi	s8,s1,240
 1008fd6:	10011ab7          	lui	s5,0x10011
 1008fda:	10011a37          	lui	s4,0x10011
 1008fde:	10010b37          	lui	s6,0x10010
 1008fe2:	9d840413          	addi	s0,s0,-1576 # 100109d8 <s32DCTY>
 1008fe6:	8b490c93          	addi	s9,s2,-1868 # 8b4 <__EN_MIE-0xfff7ca>
 1008fea:	a9f90b93          	addi	s7,s2,-1377
 1008fee:	d54a9683          	lh	a3,-684(s5) # 10010d54 <EncMaxShiftCounter>
 1008ff2:	bd8a1783          	lh	a5,-1064(s4) # 10010bd8 <ShiftCounter>
 1008ff6:	00049603          	lh	a2,0(s1)
 1008ffa:	4595                	li	a1,5
 1008ffc:	8e9d                	sub	a3,a3,a5
 1008ffe:	054b2783          	lw	a5,84(s6) # 10010054 <s16X>
 1009002:	00768713          	addi	a4,a3,7
 1009006:	0706                	slli	a4,a4,0x1
 1009008:	973e                	add	a4,a4,a5
 100900a:	00c71023          	sh	a2,0(a4)
 100900e:	00249603          	lh	a2,2(s1)
 1009012:	0686                	slli	a3,a3,0x1
 1009014:	97b6                	add	a5,a5,a3
 1009016:	fec71f23          	sh	a2,-2(a4)
 100901a:	00449603          	lh	a2,4(s1)
 100901e:	10700513          	li	a0,263
 1009022:	04c1                	addi	s1,s1,16
 1009024:	fec71e23          	sh	a2,-4(a4)
 1009028:	ff649603          	lh	a2,-10(s1)
 100902c:	fec71d23          	sh	a2,-6(a4)
 1009030:	ff849603          	lh	a2,-8(s1)
 1009034:	fec71c23          	sh	a2,-8(a4)
 1009038:	ffa49603          	lh	a2,-6(s1)
 100903c:	fec71b23          	sh	a2,-10(a4)
 1009040:	ffc49603          	lh	a2,-4(s1)
 1009044:	fec71a23          	sh	a2,-12(a4)
 1009048:	ffe49703          	lh	a4,-2(s1)
 100904c:	08079683          	lh	a3,128(a5)
 1009050:	06079603          	lh	a2,96(a5)
 1009054:	00e79023          	sh	a4,0(a5)
 1009058:	02079703          	lh	a4,32(a5)
 100905c:	8f15                	sub	a4,a4,a3
 100905e:	0b900693          	li	a3,185
 1009062:	02d706b3          	mul	a3,a4,a3
 1009066:	04079703          	lh	a4,64(a5)
 100906a:	8f11                	sub	a4,a4,a2
 100906c:	02279603          	lh	a2,34(a5)
 1009070:	03970733          	mul	a4,a4,s9
 1009074:	9736                	add	a4,a4,a3
 1009076:	c018                	sw	a4,0(s0)
 1009078:	00279683          	lh	a3,2(a5)
 100907c:	09e79703          	lh	a4,158(a5)
 1009080:	02a60633          	mul	a2,a2,a0
 1009084:	02b686b3          	mul	a3,a3,a1
 1009088:	02b70733          	mul	a4,a4,a1
 100908c:	07e79583          	lh	a1,126(a5)
 1009090:	96b2                	add	a3,a3,a2
 1009092:	04279603          	lh	a2,66(a5)
 1009096:	02a585b3          	mul	a1,a1,a0
 100909a:	93100513          	li	a0,-1743
 100909e:	972e                	add	a4,a4,a1
 10090a0:	05e79583          	lh	a1,94(a5)
 10090a4:	03760633          	mul	a2,a2,s7
 10090a8:	037585b3          	mul	a1,a1,s7
 10090ac:	9636                	add	a2,a2,a3
 10090ae:	06279683          	lh	a3,98(a5)
 10090b2:	95ba                	add	a1,a1,a4
 10090b4:	03e79703          	lh	a4,62(a5)
 10090b8:	02a686b3          	mul	a3,a3,a0
 10090bc:	02a70733          	mul	a4,a4,a0
 10090c0:	9636                	add	a2,a2,a3
 10090c2:	f8d00513          	li	a0,-115
 10090c6:	95ba                	add	a1,a1,a4
 10090c8:	01e79703          	lh	a4,30(a5)
 10090cc:	08279683          	lh	a3,130(a5)
 10090d0:	02a70733          	mul	a4,a4,a0
 10090d4:	02a686b3          	mul	a3,a3,a0
 10090d8:	972e                	add	a4,a4,a1
 10090da:	dc58                	sw	a4,60(s0)
 10090dc:	09c79703          	lh	a4,156(a5)
 10090e0:	45ad                	li	a1,11
 10090e2:	15700513          	li	a0,343
 10090e6:	96b2                	add	a3,a3,a2
 10090e8:	c054                	sw	a3,4(s0)
 10090ea:	00479683          	lh	a3,4(a5)
 10090ee:	02479603          	lh	a2,36(a5)
 10090f2:	02b70733          	mul	a4,a4,a1
 10090f6:	02b686b3          	mul	a3,a3,a1
 10090fa:	07c79583          	lh	a1,124(a5)
 10090fe:	02a60633          	mul	a2,a2,a0
 1009102:	02a585b3          	mul	a1,a1,a0
 1009106:	96b2                	add	a3,a3,a2
 1009108:	04479603          	lh	a2,68(a5)
 100910c:	c7d90513          	addi	a0,s2,-899
 1009110:	972e                	add	a4,a4,a1
 1009112:	05c79583          	lh	a1,92(a5)
 1009116:	02a60633          	mul	a2,a2,a0
 100911a:	02a585b3          	mul	a1,a1,a0
 100911e:	9636                	add	a2,a2,a3
 1009120:	06479683          	lh	a3,100(a5)
 1009124:	b0000513          	li	a0,-1280
 1009128:	95ba                	add	a1,a1,a4
 100912a:	03c79703          	lh	a4,60(a5)
 100912e:	02a686b3          	mul	a3,a3,a0
 1009132:	02a70733          	mul	a4,a4,a0
 1009136:	9636                	add	a2,a2,a3
 1009138:	08479683          	lh	a3,132(a5)
 100913c:	fca00513          	li	a0,-54
 1009140:	95ba                	add	a1,a1,a4
 1009142:	01c79703          	lh	a4,28(a5)
 1009146:	02a686b3          	mul	a3,a3,a0
 100914a:	02a70733          	mul	a4,a4,a0
 100914e:	96b2                	add	a3,a3,a2
 1009150:	c414                	sw	a3,8(s0)
 1009152:	00679683          	lh	a3,6(a5)
 1009156:	02679603          	lh	a2,38(a5)
 100915a:	1a200513          	li	a0,418
 100915e:	972e                	add	a4,a4,a1
 1009160:	dc18                	sw	a4,56(s0)
 1009162:	09a79703          	lh	a4,154(a5)
 1009166:	45c9                	li	a1,18
 1009168:	02b686b3          	mul	a3,a3,a1
 100916c:	02b70733          	mul	a4,a4,a1
 1009170:	07a79583          	lh	a1,122(a5)
 1009174:	02a60633          	mul	a2,a2,a0
 1009178:	02a585b3          	mul	a1,a1,a0
 100917c:	96b2                	add	a3,a3,a2
 100917e:	04679603          	lh	a2,70(a5)
 1009182:	e3c90513          	addi	a0,s2,-452
 1009186:	972e                	add	a4,a4,a1
 1009188:	05a79583          	lh	a1,90(a5)
 100918c:	02a60633          	mul	a2,a2,a0
 1009190:	02a585b3          	mul	a1,a1,a0
 1009194:	9636                	add	a2,a2,a3
 1009196:	06679683          	lh	a3,102(a5)
 100919a:	ca800513          	li	a0,-856
 100919e:	95ba                	add	a1,a1,a4
 10091a0:	03a79703          	lh	a4,58(a5)
 10091a4:	02a686b3          	mul	a3,a3,a0
 10091a8:	02a70733          	mul	a4,a4,a0
 10091ac:	9636                	add	a2,a2,a3
 10091ae:	08679683          	lh	a3,134(a5)
 10091b2:	5569                	li	a0,-6
 10091b4:	95ba                	add	a1,a1,a4
 10091b6:	01a79703          	lh	a4,26(a5)
 10091ba:	02a686b3          	mul	a3,a3,a0
 10091be:	02a70733          	mul	a4,a4,a0
 10091c2:	96b2                	add	a3,a3,a2
 10091c4:	c454                	sw	a3,12(s0)
 10091c6:	00879683          	lh	a3,8(a5)
 10091ca:	02879603          	lh	a2,40(a5)
 10091ce:	1e000513          	li	a0,480
 10091d2:	972e                	add	a4,a4,a1
 10091d4:	d858                	sw	a4,52(s0)
 10091d6:	09879703          	lh	a4,152(a5)
 10091da:	45ed                	li	a1,27
 10091dc:	02b686b3          	mul	a3,a3,a1
 10091e0:	02b70733          	mul	a4,a4,a1
 10091e4:	07879583          	lh	a1,120(a5)
 10091e8:	02a60633          	mul	a2,a2,a0
 10091ec:	02a585b3          	mul	a1,a1,a0
 10091f0:	96b2                	add	a3,a3,a2
 10091f2:	04879603          	lh	a2,72(a5)
 10091f6:	fc790513          	addi	a0,s2,-57
 10091fa:	972e                	add	a4,a4,a1
 10091fc:	05879583          	lh	a1,88(a5)
 1009200:	02a60633          	mul	a2,a2,a0
 1009204:	02a585b3          	mul	a1,a1,a0
 1009208:	9636                	add	a2,a2,a3
 100920a:	06879683          	lh	a3,104(a5)
 100920e:	e2000513          	li	a0,-480
 1009212:	95ba                	add	a1,a1,a4
 1009214:	03879703          	lh	a4,56(a5)
 1009218:	02a686b3          	mul	a3,a3,a0
 100921c:	02a70733          	mul	a4,a4,a0
 1009220:	9636                	add	a2,a2,a3
 1009222:	08879683          	lh	a3,136(a5)
 1009226:	4579                	li	a0,30
 1009228:	95ba                	add	a1,a1,a4
 100922a:	01879703          	lh	a4,24(a5)
 100922e:	02a686b3          	mul	a3,a3,a0
 1009232:	02a70733          	mul	a4,a4,a0
 1009236:	96b2                	add	a3,a3,a2
 1009238:	c814                	sw	a3,16(s0)
 100923a:	00a79683          	lh	a3,10(a5)
 100923e:	02a79603          	lh	a2,42(a5)
 1009242:	20900513          	li	a0,521
 1009246:	972e                	add	a4,a4,a1
 1009248:	d818                	sw	a4,48(s0)
 100924a:	09679703          	lh	a4,150(a5)
 100924e:	02500593          	li	a1,37
 1009252:	02b686b3          	mul	a3,a3,a1
 1009256:	02b70733          	mul	a4,a4,a1
 100925a:	07679583          	lh	a1,118(a5)
 100925e:	02a60633          	mul	a2,a2,a0
 1009262:	02a585b3          	mul	a1,a1,a0
 1009266:	96b2                	add	a3,a3,a2
 1009268:	04a79603          	lh	a2,74(a5)
 100926c:	10f90513          	addi	a0,s2,271
 1009270:	972e                	add	a4,a4,a1
 1009272:	05679583          	lh	a1,86(a5)
 1009276:	02a60633          	mul	a2,a2,a0
 100927a:	02a585b3          	mul	a1,a1,a0
 100927e:	9636                	add	a2,a2,a3
 1009280:	06a79683          	lh	a3,106(a5)
 1009284:	f5f00513          	li	a0,-161
 1009288:	95ba                	add	a1,a1,a4
 100928a:	03679703          	lh	a4,54(a5)
 100928e:	02a686b3          	mul	a3,a3,a0
 1009292:	02a70733          	mul	a4,a4,a0
 1009296:	9636                	add	a2,a2,a3
 1009298:	08a79683          	lh	a3,138(a5)
 100929c:	03500513          	li	a0,53
 10092a0:	95ba                	add	a1,a1,a4
 10092a2:	01679703          	lh	a4,22(a5)
 10092a6:	02a686b3          	mul	a3,a3,a0
 10092aa:	02a70733          	mul	a4,a4,a0
 10092ae:	96b2                	add	a3,a3,a2
 10092b0:	c854                	sw	a3,20(s0)
 10092b2:	00c79683          	lh	a3,12(a5)
 10092b6:	02c79603          	lh	a2,44(a5)
 10092ba:	21400513          	li	a0,532
 10092be:	972e                	add	a4,a4,a1
 10092c0:	d458                	sw	a4,44(s0)
 10092c2:	09479703          	lh	a4,148(a5)
 10092c6:	03000593          	li	a1,48
 10092ca:	02b686b3          	mul	a3,a3,a1
 10092ce:	02b70733          	mul	a4,a4,a1
 10092d2:	07479583          	lh	a1,116(a5)
 10092d6:	02a60633          	mul	a2,a2,a0
 10092da:	02a585b3          	mul	a1,a1,a0
 10092de:	96b2                	add	a3,a3,a2
 10092e0:	04c79603          	lh	a2,76(a5)
 10092e4:	20490513          	addi	a0,s2,516
 10092e8:	972e                	add	a4,a4,a1
 10092ea:	05479583          	lh	a1,84(a5)
 10092ee:	02a60633          	mul	a2,a2,a0
 10092f2:	02a585b3          	mul	a1,a1,a0
 10092f6:	9636                	add	a2,a2,a3
 10092f8:	06c79683          	lh	a3,108(a5)
 10092fc:	06000513          	li	a0,96
 1009300:	95ba                	add	a1,a1,a4
 1009302:	03479703          	lh	a4,52(a5)
 1009306:	02a686b3          	mul	a3,a3,a0
 100930a:	02a70733          	mul	a4,a4,a0
 100930e:	9636                	add	a2,a2,a3
 1009310:	08c79683          	lh	a3,140(a5)
 1009314:	04100513          	li	a0,65
 1009318:	95ba                	add	a1,a1,a4
 100931a:	01479703          	lh	a4,20(a5)
 100931e:	02a686b3          	mul	a3,a3,a0
 1009322:	02a70733          	mul	a4,a4,a0
 1009326:	96b2                	add	a3,a3,a2
 1009328:	cc14                	sw	a3,24(s0)
 100932a:	1f600513          	li	a0,502
 100932e:	972e                	add	a4,a4,a1
 1009330:	d418                	sw	a4,40(s0)
 1009332:	00e79683          	lh	a3,14(a5)
 1009336:	09279703          	lh	a4,146(a5)
 100933a:	03a00593          	li	a1,58
 100933e:	02e79603          	lh	a2,46(a5)
 1009342:	02b686b3          	mul	a3,a3,a1
 1009346:	02b70733          	mul	a4,a4,a1
 100934a:	07279583          	lh	a1,114(a5)
 100934e:	02a60633          	mul	a2,a2,a0
 1009352:	02a585b3          	mul	a1,a1,a0
 1009356:	96b2                	add	a3,a3,a2
 1009358:	04e79603          	lh	a2,78(a5)
 100935c:	29c90513          	addi	a0,s2,668
 1009360:	972e                	add	a4,a4,a1
 1009362:	05279583          	lh	a1,82(a5)
 1009366:	02a60633          	mul	a2,a2,a0
 100936a:	02a585b3          	mul	a1,a1,a0
 100936e:	9636                	add	a2,a2,a3
 1009370:	06e79683          	lh	a3,110(a5)
 1009374:	12200513          	li	a0,290
 1009378:	95ba                	add	a1,a1,a4
 100937a:	03279703          	lh	a4,50(a5)
 100937e:	02a686b3          	mul	a3,a3,a0
 1009382:	02a70733          	mul	a4,a4,a0
 1009386:	9636                	add	a2,a2,a3
 1009388:	08e79683          	lh	a3,142(a5)
 100938c:	04500513          	li	a0,69
 1009390:	95ba                	add	a1,a1,a4
 1009392:	01279703          	lh	a4,18(a5)
 1009396:	02a686b3          	mul	a3,a3,a0
 100939a:	02a70733          	mul	a4,a4,a0
 100939e:	96b2                	add	a3,a3,a2
 10093a0:	cc54                	sw	a3,28(s0)
 10093a2:	09079683          	lh	a3,144(a5)
 10093a6:	07079603          	lh	a2,112(a5)
 10093aa:	8522                	mv	a0,s0
 10093ac:	972e                	add	a4,a4,a1
 10093ae:	d058                	sw	a4,36(s0)
 10093b0:	01079703          	lh	a4,16(a5)
 10093b4:	85ce                	mv	a1,s3
 10093b6:	02098993          	addi	s3,s3,32 # 8020 <__EN_MIE-0xff805e>
 10093ba:	9736                	add	a4,a4,a3
 10093bc:	04200693          	li	a3,66
 10093c0:	02d706b3          	mul	a3,a4,a3
 10093c4:	03079703          	lh	a4,48(a5)
 10093c8:	05079783          	lh	a5,80(a5)
 10093cc:	9732                	add	a4,a4,a2
 10093ce:	1a800613          	li	a2,424
 10093d2:	02c70733          	mul	a4,a4,a2
 10093d6:	9736                	add	a4,a4,a3
 10093d8:	2cf90693          	addi	a3,s2,719
 10093dc:	02d787b3          	mul	a5,a5,a3
 10093e0:	973e                	add	a4,a4,a5
 10093e2:	d018                	sw	a4,32(s0)
 10093e4:	2041                	jal	1009464 <SBC_FastIDCT8>
 10093e6:	bd8a1783          	lh	a5,-1064(s4)
 10093ea:	d54a9703          	lh	a4,-684(s5)
 10093ee:	04e7c663          	blt	a5,a4,100943a <SbcAnalysisFilter8+0x478>
 10093f2:	04e70713          	addi	a4,a4,78
 10093f6:	00171693          	slli	a3,a4,0x1
 10093fa:	054b2703          	lw	a4,84(s6)
 10093fe:	8785                	srai	a5,a5,0x1
 1009400:	9736                	add	a4,a4,a3
 1009402:	56f1                	li	a3,-4
 1009404:	02d787b3          	mul	a5,a5,a3
 1009408:	f7070693          	addi	a3,a4,-144
 100940c:	97ba                	add	a5,a5,a4
 100940e:	ff07a603          	lw	a2,-16(a5)
 1009412:	1741                	addi	a4,a4,-16
 1009414:	17c1                	addi	a5,a5,-16
 1009416:	cb10                	sw	a2,16(a4)
 1009418:	ffc7a603          	lw	a2,-4(a5)
 100941c:	c750                	sw	a2,12(a4)
 100941e:	ff87a603          	lw	a2,-8(a5)
 1009422:	c710                	sw	a2,8(a4)
 1009424:	ff47a603          	lw	a2,-12(a5)
 1009428:	c350                	sw	a2,4(a4)
 100942a:	fed712e3          	bne	a4,a3,100940e <SbcAnalysisFilter8+0x44c>
 100942e:	bc0a1c23          	sh	zero,-1064(s4)
 1009432:	bb849ee3          	bne	s1,s8,1008fee <SbcAnalysisFilter8+0x2c>
 1009436:	6520306f          	j	100ca88 <__riscv_restore_10>
 100943a:	07a1                	addi	a5,a5,8
 100943c:	bcfa1c23          	sh	a5,-1064(s4)
 1009440:	bfcd                	j	1009432 <SbcAnalysisFilter8+0x470>

01009442 <SbcAnalysisInit>:
SbcAnalysisInit():
 1009442:	636032ef          	jal	t0,100ca78 <__riscv_save_0>
 1009446:	100107b7          	lui	a5,0x10010
 100944a:	0547a503          	lw	a0,84(a5) # 10010054 <s16X>
 100944e:	1c000613          	li	a2,448
 1009452:	4581                	li	a1,0
 1009454:	770030ef          	jal	ra,100cbc4 <memset>
 1009458:	100117b7          	lui	a5,0x10011
 100945c:	bc079c23          	sh	zero,-1064(a5) # 10010bd8 <ShiftCounter>
 1009460:	63c0306f          	j	100ca9c <__riscv_restore_0>

01009464 <SBC_FastIDCT8>:
SBC_FastIDCT8():
 1009464:	614032ef          	jal	t0,100ca78 <__riscv_save_0>
 1009468:	4918                	lw	a4,16(a0)
 100946a:	6e41                	lui	t3,0x10
 100946c:	fffe0793          	addi	a5,t3,-1 # ffff <__EN_MIE-0xff007f>
 1009470:	6f99                	lui	t6,0x6
 1009472:	a82f8f93          	addi	t6,t6,-1406 # 5a82 <__EN_MIE-0xffa5fc>
 1009476:	00f77333          	and	t1,a4,a5
 100947a:	8741                	srai	a4,a4,0x10
 100947c:	03f30333          	mul	t1,t1,t6
 1009480:	5114                	lw	a3,32(a0)
 1009482:	00052883          	lw	a7,0(a0)
 1009486:	4550                	lw	a2,12(a0)
 1009488:	02852f03          	lw	t5,40(a0)
 100948c:	98b6                	add	a7,a7,a3
 100948e:	5d14                	lw	a3,56(a0)
 1009490:	01852803          	lw	a6,24(a0)
 1009494:	4018d893          	srai	a7,a7,0x1
 1009498:	40df0f33          	sub	t5,t5,a3
 100949c:	03f70733          	mul	a4,a4,t6
 10094a0:	40f35313          	srai	t1,t1,0xf
 10094a4:	628d                	lui	t0,0x3
 10094a6:	0fb28293          	addi	t0,t0,251 # 30fb <__EN_MIE-0xffcf83>
 10094aa:	0706                	slli	a4,a4,0x1
 10094ac:	933a                	add	t1,t1,a4
 10094ae:	4958                	lw	a4,20(a0)
 10094b0:	011306b3          	add	a3,t1,a7
 10094b4:	41130333          	sub	t1,t1,a7
 10094b8:	963a                	add	a2,a2,a4
 10094ba:	4518                	lw	a4,8(a0)
 10094bc:	00f378b3          	and	a7,t1,a5
 10094c0:	41035313          	srai	t1,t1,0x10
 10094c4:	9742                	add	a4,a4,a6
 10094c6:	00f6f833          	and	a6,a3,a5
 10094ca:	86c1                	srai	a3,a3,0x10
 10094cc:	03f80833          	mul	a6,a6,t6
 10094d0:	8705                	srai	a4,a4,0x1
 10094d2:	8605                	srai	a2,a2,0x1
 10094d4:	03f686b3          	mul	a3,a3,t6
 10094d8:	40f85813          	srai	a6,a6,0xf
 10094dc:	0686                	slli	a3,a3,0x1
 10094de:	00d80eb3          	add	t4,a6,a3
 10094e2:	401f5813          	srai	a6,t5,0x1
 10094e6:	41070733          	sub	a4,a4,a6
 10094ea:	ffee0813          	addi	a6,t3,-2
 10094ee:	010f7833          	and	a6,t5,a6
 10094f2:	410f5f13          	srai	t5,t5,0x10
 10094f6:	03f80833          	mul	a6,a6,t6
 10094fa:	03ff0f33          	mul	t5,t5,t6
 10094fe:	40f85813          	srai	a6,a6,0xf
 1009502:	0f06                	slli	t5,t5,0x1
 1009504:	987a                	add	a6,a6,t5
 1009506:	010706b3          	add	a3,a4,a6
 100950a:	6f1d                	lui	t5,0x7
 100950c:	641f0393          	addi	t2,t5,1601 # 7641 <__EN_MIE-0xff8a3d>
 1009510:	00f6f433          	and	s0,a3,a5
 1009514:	86c1                	srai	a3,a3,0x10
 1009516:	02740433          	mul	s0,s0,t2
 100951a:	41070733          	sub	a4,a4,a6
 100951e:	027686b3          	mul	a3,a3,t2
 1009522:	843d                	srai	s0,s0,0xf
 1009524:	0686                	slli	a3,a3,0x1
 1009526:	9436                	add	s0,s0,a3
 1009528:	00f776b3          	and	a3,a4,a5
 100952c:	8741                	srai	a4,a4,0x10
 100952e:	03f888b3          	mul	a7,a7,t6
 1009532:	408e8833          	sub	a6,t4,s0
 1009536:	008e8e33          	add	t3,t4,s0
 100953a:	03c52e83          	lw	t4,60(a0)
 100953e:	03f30333          	mul	t1,t1,t6
 1009542:	40f8d893          	srai	a7,a7,0xf
 1009546:	025686b3          	mul	a3,a3,t0
 100954a:	0306                	slli	t1,t1,0x1
 100954c:	989a                	add	a7,a7,t1
 100954e:	02570733          	mul	a4,a4,t0
 1009552:	86bd                	srai	a3,a3,0xf
 1009554:	0706                	slli	a4,a4,0x1
 1009556:	9736                	add	a4,a4,a3
 1009558:	00e88333          	add	t1,a7,a4
 100955c:	5554                	lw	a3,44(a0)
 100955e:	40e888b3          	sub	a7,a7,a4
 1009562:	5958                	lw	a4,52(a0)
 1009564:	8e99                	sub	a3,a3,a4
 1009566:	5158                	lw	a4,36(a0)
 1009568:	9af9                	andi	a3,a3,-2
 100956a:	41d70733          	sub	a4,a4,t4
 100956e:	00452e83          	lw	t4,4(a0)
 1009572:	4d48                	lw	a0,28(a0)
 1009574:	9b79                	andi	a4,a4,-2
 1009576:	8f15                	sub	a4,a4,a3
 1009578:	9eaa                	add	t4,t4,a0
 100957a:	ffeefe93          	andi	t4,t4,-2
 100957e:	40ee8eb3          	sub	t4,t4,a4
 1009582:	401ed513          	srai	a0,t4,0x1
 1009586:	8e09                	sub	a2,a2,a0
 1009588:	00f77533          	and	a0,a4,a5
 100958c:	8741                	srai	a4,a4,0x10
 100958e:	03f50533          	mul	a0,a0,t6
 1009592:	40de8eb3          	sub	t4,t4,a3
 1009596:	03f70733          	mul	a4,a4,t6
 100959a:	853d                	srai	a0,a0,0xf
 100959c:	0706                	slli	a4,a4,0x1
 100959e:	972a                	add	a4,a4,a0
 10095a0:	00169513          	slli	a0,a3,0x1
 10095a4:	00e60433          	add	s0,a2,a4
 10095a8:	8e19                	sub	a2,a2,a4
 10095aa:	00f57733          	and	a4,a0,a5
 10095ae:	8541                	srai	a0,a0,0x10
 10095b0:	03f70733          	mul	a4,a4,t6
 10095b4:	03f50533          	mul	a0,a0,t6
 10095b8:	873d                	srai	a4,a4,0xf
 10095ba:	0506                	slli	a0,a0,0x1
 10095bc:	953a                	add	a0,a0,a4
 10095be:	00ae86b3          	add	a3,t4,a0
 10095c2:	00f6f733          	and	a4,a3,a5
 10095c6:	40ae8533          	sub	a0,t4,a0
 10095ca:	86c1                	srai	a3,a3,0x10
 10095cc:	02770733          	mul	a4,a4,t2
 10095d0:	6ea1                	lui	t4,0x8
 10095d2:	027683b3          	mul	t2,a3,t2
 10095d6:	00f576b3          	and	a3,a0,a5
 10095da:	8541                	srai	a0,a0,0x10
 10095dc:	873d                	srai	a4,a4,0xf
 10095de:	025686b3          	mul	a3,a3,t0
 10095e2:	0386                	slli	t2,t2,0x1
 10095e4:	971e                	add	a4,a4,t2
 10095e6:	02550533          	mul	a0,a0,t0
 10095ea:	86bd                	srai	a3,a3,0xf
 10095ec:	d8ae8293          	addi	t0,t4,-630 # 7d8a <__EN_MIE-0xff82f4>
 10095f0:	0506                	slli	a0,a0,0x1
 10095f2:	9536                	add	a0,a0,a3
 10095f4:	00e406b3          	add	a3,s0,a4
 10095f8:	00f6ffb3          	and	t6,a3,a5
 10095fc:	4106de93          	srai	t4,a3,0x10
 1009600:	025f8fb3          	mul	t6,t6,t0
 1009604:	40e40733          	sub	a4,s0,a4
 1009608:	025e8eb3          	mul	t4,t4,t0
 100960c:	40ffd693          	srai	a3,t6,0xf
 1009610:	a6df0293          	addi	t0,t5,-1427
 1009614:	0e86                	slli	t4,t4,0x1
 1009616:	9eb6                	add	t4,t4,a3
 1009618:	00a606b3          	add	a3,a2,a0
 100961c:	00f6ffb3          	and	t6,a3,a5
 1009620:	86c1                	srai	a3,a3,0x10
 1009622:	025f8f33          	mul	t5,t6,t0
 1009626:	8e09                	sub	a2,a2,a0
 1009628:	00f67533          	and	a0,a2,a5
 100962c:	8ff9                	and	a5,a5,a4
 100962e:	8741                	srai	a4,a4,0x10
 1009630:	025686b3          	mul	a3,a3,t0
 1009634:	40ff5f13          	srai	t5,t5,0xf
 1009638:	0686                	slli	a3,a3,0x1
 100963a:	9f36                	add	t5,t5,a3
 100963c:	6691                	lui	a3,0x4
 100963e:	71c68f93          	addi	t6,a3,1820 # 471c <__EN_MIE-0xffb962>
 1009642:	41065693          	srai	a3,a2,0x10
 1009646:	03f50533          	mul	a0,a0,t6
 100964a:	03f686b3          	mul	a3,a3,t6
 100964e:	40f55613          	srai	a2,a0,0xf
 1009652:	0686                	slli	a3,a3,0x1
 1009654:	96b2                	add	a3,a3,a2
 1009656:	6609                	lui	a2,0x2
 1009658:	8f860613          	addi	a2,a2,-1800 # 18f8 <__EN_MIE-0xffe786>
 100965c:	02c787b3          	mul	a5,a5,a2
 1009660:	02c70733          	mul	a4,a4,a2
 1009664:	87bd                	srai	a5,a5,0xf
 1009666:	0706                	slli	a4,a4,0x1
 1009668:	97ba                	add	a5,a5,a4
 100966a:	01de0733          	add	a4,t3,t4
 100966e:	c198                	sw	a4,0(a1)
 1009670:	01e30733          	add	a4,t1,t5
 1009674:	c1d8                	sw	a4,4(a1)
 1009676:	00d88733          	add	a4,a7,a3
 100967a:	c598                	sw	a4,8(a1)
 100967c:	41de0e33          	sub	t3,t3,t4
 1009680:	00f80733          	add	a4,a6,a5
 1009684:	41e30333          	sub	t1,t1,t5
 1009688:	40d886b3          	sub	a3,a7,a3
 100968c:	40f807b3          	sub	a5,a6,a5
 1009690:	c5d8                	sw	a4,12(a1)
 1009692:	01c5ae23          	sw	t3,28(a1)
 1009696:	0065ac23          	sw	t1,24(a1)
 100969a:	c9d4                	sw	a3,20(a1)
 100969c:	c99c                	sw	a5,16(a1)
 100969e:	3fe0306f          	j	100ca9c <__riscv_restore_0>

010096a2 <EncPacking>:
EncPacking():
 10096a2:	24052303          	lw	t1,576(a0)
 10096a6:	1101                	addi	sp,sp,-32
 10096a8:	ce22                	sw	s0,28(sp)
 10096aa:	cc26                	sw	s1,24(sp)
 10096ac:	ca4a                	sw	s2,20(sp)
 10096ae:	c84e                	sw	s3,16(sp)
 10096b0:	c652                	sw	s4,12(sp)
 10096b2:	c456                	sw	s5,8(sp)
 10096b4:	c25a                	sw	s6,4(sp)
 10096b6:	c05e                	sw	s7,0(sp)
 10096b8:	fad00793          	li	a5,-83
 10096bc:	00f30023          	sb	a5,0(t1)
 10096c0:	24455783          	lhu	a5,580(a0)
 10096c4:	01250293          	addi	t0,a0,18
 10096c8:	00130413          	addi	s0,t1,1
 10096cc:	00f300a3          	sb	a5,1(t1)
 10096d0:	47e9                	li	a5,26
 10096d2:	00f30123          	sb	a5,2(t1)
 10096d6:	00430813          	addi	a6,t1,4
 10096da:	02250713          	addi	a4,a0,34
 10096de:	8796                	mv	a5,t0
 10096e0:	4621                	li	a2,8
 10096e2:	4681                	li	a3,0
 10096e4:	4591                	li	a1,4
 10096e6:	0789                	addi	a5,a5,2
 10096e8:	ffe7c883          	lbu	a7,-2(a5)
 10096ec:	0692                	slli	a3,a3,0x4
 10096ee:	0116e6b3          	or	a3,a3,a7
 10096f2:	0ff6f693          	andi	a3,a3,255
 10096f6:	14b61e63          	bne	a2,a1,1009852 <EncPacking+0x1b0>
 10096fa:	00d80023          	sb	a3,0(a6)
 10096fe:	4621                	li	a2,8
 1009700:	0805                	addi	a6,a6,1
 1009702:	4681                	li	a3,0
 1009704:	fef711e3          	bne	a4,a5,10096e6 <EncPacking+0x44>
 1009708:	6e41                	lui	t3,0x10
 100970a:	04c50e93          	addi	t4,a0,76
 100970e:	22c50493          	addi	s1,a0,556
 1009712:	4385                	li	t2,1
 1009714:	1e7d                	addi	t3,t3,-1
 1009716:	49f9                	li	s3,30
 1009718:	5a7d                	li	s4,-1
 100971a:	02000913          	li	s2,32
 100971e:	8f96                	mv	t6,t0
 1009720:	4f01                	li	t5,0
 1009722:	21af9883          	lh	a7,538(t6)
 1009726:	08088663          	beqz	a7,10097b2 <EncPacking+0x110>
 100972a:	000f9b03          	lh	s6,0(t6)
 100972e:	01ee87b3          	add	a5,t4,t5
 1009732:	0007aa83          	lw	s5,0(a5)
 1009736:	001b0593          	addi	a1,s6,1
 100973a:	00b395b3          	sll	a1,t2,a1
 100973e:	05b2                	slli	a1,a1,0xc
 1009740:	402ada93          	srai	s5,s5,0x2
 1009744:	9aae                	add	s5,s5,a1
 1009746:	011395b3          	sll	a1,t2,a7
 100974a:	15fd                	addi	a1,a1,-1
 100974c:	01059793          	slli	a5,a1,0x10
 1009750:	83c1                	srli	a5,a5,0x10
 1009752:	410ad593          	srai	a1,s5,0x10
 1009756:	02f585b3          	mul	a1,a1,a5
 100975a:	01caf733          	and	a4,s5,t3
 100975e:	41698bb3          	sub	s7,s3,s6
 1009762:	002b0a93          	addi	s5,s6,2
 1009766:	02f70733          	mul	a4,a4,a5
 100976a:	01059793          	slli	a5,a1,0x10
 100976e:	97ba                	add	a5,a5,a4
 1009770:	4157d7b3          	sra	a5,a5,s5
 1009774:	017a1ab3          	sll	s5,s4,s7
 1009778:	fffaca93          	not	s5,s5
 100977c:	0157fab3          	and	s5,a5,s5
 1009780:	8341                	srli	a4,a4,0x10
 1009782:	01c5f7b3          	and	a5,a1,t3
 1009786:	97ba                	add	a5,a5,a4
 1009788:	83c1                	srli	a5,a5,0x10
 100978a:	85c1                	srai	a1,a1,0x10
 100978c:	97ae                	add	a5,a5,a1
 100978e:	017797b3          	sll	a5,a5,s7
 1009792:	0157e7b3          	or	a5,a5,s5
 1009796:	87b1                	srai	a5,a5,0xc
 1009798:	01c7f7b3          	and	a5,a5,t3
 100979c:	0ff7f713          	andi	a4,a5,255
 10097a0:	0b164b63          	blt	a2,a7,1009856 <EncPacking+0x1b4>
 10097a4:	011696b3          	sll	a3,a3,a7
 10097a8:	0ff6f693          	andi	a3,a3,255
 10097ac:	8ed9                	or	a3,a3,a4
 10097ae:	41160633          	sub	a2,a2,a7
 10097b2:	0f11                	addi	t5,t5,4
 10097b4:	0f89                	addi	t6,t6,2
 10097b6:	f72f16e3          	bne	t5,s2,1009722 <EncPacking+0x80>
 10097ba:	020e8e93          	addi	t4,t4,32
 10097be:	f7d490e3          	bne	s1,t4,100971e <EncPacking+0x7c>
 10097c2:	00c696b3          	sll	a3,a3,a2
 10097c6:	00d80023          	sb	a3,0(a6)
 10097ca:	24052583          	lw	a1,576(a0)
 10097ce:	40b807b3          	sub	a5,a6,a1
 10097d2:	0785                	addi	a5,a5,1
 10097d4:	24f51323          	sh	a5,582(a0)
 10097d8:	00040663          	beqz	s0,10097e4 <EncPacking+0x142>
 10097dc:	000300a3          	sb	zero,1(t1)
 10097e0:	00030123          	sb	zero,2(t1)
 10097e4:	0015c803          	lbu	a6,1(a1)
 10097e8:	473d                	li	a4,15
 10097ea:	4685                	li	a3,1
 10097ec:	430d                	li	t1,3
 10097ee:	4e75                	li	t3,29
 10097f0:	5efd                	li	t4,-1
 10097f2:	48a1                	li	a7,8
 10097f4:	02668363          	beq	a3,t1,100981a <EncPacking+0x178>
 10097f8:	461d                	li	a2,7
 10097fa:	00775793          	srli	a5,a4,0x7
 10097fe:	40c85f33          	sra	t5,a6,a2
 1009802:	01e7c7b3          	xor	a5,a5,t5
 1009806:	8b85                	andi	a5,a5,1
 1009808:	03c787b3          	mul	a5,a5,t3
 100980c:	0706                	slli	a4,a4,0x1
 100980e:	167d                	addi	a2,a2,-1
 1009810:	8fb9                	xor	a5,a5,a4
 1009812:	0ff7f713          	andi	a4,a5,255
 1009816:	ffd612e3          	bne	a2,t4,10097fa <EncPacking+0x158>
 100981a:	00d587b3          	add	a5,a1,a3
 100981e:	0685                	addi	a3,a3,1
 1009820:	0017c803          	lbu	a6,1(a5)
 1009824:	fd1698e3          	bne	a3,a7,10097f4 <EncPacking+0x152>
 1009828:	24052783          	lw	a5,576(a0)
 100982c:	00e781a3          	sb	a4,3(a5)
 1009830:	24052783          	lw	a5,576(a0)
 1009834:	24655703          	lhu	a4,582(a0)
 1009838:	4472                	lw	s0,28(sp)
 100983a:	44e2                	lw	s1,24(sp)
 100983c:	97ba                	add	a5,a5,a4
 100983e:	24f52023          	sw	a5,576(a0)
 1009842:	4952                	lw	s2,20(sp)
 1009844:	49c2                	lw	s3,16(sp)
 1009846:	4a32                	lw	s4,12(sp)
 1009848:	4aa2                	lw	s5,8(sp)
 100984a:	4b12                	lw	s6,4(sp)
 100984c:	4b82                	lw	s7,0(sp)
 100984e:	6105                	addi	sp,sp,32
 1009850:	8082                	ret
 1009852:	4611                	li	a2,4
 1009854:	bd45                	j	1009704 <EncPacking+0x62>
 1009856:	40c888b3          	sub	a7,a7,a2
 100985a:	00c696b3          	sll	a3,a3,a2
 100985e:	0117d633          	srl	a2,a5,a7
 1009862:	8ed1                	or	a3,a3,a2
 1009864:	0805                	addi	a6,a6,1
 1009866:	fed80fa3          	sb	a3,-1(a6)
 100986a:	4621                	li	a2,8
 100986c:	4681                	li	a3,0
 100986e:	ff1644e3          	blt	a2,a7,1009856 <EncPacking+0x1b4>
 1009872:	41160633          	sub	a2,a2,a7
 1009876:	86ba                	mv	a3,a4
 1009878:	bf2d                	j	10097b2 <EncPacking+0x110>

0100987a <get_acc_lsb_div>:
get_acc_lsb_div():
 100987a:	100147b7          	lui	a5,0x10014
 100987e:	4347d503          	lhu	a0,1076(a5) # 10014434 <acc_lsb_div>
 1009882:	8082                	ret

01009884 <get_gyro_lsb_div>:
get_gyro_lsb_div():
 1009884:	100147b7          	lui	a5,0x10014
 1009888:	4367d503          	lhu	a0,1078(a5) # 10014436 <gyro_lsb_div>
 100988c:	8082                	ret

0100988e <sw_i2c_writereg>:
sw_i2c_writereg():
 100988e:	1ea032ef          	jal	t0,100ca78 <__riscv_save_0>
 1009892:	1141                	addi	sp,sp,-16
 1009894:	c42e                	sw	a1,8(sp)
 1009896:	8432                	mv	s0,a2
 1009898:	c62a                	sw	a0,12(sp)
 100989a:	267000ef          	jal	ra,100a300 <IIC_Start>
 100989e:	4532                	lw	a0,12(sp)
 10098a0:	1b1000ef          	jal	ra,100a250 <IIC_SendByte>
 10098a4:	0df000ef          	jal	ra,100a182 <IIC_WaitAck>
 10098a8:	45a2                	lw	a1,8(sp)
 10098aa:	00050663          	beqz	a0,10098b6 <sw_i2c_writereg+0x28>
 10098ae:	4505                	li	a0,1
 10098b0:	0141                	addi	sp,sp,16
 10098b2:	1ea0306f          	j	100ca9c <__riscv_restore_0>
 10098b6:	852e                	mv	a0,a1
 10098b8:	199000ef          	jal	ra,100a250 <IIC_SendByte>
 10098bc:	0c7000ef          	jal	ra,100a182 <IIC_WaitAck>
 10098c0:	fe0517e3          	bnez	a0,10098ae <sw_i2c_writereg+0x20>
 10098c4:	8522                	mv	a0,s0
 10098c6:	18b000ef          	jal	ra,100a250 <IIC_SendByte>
 10098ca:	0b9000ef          	jal	ra,100a182 <IIC_WaitAck>
 10098ce:	c42a                	sw	a0,8(sp)
 10098d0:	fc051fe3          	bnez	a0,10098ae <sw_i2c_writereg+0x20>
 10098d4:	1e9000ef          	jal	ra,100a2bc <IIC_Stop>
 10098d8:	4522                	lw	a0,8(sp)
 10098da:	bfd9                	j	10098b0 <sw_i2c_writereg+0x22>

010098dc <sw_i2c_readreg>:
sw_i2c_readreg():
 10098dc:	182032ef          	jal	t0,100ca5e <__riscv_save_4>
 10098e0:	1141                	addi	sp,sp,-16
 10098e2:	c62e                	sw	a1,12(sp)
 10098e4:	89b2                	mv	s3,a2
 10098e6:	8936                	mv	s2,a3
 10098e8:	842a                	mv	s0,a0
 10098ea:	217000ef          	jal	ra,100a300 <IIC_Start>
 10098ee:	8522                	mv	a0,s0
 10098f0:	161000ef          	jal	ra,100a250 <IIC_SendByte>
 10098f4:	08f000ef          	jal	ra,100a182 <IIC_WaitAck>
 10098f8:	45b2                	lw	a1,12(sp)
 10098fa:	00050763          	beqz	a0,1009908 <sw_i2c_readreg+0x2c>
 10098fe:	4485                	li	s1,1
 1009900:	8526                	mv	a0,s1
 1009902:	0141                	addi	sp,sp,16
 1009904:	18e0306f          	j	100ca92 <__riscv_restore_4>
 1009908:	852e                	mv	a0,a1
 100990a:	147000ef          	jal	ra,100a250 <IIC_SendByte>
 100990e:	075000ef          	jal	ra,100a182 <IIC_WaitAck>
 1009912:	fe0516e3          	bnez	a0,10098fe <sw_i2c_readreg+0x22>
 1009916:	1eb000ef          	jal	ra,100a300 <IIC_Start>
 100991a:	00146513          	ori	a0,s0,1
 100991e:	133000ef          	jal	ra,100a250 <IIC_SendByte>
 1009922:	061000ef          	jal	ra,100a182 <IIC_WaitAck>
 1009926:	84aa                	mv	s1,a0
 1009928:	fc051be3          	bnez	a0,10098fe <sw_i2c_readreg+0x22>
 100992c:	844e                	mv	s0,s3
 100992e:	197d                	addi	s2,s2,-1
 1009930:	413407b3          	sub	a5,s0,s3
 1009934:	07c2                	slli	a5,a5,0x10
 1009936:	83c1                	srli	a5,a5,0x10
 1009938:	0127ca63          	blt	a5,s2,100994c <sw_i2c_readreg+0x70>
 100993c:	4501                	li	a0,0
 100993e:	0a5000ef          	jal	ra,100a1e2 <IIC_ReadByte>
 1009942:	00a40023          	sb	a0,0(s0)
 1009946:	177000ef          	jal	ra,100a2bc <IIC_Stop>
 100994a:	bf5d                	j	1009900 <sw_i2c_readreg+0x24>
 100994c:	4505                	li	a0,1
 100994e:	095000ef          	jal	ra,100a1e2 <IIC_ReadByte>
 1009952:	00a40023          	sb	a0,0(s0)
 1009956:	0405                	addi	s0,s0,1
 1009958:	bfe1                	j	1009930 <sw_i2c_readreg+0x54>

0100995a <Qmi8658_write_reg>:
Qmi8658_write_reg():
 100995a:	11e032ef          	jal	t0,100ca78 <__riscv_save_0>
 100995e:	84aa                	mv	s1,a0
 1009960:	892e                	mv	s2,a1
 1009962:	4419                	li	s0,6
 1009964:	4505                	li	a0,1
 1009966:	147d                	addi	s0,s0,-1
 1009968:	0442                	slli	s0,s0,0x10
 100996a:	8041                	srli	s0,s0,0x10
 100996c:	00040a63          	beqz	s0,1009980 <Qmi8658_write_reg+0x26>
 1009970:	864a                	mv	a2,s2
 1009972:	85a6                	mv	a1,s1
 1009974:	0d400513          	li	a0,212
 1009978:	f17ff0ef          	jal	ra,100988e <sw_i2c_writereg>
 100997c:	fe0515e3          	bnez	a0,1009966 <Qmi8658_write_reg+0xc>
 1009980:	11c0306f          	j	100ca9c <__riscv_restore_0>

01009984 <Qmi8658_read_reg>:
Qmi8658_read_reg():
 1009984:	0da032ef          	jal	t0,100ca5e <__riscv_save_4>
 1009988:	84aa                	mv	s1,a0
 100998a:	892e                	mv	s2,a1
 100998c:	89b2                	mv	s3,a2
 100998e:	4419                	li	s0,6
 1009990:	4505                	li	a0,1
 1009992:	147d                	addi	s0,s0,-1
 1009994:	0442                	slli	s0,s0,0x10
 1009996:	8041                	srli	s0,s0,0x10
 1009998:	00040b63          	beqz	s0,10099ae <Qmi8658_read_reg+0x2a>
 100999c:	86ce                	mv	a3,s3
 100999e:	864a                	mv	a2,s2
 10099a0:	85a6                	mv	a1,s1
 10099a2:	0d400513          	li	a0,212
 10099a6:	f37ff0ef          	jal	ra,10098dc <sw_i2c_readreg>
 10099aa:	fe0514e3          	bnez	a0,1009992 <Qmi8658_read_reg+0xe>
 10099ae:	0e40306f          	j	100ca92 <__riscv_restore_4>

010099b2 <Qmi8658_send_ctl9cmd>:
Qmi8658_send_ctl9cmd():
 10099b2:	0c6032ef          	jal	t0,100ca78 <__riscv_save_0>
 10099b6:	1141                	addi	sp,sp,-16
 10099b8:	0ff57593          	andi	a1,a0,255
 10099bc:	4529                	li	a0,10
 10099be:	000107a3          	sb	zero,15(sp)
 10099c2:	f99ff0ef          	jal	ra,100995a <Qmi8658_write_reg>
 10099c6:	4605                	li	a2,1
 10099c8:	00f10593          	addi	a1,sp,15
 10099cc:	02d00513          	li	a0,45
 10099d0:	fb5ff0ef          	jal	ra,1009984 <Qmi8658_read_reg>
 10099d4:	0c900413          	li	s0,201
 10099d8:	00f10783          	lb	a5,15(sp)
 10099dc:	0007c763          	bltz	a5,10099ea <Qmi8658_send_ctl9cmd+0x38>
 10099e0:	147d                	addi	s0,s0,-1
 10099e2:	0ff47413          	andi	s0,s0,255
 10099e6:	02041b63          	bnez	s0,1009a1c <Qmi8658_send_ctl9cmd+0x6a>
 10099ea:	4581                	li	a1,0
 10099ec:	4529                	li	a0,10
 10099ee:	f6dff0ef          	jal	ra,100995a <Qmi8658_write_reg>
 10099f2:	4605                	li	a2,1
 10099f4:	00f10593          	addi	a1,sp,15
 10099f8:	02d00513          	li	a0,45
 10099fc:	f89ff0ef          	jal	ra,1009984 <Qmi8658_read_reg>
 1009a00:	0c900413          	li	s0,201
 1009a04:	00f10783          	lb	a5,15(sp)
 1009a08:	0007d763          	bgez	a5,1009a16 <Qmi8658_send_ctl9cmd+0x64>
 1009a0c:	147d                	addi	s0,s0,-1
 1009a0e:	0ff47413          	andi	s0,s0,255
 1009a12:	02041063          	bnez	s0,1009a32 <Qmi8658_send_ctl9cmd+0x80>
 1009a16:	0141                	addi	sp,sp,16
 1009a18:	0840306f          	j	100ca9c <__riscv_restore_0>
 1009a1c:	4505                	li	a0,1
 1009a1e:	f46fa0ef          	jal	ra,1004164 <SysTick_DelayMs>
 1009a22:	4605                	li	a2,1
 1009a24:	00f10593          	addi	a1,sp,15
 1009a28:	02d00513          	li	a0,45
 1009a2c:	f59ff0ef          	jal	ra,1009984 <Qmi8658_read_reg>
 1009a30:	b765                	j	10099d8 <Qmi8658_send_ctl9cmd+0x26>
 1009a32:	4505                	li	a0,1
 1009a34:	f30fa0ef          	jal	ra,1004164 <SysTick_DelayMs>
 1009a38:	4605                	li	a2,1
 1009a3a:	00f10593          	addi	a1,sp,15
 1009a3e:	02d00513          	li	a0,45
 1009a42:	f43ff0ef          	jal	ra,1009984 <Qmi8658_read_reg>
 1009a46:	bf7d                	j	1009a04 <Qmi8658_send_ctl9cmd+0x52>

01009a48 <Qmi8658_config_gyro>:
Qmi8658_config_gyro():
 1009a48:	030032ef          	jal	t0,100ca78 <__riscv_save_0>
 1009a4c:	03000713          	li	a4,48
 1009a50:	1141                	addi	sp,sp,-16
 1009a52:	8432                	mv	s0,a2
 1009a54:	100147b7          	lui	a5,0x10014
 1009a58:	0ae50663          	beq	a0,a4,1009b04 <Qmi8658_config_gyro+0xbc>
 1009a5c:	02a76163          	bltu	a4,a0,1009a7e <Qmi8658_config_gyro+0x36>
 1009a60:	4741                	li	a4,16
 1009a62:	08e50b63          	beq	a0,a4,1009af8 <Qmi8658_config_gyro+0xb0>
 1009a66:	02000713          	li	a4,32
 1009a6a:	08e50a63          	beq	a0,a4,1009afe <Qmi8658_config_gyro+0xb6>
 1009a6e:	02051263          	bnez	a0,1009a92 <Qmi8658_config_gyro+0x4a>
 1009a72:	6705                	lui	a4,0x1
 1009a74:	80070713          	addi	a4,a4,-2048 # 800 <__EN_MIE-0xfff87e>
 1009a78:	42e79b23          	sh	a4,1078(a5) # 10014436 <gyro_lsb_div>
 1009a7c:	a00d                	j	1009a9e <Qmi8658_config_gyro+0x56>
 1009a7e:	05000713          	li	a4,80
 1009a82:	00e50863          	beq	a0,a4,1009a92 <Qmi8658_config_gyro+0x4a>
 1009a86:	04a76f63          	bltu	a4,a0,1009ae4 <Qmi8658_config_gyro+0x9c>
 1009a8a:	04000713          	li	a4,64
 1009a8e:	06e50e63          	beq	a0,a4,1009b0a <Qmi8658_config_gyro+0xc2>
 1009a92:	04000713          	li	a4,64
 1009a96:	42e79b23          	sh	a4,1078(a5)
 1009a9a:	05000513          	li	a0,80
 1009a9e:	8dc9                	or	a1,a1,a0
 1009aa0:	4785                	li	a5,1
 1009aa2:	0ff5f593          	andi	a1,a1,255
 1009aa6:	00f69463          	bne	a3,a5,1009aae <Qmi8658_config_gyro+0x66>
 1009aaa:	0805e593          	ori	a1,a1,128
 1009aae:	4511                	li	a0,4
 1009ab0:	00b107a3          	sb	a1,15(sp)
 1009ab4:	ea7ff0ef          	jal	ra,100995a <Qmi8658_write_reg>
 1009ab8:	4605                	li	a2,1
 1009aba:	00f10593          	addi	a1,sp,15
 1009abe:	4519                	li	a0,6
 1009ac0:	ec5ff0ef          	jal	ra,1009984 <Qmi8658_read_reg>
 1009ac4:	00f14783          	lbu	a5,15(sp)
 1009ac8:	4705                	li	a4,1
 1009aca:	8bbd                	andi	a5,a5,15
 1009acc:	04e40563          	beq	s0,a4,1009b16 <Qmi8658_config_gyro+0xce>
 1009ad0:	00f107a3          	sb	a5,15(sp)
 1009ad4:	00f14583          	lbu	a1,15(sp)
 1009ad8:	4519                	li	a0,6
 1009ada:	e81ff0ef          	jal	ra,100995a <Qmi8658_write_reg>
 1009ade:	0141                	addi	sp,sp,16
 1009ae0:	7bd0206f          	j	100ca9c <__riscv_restore_0>
 1009ae4:	06000713          	li	a4,96
 1009ae8:	02e50463          	beq	a0,a4,1009b10 <Qmi8658_config_gyro+0xc8>
 1009aec:	07000713          	li	a4,112
 1009af0:	fae511e3          	bne	a0,a4,1009a92 <Qmi8658_config_gyro+0x4a>
 1009af4:	4741                	li	a4,16
 1009af6:	b749                	j	1009a78 <Qmi8658_config_gyro+0x30>
 1009af8:	40000713          	li	a4,1024
 1009afc:	bfb5                	j	1009a78 <Qmi8658_config_gyro+0x30>
 1009afe:	20000713          	li	a4,512
 1009b02:	bf9d                	j	1009a78 <Qmi8658_config_gyro+0x30>
 1009b04:	10000713          	li	a4,256
 1009b08:	bf85                	j	1009a78 <Qmi8658_config_gyro+0x30>
 1009b0a:	08000713          	li	a4,128
 1009b0e:	b7ad                	j	1009a78 <Qmi8658_config_gyro+0x30>
 1009b10:	02000713          	li	a4,32
 1009b14:	b795                	j	1009a78 <Qmi8658_config_gyro+0x30>
 1009b16:	0707e793          	ori	a5,a5,112
 1009b1a:	bf5d                	j	1009ad0 <Qmi8658_config_gyro+0x88>

01009b1c <Qmi8658_config_acc>:
Qmi8658_config_acc():
 1009b1c:	75d022ef          	jal	t0,100ca78 <__riscv_save_0>
 1009b20:	4741                	li	a4,16
 1009b22:	1141                	addi	sp,sp,-16
 1009b24:	8432                	mv	s0,a2
 1009b26:	100147b7          	lui	a5,0x10014
 1009b2a:	06e50f63          	beq	a0,a4,1009ba8 <Qmi8658_config_acc+0x8c>
 1009b2e:	04a76d63          	bltu	a4,a0,1009b88 <Qmi8658_config_acc+0x6c>
 1009b32:	06050763          	beqz	a0,1009ba0 <Qmi8658_config_acc+0x84>
 1009b36:	6705                	lui	a4,0x1
 1009b38:	42e79a23          	sh	a4,1076(a5) # 10014434 <acc_lsb_div>
 1009b3c:	02000513          	li	a0,32
 1009b40:	8dc9                	or	a1,a1,a0
 1009b42:	4785                	li	a5,1
 1009b44:	0ff5f593          	andi	a1,a1,255
 1009b48:	00f69463          	bne	a3,a5,1009b50 <Qmi8658_config_acc+0x34>
 1009b4c:	0805e593          	ori	a1,a1,128
 1009b50:	450d                	li	a0,3
 1009b52:	00b107a3          	sb	a1,15(sp)
 1009b56:	e05ff0ef          	jal	ra,100995a <Qmi8658_write_reg>
 1009b5a:	4605                	li	a2,1
 1009b5c:	00f10593          	addi	a1,sp,15
 1009b60:	4519                	li	a0,6
 1009b62:	e23ff0ef          	jal	ra,1009984 <Qmi8658_read_reg>
 1009b66:	00f14783          	lbu	a5,15(sp)
 1009b6a:	4705                	li	a4,1
 1009b6c:	0f07f793          	andi	a5,a5,240
 1009b70:	02e40e63          	beq	s0,a4,1009bac <Qmi8658_config_acc+0x90>
 1009b74:	00f107a3          	sb	a5,15(sp)
 1009b78:	00f14583          	lbu	a1,15(sp)
 1009b7c:	4519                	li	a0,6
 1009b7e:	dddff0ef          	jal	ra,100995a <Qmi8658_write_reg>
 1009b82:	0141                	addi	sp,sp,16
 1009b84:	7190206f          	j	100ca9c <__riscv_restore_0>
 1009b88:	02000713          	li	a4,32
 1009b8c:	fae505e3          	beq	a0,a4,1009b36 <Qmi8658_config_acc+0x1a>
 1009b90:	03000713          	li	a4,48
 1009b94:	fae511e3          	bne	a0,a4,1009b36 <Qmi8658_config_acc+0x1a>
 1009b98:	6705                	lui	a4,0x1
 1009b9a:	80070713          	addi	a4,a4,-2048 # 800 <__EN_MIE-0xfff87e>
 1009b9e:	a011                	j	1009ba2 <Qmi8658_config_acc+0x86>
 1009ba0:	6711                	lui	a4,0x4
 1009ba2:	42e79a23          	sh	a4,1076(a5)
 1009ba6:	bf69                	j	1009b40 <Qmi8658_config_acc+0x24>
 1009ba8:	6709                	lui	a4,0x2
 1009baa:	bfe5                	j	1009ba2 <Qmi8658_config_acc+0x86>
 1009bac:	0077e793          	ori	a5,a5,7
 1009bb0:	b7d1                	j	1009b74 <Qmi8658_config_acc+0x58>

01009bb2 <anymotion_Config>:
anymotion_Config():
 1009bb2:	6c7022ef          	jal	t0,100ca78 <__riscv_save_0>
 1009bb6:	95aa                	add	a1,a1,a0
 1009bb8:	0ff5f413          	andi	s0,a1,255
 1009bbc:	85a2                	mv	a1,s0
 1009bbe:	452d                	li	a0,11
 1009bc0:	d9bff0ef          	jal	ra,100995a <Qmi8658_write_reg>
 1009bc4:	85a2                	mv	a1,s0
 1009bc6:	4531                	li	a0,12
 1009bc8:	d93ff0ef          	jal	ra,100995a <Qmi8658_write_reg>
 1009bcc:	85a2                	mv	a1,s0
 1009bce:	4535                	li	a0,13
 1009bd0:	d8bff0ef          	jal	ra,100995a <Qmi8658_write_reg>
 1009bd4:	4585                	li	a1,1
 1009bd6:	4539                	li	a0,14
 1009bd8:	d83ff0ef          	jal	ra,100995a <Qmi8658_write_reg>
 1009bdc:	4585                	li	a1,1
 1009bde:	453d                	li	a0,15
 1009be0:	d7bff0ef          	jal	ra,100995a <Qmi8658_write_reg>
 1009be4:	4585                	li	a1,1
 1009be6:	4541                	li	a0,16
 1009be8:	d73ff0ef          	jal	ra,100995a <Qmi8658_write_reg>
 1009bec:	459d                	li	a1,7
 1009bee:	4545                	li	a0,17
 1009bf0:	d6bff0ef          	jal	ra,100995a <Qmi8658_write_reg>
 1009bf4:	4585                	li	a1,1
 1009bf6:	4549                	li	a0,18
 1009bf8:	d63ff0ef          	jal	ra,100995a <Qmi8658_write_reg>
 1009bfc:	4539                	li	a0,14
 1009bfe:	db5ff0ef          	jal	ra,10099b2 <Qmi8658_send_ctl9cmd>
 1009c02:	458d                	li	a1,3
 1009c04:	452d                	li	a0,11
 1009c06:	d55ff0ef          	jal	ra,100995a <Qmi8658_write_reg>
 1009c0a:	02a00593          	li	a1,42
 1009c0e:	4531                	li	a0,12
 1009c10:	d4bff0ef          	jal	ra,100995a <Qmi8658_write_reg>
 1009c14:	02c00593          	li	a1,44
 1009c18:	4535                	li	a0,13
 1009c1a:	d41ff0ef          	jal	ra,100995a <Qmi8658_write_reg>
 1009c1e:	4585                	li	a1,1
 1009c20:	4539                	li	a0,14
 1009c22:	d39ff0ef          	jal	ra,100995a <Qmi8658_write_reg>
 1009c26:	06400593          	li	a1,100
 1009c2a:	453d                	li	a0,15
 1009c2c:	d2fff0ef          	jal	ra,100995a <Qmi8658_write_reg>
 1009c30:	4581                	li	a1,0
 1009c32:	4541                	li	a0,16
 1009c34:	d27ff0ef          	jal	ra,100995a <Qmi8658_write_reg>
 1009c38:	4589                	li	a1,2
 1009c3a:	4549                	li	a0,18
 1009c3c:	d1fff0ef          	jal	ra,100995a <Qmi8658_write_reg>
 1009c40:	4539                	li	a0,14
 1009c42:	d71ff0ef          	jal	ra,10099b2 <Qmi8658_send_ctl9cmd>
 1009c46:	4501                	li	a0,0
 1009c48:	6550206f          	j	100ca9c <__riscv_restore_0>

01009c4c <Qmi8658_reset>:
Qmi8658_reset():
 1009c4c:	62d022ef          	jal	t0,100ca78 <__riscv_save_0>
 1009c50:	0b000593          	li	a1,176
 1009c54:	06000513          	li	a0,96
 1009c58:	d03ff0ef          	jal	ra,100995a <Qmi8658_write_reg>
 1009c5c:	6410206f          	j	100ca9c <__riscv_restore_0>

01009c60 <anymotion_lowpwr_config>:
anymotion_lowpwr_config():
 1009c60:	619022ef          	jal	t0,100ca78 <__riscv_save_0>
 1009c64:	10014437          	lui	s0,0x10014
 1009c68:	43840413          	addi	s0,s0,1080 # 10014438 <qmi8658_cfg>
 1009c6c:	4785                	li	a5,1
 1009c6e:	00f40023          	sb	a5,0(s0)
 1009c72:	47c1                	li	a5,16
 1009c74:	c05c                	sw	a5,4(s0)
 1009c76:	47bd                	li	a5,15
 1009c78:	c41c                	sw	a5,8(s0)
 1009c7a:	fd3ff0ef          	jal	ra,1009c4c <Qmi8658_reset>
 1009c7e:	4579                	li	a0,30
 1009c80:	ce4fa0ef          	jal	ra,1004164 <SysTick_DelayMs>
 1009c84:	07800593          	li	a1,120
 1009c88:	4509                	li	a0,2
 1009c8a:	cd1ff0ef          	jal	ra,100995a <Qmi8658_write_reg>
 1009c8e:	4581                	li	a1,0
 1009c90:	4521                	li	a0,8
 1009c92:	cc9ff0ef          	jal	ra,100995a <Qmi8658_write_reg>
 1009c96:	0c200593          	li	a1,194
 1009c9a:	4525                	li	a0,9
 1009c9c:	cbfff0ef          	jal	ra,100995a <Qmi8658_write_reg>
 1009ca0:	4589                	li	a1,2
 1009ca2:	4501                	li	a0,0
 1009ca4:	f0fff0ef          	jal	ra,1009bb2 <anymotion_Config>
 1009ca8:	45bd                	li	a1,15
 1009caa:	452d                	li	a0,11
 1009cac:	cafff0ef          	jal	ra,100995a <Qmi8658_write_reg>
 1009cb0:	4545                	li	a0,17
 1009cb2:	d01ff0ef          	jal	ra,10099b2 <Qmi8658_send_ctl9cmd>
 1009cb6:	440c                	lw	a1,8(s0)
 1009cb8:	4048                	lw	a0,4(s0)
 1009cba:	4681                	li	a3,0
 1009cbc:	4601                	li	a2,0
 1009cbe:	e5fff0ef          	jal	ra,1009b1c <Qmi8658_config_acc>
 1009cc2:	00044583          	lbu	a1,0(s0)
 1009cc6:	4521                	li	a0,8
 1009cc8:	89bd                	andi	a1,a1,15
 1009cca:	c91ff0ef          	jal	ra,100995a <Qmi8658_write_reg>
 1009cce:	5cf0206f          	j	100ca9c <__riscv_restore_0>

01009cd2 <anymotion_high_odr_enable>:
anymotion_high_odr_enable():
 1009cd2:	5a7022ef          	jal	t0,100ca78 <__riscv_save_0>
 1009cd6:	1141                	addi	sp,sp,-16
 1009cd8:	4605                	li	a2,1
 1009cda:	00f10593          	addi	a1,sp,15
 1009cde:	4525                	li	a0,9
 1009ce0:	000107a3          	sb	zero,15(sp)
 1009ce4:	ca1ff0ef          	jal	ra,1009984 <Qmi8658_read_reg>
 1009ce8:	00f14583          	lbu	a1,15(sp)
 1009cec:	4525                	li	a0,9
 1009cee:	0c25e593          	ori	a1,a1,194
 1009cf2:	c69ff0ef          	jal	ra,100995a <Qmi8658_write_reg>
 1009cf6:	4585                	li	a1,1
 1009cf8:	4501                	li	a0,0
 1009cfa:	eb9ff0ef          	jal	ra,1009bb2 <anymotion_Config>
 1009cfe:	0141                	addi	sp,sp,16
 1009d00:	59d0206f          	j	100ca9c <__riscv_restore_0>

01009d04 <mouse_int_mode>:
mouse_int_mode():
 1009d04:	575022ef          	jal	t0,100ca78 <__riscv_save_0>
 1009d08:	07800593          	li	a1,120
 1009d0c:	4509                	li	a0,2
 1009d0e:	c4dff0ef          	jal	ra,100995a <Qmi8658_write_reg>
 1009d12:	08000593          	li	a1,128
 1009d16:	4521                	li	a0,8
 1009d18:	a07f90ef          	jal	ra,100371e <GPIO_Init>
 1009d1c:	4585                	li	a1,1
 1009d1e:	4521                	li	a0,8
 1009d20:	b07f90ef          	jal	ra,1003826 <GPIO_WakeUp>
 1009d24:	f3dff0ef          	jal	ra,1009c60 <anymotion_lowpwr_config>
 1009d28:	5750206f          	j	100ca9c <__riscv_restore_0>

01009d2c <mouse_lpm_int_mode>:
mouse_lpm_int_mode():
 1009d2c:	54d022ef          	jal	t0,100ca78 <__riscv_save_0>
 1009d30:	0100f537          	lui	a0,0x100f
 1009d34:	97850513          	addi	a0,a0,-1672 # 100e978 <sbc_enc_as16Offset8+0x40>
 1009d38:	a21f70ef          	jal	ra,1001758 <print_string_log>
 1009d3c:	07800593          	li	a1,120
 1009d40:	4509                	li	a0,2
 1009d42:	c19ff0ef          	jal	ra,100995a <Qmi8658_write_reg>
 1009d46:	08000593          	li	a1,128
 1009d4a:	4521                	li	a0,8
 1009d4c:	9d3f90ef          	jal	ra,100371e <GPIO_Init>
 1009d50:	f11ff0ef          	jal	ra,1009c60 <anymotion_lowpwr_config>
 1009d54:	5490206f          	j	100ca9c <__riscv_restore_0>

01009d58 <Qmi8658_power_off>:
Qmi8658_power_off():
 1009d58:	521022ef          	jal	t0,100ca78 <__riscv_save_0>
 1009d5c:	45bd                	li	a1,15
 1009d5e:	450d                	li	a0,3
 1009d60:	bfbff0ef          	jal	ra,100995a <Qmi8658_write_reg>
 1009d64:	45bd                	li	a1,15
 1009d66:	4511                	li	a0,4
 1009d68:	bf3ff0ef          	jal	ra,100995a <Qmi8658_write_reg>
 1009d6c:	4581                	li	a1,0
 1009d6e:	4521                	li	a0,8
 1009d70:	bebff0ef          	jal	ra,100995a <Qmi8658_write_reg>
 1009d74:	5290206f          	j	100ca9c <__riscv_restore_0>

01009d78 <Qmi8658_power_on>:
Qmi8658_power_on():
 1009d78:	501022ef          	jal	t0,100ca78 <__riscv_save_0>
 1009d7c:	45bd                	li	a1,15
 1009d7e:	452d                	li	a0,11
 1009d80:	bdbff0ef          	jal	ra,100995a <Qmi8658_write_reg>
 1009d84:	4545                	li	a0,17
 1009d86:	c2dff0ef          	jal	ra,10099b2 <Qmi8658_send_ctl9cmd>
 1009d8a:	06c00593          	li	a1,108
 1009d8e:	4509                	li	a0,2
 1009d90:	bcbff0ef          	jal	ra,100995a <Qmi8658_write_reg>
 1009d94:	f3fff0ef          	jal	ra,1009cd2 <anymotion_high_odr_enable>
 1009d98:	10014437          	lui	s0,0x10014
 1009d9c:	43840413          	addi	s0,s0,1080 # 10014438 <qmi8658_cfg>
 1009da0:	478d                	li	a5,3
 1009da2:	00f40023          	sb	a5,0(s0)
 1009da6:	02000793          	li	a5,32
 1009daa:	07000713          	li	a4,112
 1009dae:	c05c                	sw	a5,4(s0)
 1009db0:	4681                	li	a3,0
 1009db2:	4795                	li	a5,5
 1009db4:	4601                	li	a2,0
 1009db6:	4595                	li	a1,5
 1009db8:	02000513          	li	a0,32
 1009dbc:	c41c                	sw	a5,8(s0)
 1009dbe:	c458                	sw	a4,12(s0)
 1009dc0:	c81c                	sw	a5,16(s0)
 1009dc2:	d5bff0ef          	jal	ra,1009b1c <Qmi8658_config_acc>
 1009dc6:	480c                	lw	a1,16(s0)
 1009dc8:	4448                	lw	a0,12(s0)
 1009dca:	4681                	li	a3,0
 1009dcc:	4601                	li	a2,0
 1009dce:	c7bff0ef          	jal	ra,1009a48 <Qmi8658_config_gyro>
 1009dd2:	00044583          	lbu	a1,0(s0)
 1009dd6:	4521                	li	a0,8
 1009dd8:	89bd                	andi	a1,a1,15
 1009dda:	b81ff0ef          	jal	ra,100995a <Qmi8658_write_reg>
 1009dde:	4bf0206f          	j	100ca9c <__riscv_restore_0>

01009de2 <Qmi8658_read_xyz>:
Qmi8658_read_xyz():
 1009de2:	497022ef          	jal	t0,100ca78 <__riscv_save_0>
 1009de6:	1141                	addi	sp,sp,-16
 1009de8:	004c                	addi	a1,sp,4
 1009dea:	4631                	li	a2,12
 1009dec:	03500513          	li	a0,53
 1009df0:	b95ff0ef          	jal	ra,1009984 <Qmi8658_read_reg>
 1009df4:	00415583          	lhu	a1,4(sp)
 1009df8:	00615603          	lhu	a2,6(sp)
 1009dfc:	00815683          	lhu	a3,8(sp)
 1009e00:	00a15703          	lhu	a4,10(sp)
 1009e04:	00c15783          	lhu	a5,12(sp)
 1009e08:	00e15803          	lhu	a6,14(sp)
 1009e0c:	10014537          	lui	a0,0x10014
 1009e10:	42850513          	addi	a0,a0,1064 # 10014428 <sensor_data_report>
 1009e14:	00b51023          	sh	a1,0(a0)
 1009e18:	00c51123          	sh	a2,2(a0)
 1009e1c:	00d51223          	sh	a3,4(a0)
 1009e20:	00e51323          	sh	a4,6(a0)
 1009e24:	00f51423          	sh	a5,8(a0)
 1009e28:	01051523          	sh	a6,10(a0)
 1009e2c:	0100f537          	lui	a0,0x100f
 1009e30:	99050513          	addi	a0,a0,-1648 # 100e990 <sbc_enc_as16Offset8+0x58>
 1009e34:	925f70ef          	jal	ra,1001758 <print_string_log>
 1009e38:	0141                	addi	sp,sp,16
 1009e3a:	4630206f          	j	100ca9c <__riscv_restore_0>

01009e3e <mouse_task>:
mouse_task():
 1009e3e:	43b022ef          	jal	t0,100ca78 <__riscv_save_0>
 1009e42:	afafb0ef          	jal	ra,100513c <bt_check_le_connected>
 1009e46:	04050363          	beqz	a0,1009e8c <mouse_task+0x4e>
 1009e4a:	100147b7          	lui	a5,0x10014
 1009e4e:	44d7c783          	lbu	a5,1101(a5) # 1001444d <mouse_on_off>
 1009e52:	02078d63          	beqz	a5,1009e8c <mouse_task+0x4e>
 1009e56:	100107b7          	lui	a5,0x10010
 1009e5a:	0587c503          	lbu	a0,88(a5) # 10010058 <mouse_report_timernum>
 1009e5e:	f37f70ef          	jal	ra,1001d94 <swtimer_restart>
 1009e62:	4511                	li	a0,4
 1009e64:	ea6f80ef          	jal	ra,100250a <IPC_TxBufferIsEnough>
 1009e68:	02050263          	beqz	a0,1009e8c <mouse_task+0x4e>
 1009e6c:	8cffa0ef          	jal	ra,100473a <Bt_HciGetUsedBufferNum>
 1009e70:	47ad                	li	a5,11
 1009e72:	00a7ed63          	bltu	a5,a0,1009e8c <mouse_task+0x4e>
 1009e76:	f6dff0ef          	jal	ra,1009de2 <Qmi8658_read_xyz>
 1009e7a:	100117b7          	lui	a5,0x10011
 1009e7e:	bdc7a783          	lw	a5,-1060(a5) # 10010bdc <mouse_report_cb>
 1009e82:	10014537          	lui	a0,0x10014
 1009e86:	42850513          	addi	a0,a0,1064 # 10014428 <sensor_data_report>
 1009e8a:	9782                	jalr	a5
 1009e8c:	4110206f          	j	100ca9c <__riscv_restore_0>

01009e90 <mouse_init_handle>:
mouse_init_handle():
 1009e90:	3e9022ef          	jal	t0,100ca78 <__riscv_save_0>
 1009e94:	10010437          	lui	s0,0x10010
 1009e98:	05844703          	lbu	a4,88(s0) # 10010058 <mouse_report_timernum>
 1009e9c:	1141                	addi	sp,sp,-16
 1009e9e:	000107a3          	sb	zero,15(sp)
 1009ea2:	0ff00793          	li	a5,255
 1009ea6:	00f71a63          	bne	a4,a5,1009eba <mouse_init_handle+0x2a>
 1009eaa:	0100a537          	lui	a0,0x100a
 1009eae:	e3e50513          	addi	a0,a0,-450 # 1009e3e <mouse_task>
 1009eb2:	fddf70ef          	jal	ra,1001e8e <swtimer_add>
 1009eb6:	04a40c23          	sb	a0,88(s0)
 1009eba:	0100f437          	lui	s0,0x100f
 1009ebe:	0d500513          	li	a0,213
 1009ec2:	215d                	jal	100a368 <IIC_CheckDevice>
 1009ec4:	02051563          	bnez	a0,1009eee <mouse_init_handle+0x5e>
 1009ec8:	4605                	li	a2,1
 1009eca:	00f10593          	addi	a1,sp,15
 1009ece:	ab7ff0ef          	jal	ra,1009984 <Qmi8658_read_reg>
 1009ed2:	00f14703          	lbu	a4,15(sp)
 1009ed6:	4795                	li	a5,5
 1009ed8:	02f70063          	beq	a4,a5,1009ef8 <mouse_init_handle+0x68>
 1009edc:	0100f437          	lui	s0,0x100f
 1009ee0:	00f14583          	lbu	a1,15(sp)
 1009ee4:	9ec40513          	addi	a0,s0,-1556 # 100e9ec <sbc_enc_as16Offset8+0xb4>
 1009ee8:	871f70ef          	jal	ra,1001758 <print_string_log>
 1009eec:	bfd5                	j	1009ee0 <mouse_init_handle+0x50>
 1009eee:	9b040513          	addi	a0,s0,-1616
 1009ef2:	867f70ef          	jal	ra,1001758 <print_string_log>
 1009ef6:	b7e1                	j	1009ebe <mouse_init_handle+0x2e>
 1009ef8:	10014437          	lui	s0,0x10014
 1009efc:	44d44583          	lbu	a1,1101(s0) # 1001444d <mouse_on_off>
 1009f00:	0100f537          	lui	a0,0x100f
 1009f04:	9c850513          	addi	a0,a0,-1592 # 100e9c8 <sbc_enc_as16Offset8+0x90>
 1009f08:	851f70ef          	jal	ra,1001758 <print_string_log>
 1009f0c:	44d44783          	lbu	a5,1101(s0)
 1009f10:	00079463          	bnez	a5,1009f18 <mouse_init_handle+0x88>
 1009f14:	0d7010ef          	jal	ra,100b7ea <mouse_switch>
 1009f18:	0100f537          	lui	a0,0x100f
 1009f1c:	9d850513          	addi	a0,a0,-1576 # 100e9d8 <sbc_enc_as16Offset8+0xa0>
 1009f20:	839f70ef          	jal	ra,1001758 <print_string_log>
 1009f24:	0141                	addi	sp,sp,16
 1009f26:	3770206f          	j	100ca9c <__riscv_restore_0>

01009f2a <mouse_turn_off>:
mouse_turn_off():
 1009f2a:	34f022ef          	jal	t0,100ca78 <__riscv_save_0>
 1009f2e:	100147b7          	lui	a5,0x10014
 1009f32:	440786a3          	sb	zero,1101(a5) # 1001444d <mouse_on_off>
 1009f36:	e23ff0ef          	jal	ra,1009d58 <Qmi8658_power_off>
 1009f3a:	0100f537          	lui	a0,0x100f
 1009f3e:	a1050513          	addi	a0,a0,-1520 # 100ea10 <sbc_enc_as16Offset8+0xd8>
 1009f42:	817f70ef          	jal	ra,1001758 <print_string_log>
 1009f46:	3570206f          	j	100ca9c <__riscv_restore_0>

01009f4a <mouse_off>:
mouse_off():
 1009f4a:	100147b7          	lui	a5,0x10014
 1009f4e:	440786a3          	sb	zero,1101(a5) # 1001444d <mouse_on_off>
 1009f52:	8082                	ret

01009f54 <mouse_on>:
mouse_on():
 1009f54:	325022ef          	jal	t0,100ca78 <__riscv_save_0>
 1009f58:	4705                	li	a4,1
 1009f5a:	100147b7          	lui	a5,0x10014
 1009f5e:	3e800513          	li	a0,1000
 1009f62:	44e786a3          	sb	a4,1101(a5) # 1001444d <mouse_on_off>
 1009f66:	ca5fc0ef          	jal	ra,1006c0a <app_sleep_timer_set>
 1009f6a:	100107b7          	lui	a5,0x10010
 1009f6e:	0587c503          	lbu	a0,88(a5) # 10010058 <mouse_report_timernum>
 1009f72:	4601                	li	a2,0
 1009f74:	45a9                	li	a1,10
 1009f76:	ea5f70ef          	jal	ra,1001e1a <swtimer_start>
 1009f7a:	99efb0ef          	jal	ra,1005118 <bt_enable_le_tx_md>
 1009f7e:	31f0206f          	j	100ca9c <__riscv_restore_0>

01009f82 <mouse_turn_on>:
mouse_turn_on():
 1009f82:	2f7022ef          	jal	t0,100ca78 <__riscv_save_0>
 1009f86:	4705                	li	a4,1
 1009f88:	100147b7          	lui	a5,0x10014
 1009f8c:	44e786a3          	sb	a4,1101(a5) # 1001444d <mouse_on_off>
 1009f90:	de9ff0ef          	jal	ra,1009d78 <Qmi8658_power_on>
 1009f94:	3e800513          	li	a0,1000
 1009f98:	c73fc0ef          	jal	ra,1006c0a <app_sleep_timer_set>
 1009f9c:	100107b7          	lui	a5,0x10010
 1009fa0:	0587c503          	lbu	a0,88(a5) # 10010058 <mouse_report_timernum>
 1009fa4:	4601                	li	a2,0
 1009fa6:	45a9                	li	a1,10
 1009fa8:	e73f70ef          	jal	ra,1001e1a <swtimer_start>
 1009fac:	0100f537          	lui	a0,0x100f
 1009fb0:	a2450513          	addi	a0,a0,-1500 # 100ea24 <sbc_enc_as16Offset8+0xec>
 1009fb4:	fa4f70ef          	jal	ra,1001758 <print_string_log>
 1009fb8:	2e50206f          	j	100ca9c <__riscv_restore_0>

01009fbc <mouse_reinit>:
mouse_reinit():
 1009fbc:	2bd022ef          	jal	t0,100ca78 <__riscv_save_0>
 1009fc0:	08000593          	li	a1,128
 1009fc4:	4521                	li	a0,8
 1009fc6:	f58f90ef          	jal	ra,100371e <GPIO_Init>
 1009fca:	100147b7          	lui	a5,0x10014
 1009fce:	440786a3          	sb	zero,1101(a5) # 1001444d <mouse_on_off>
 1009fd2:	4705                	li	a4,1
 1009fd4:	100147b7          	lui	a5,0x10014
 1009fd8:	44e78623          	sb	a4,1100(a5) # 1001444c <mouse_on_delay>
 1009fdc:	2c10206f          	j	100ca9c <__riscv_restore_0>

01009fe0 <mouse_init>:
mouse_init():
 1009fe0:	299022ef          	jal	t0,100ca78 <__riscv_save_0>
 1009fe4:	100117b7          	lui	a5,0x10011
 1009fe8:	bca7ae23          	sw	a0,-1060(a5) # 10010bdc <mouse_report_cb>
 1009fec:	08000593          	li	a1,128
 1009ff0:	4521                	li	a0,8
 1009ff2:	f2cf90ef          	jal	ra,100371e <GPIO_Init>
 1009ff6:	0100a537          	lui	a0,0x100a
 1009ffa:	e9050513          	addi	a0,a0,-368 # 1009e90 <mouse_init_handle>
 1009ffe:	e91f70ef          	jal	ra,1001e8e <swtimer_add>
 100a002:	100107b7          	lui	a5,0x10010
 100a006:	4601                	li	a2,0
 100a008:	45d1                	li	a1,20
 100a00a:	04a78ca3          	sb	a0,89(a5) # 10010059 <mouse_init_timernum>
 100a00e:	e0df70ef          	jal	ra,1001e1a <swtimer_start>
 100a012:	28b0206f          	j	100ca9c <__riscv_restore_0>

0100a016 <check_mouse_chip_id>:
check_mouse_chip_id():
 100a016:	263022ef          	jal	t0,100ca78 <__riscv_save_0>
 100a01a:	1141                	addi	sp,sp,-16
 100a01c:	4605                	li	a2,1
 100a01e:	00f10593          	addi	a1,sp,15
 100a022:	4501                	li	a0,0
 100a024:	000107a3          	sb	zero,15(sp)
 100a028:	95dff0ef          	jal	ra,1009984 <Qmi8658_read_reg>
 100a02c:	00f14703          	lbu	a4,15(sp)
 100a030:	4795                	li	a5,5
 100a032:	00f70863          	beq	a4,a5,100a042 <check_mouse_chip_id+0x2c>
 100a036:	4601                	li	a2,0
 100a038:	4581                	li	a1,0
 100a03a:	4501                	li	a0,0
 100a03c:	b94fd0ef          	jal	ra,10073d0 <led_on>
 100a040:	bfdd                	j	100a036 <check_mouse_chip_id+0x20>
 100a042:	0141                	addi	sp,sp,16
 100a044:	2590206f          	j	100ca9c <__riscv_restore_0>

0100a048 <get_mouse_int_state>:
get_mouse_int_state():
 100a048:	231022ef          	jal	t0,100ca78 <__riscv_save_0>
 100a04c:	4521                	li	a0,8
 100a04e:	f20f90ef          	jal	ra,100376e <GPIO_ReadDataBit>
 100a052:	10011737          	lui	a4,0x10011
 100a056:	00050b63          	beqz	a0,100a06c <get_mouse_int_state+0x24>
 100a05a:	100107b7          	lui	a5,0x10010
 100a05e:	04078d23          	sb	zero,90(a5) # 1001005a <moving_state>
 100a062:	be071023          	sh	zero,-1056(a4) # 10010be0 <int_cnt>
 100a066:	4501                	li	a0,0
 100a068:	2350206f          	j	100ca9c <__riscv_restore_0>
 100a06c:	be075783          	lhu	a5,-1056(a4)
 100a070:	12b00693          	li	a3,299
 100a074:	0785                	addi	a5,a5,1
 100a076:	07c2                	slli	a5,a5,0x10
 100a078:	83c1                	srli	a5,a5,0x10
 100a07a:	00f6e663          	bltu	a3,a5,100a086 <get_mouse_int_state+0x3e>
 100a07e:	bef71023          	sh	a5,-1056(a4)
 100a082:	4505                	li	a0,1
 100a084:	b7d5                	j	100a068 <get_mouse_int_state+0x20>
 100a086:	0100f537          	lui	a0,0x100f
 100a08a:	100107b7          	lui	a5,0x10010
 100a08e:	be071023          	sh	zero,-1056(a4)
 100a092:	a3850513          	addi	a0,a0,-1480 # 100ea38 <sbc_enc_as16Offset8+0x100>
 100a096:	4705                	li	a4,1
 100a098:	04e78d23          	sb	a4,90(a5) # 1001005a <moving_state>
 100a09c:	ebcf70ef          	jal	ra,1001758 <print_string_log>
 100a0a0:	b7cd                	j	100a082 <get_mouse_int_state+0x3a>

0100a0a2 <get_axis_moving_state>:
get_axis_moving_state():
 100a0a2:	100107b7          	lui	a5,0x10010
 100a0a6:	05a7c503          	lbu	a0,90(a5) # 1001005a <moving_state>
 100a0aa:	8082                	ret

0100a0ac <EulerAngle_Calculate_ReStart>:
EulerAngle_Calculate_ReStart():
 100a0ac:	0100f737          	lui	a4,0x100f
 100a0b0:	a5072787          	flw	fa5,-1456(a4) # 100ea50 <sbc_enc_as16Offset8+0x118>
 100a0b4:	100147b7          	lui	a5,0x10014
 100a0b8:	44f7a827          	fsw	fa5,1104(a5) # 10014450 <q0>
 100a0bc:	100147b7          	lui	a5,0x10014
 100a0c0:	4407aa23          	sw	zero,1108(a5) # 10014454 <q1>
 100a0c4:	100147b7          	lui	a5,0x10014
 100a0c8:	4407ac23          	sw	zero,1112(a5) # 10014458 <q2>
 100a0cc:	100147b7          	lui	a5,0x10014
 100a0d0:	4407ae23          	sw	zero,1116(a5) # 1001445c <q3>
 100a0d4:	100147b7          	lui	a5,0x10014
 100a0d8:	4607a023          	sw	zero,1120(a5) # 10014460 <exInt>
 100a0dc:	100147b7          	lui	a5,0x10014
 100a0e0:	4607a223          	sw	zero,1124(a5) # 10014464 <eyInt>
 100a0e4:	100147b7          	lui	a5,0x10014
 100a0e8:	4607a423          	sw	zero,1128(a5) # 10014468 <ezInt>
 100a0ec:	8082                	ret

0100a0ee <IIC_NAck>:
IIC_NAck():
 100a0ee:	18b022ef          	jal	t0,100ca78 <__riscv_save_0>
 100a0f2:	03e00593          	li	a1,62
 100a0f6:	02100513          	li	a0,33
 100a0fa:	e24f90ef          	jal	ra,100371e <GPIO_Init>
 100a0fe:	4505                	li	a0,1
 100a100:	876fa0ef          	jal	ra,1004176 <SysTick_DelayUs>
 100a104:	03f00593          	li	a1,63
 100a108:	02000513          	li	a0,32
 100a10c:	e12f90ef          	jal	ra,100371e <GPIO_Init>
 100a110:	4509                	li	a0,2
 100a112:	864fa0ef          	jal	ra,1004176 <SysTick_DelayUs>
 100a116:	03f00593          	li	a1,63
 100a11a:	02100513          	li	a0,33
 100a11e:	e00f90ef          	jal	ra,100371e <GPIO_Init>
 100a122:	4509                	li	a0,2
 100a124:	852fa0ef          	jal	ra,1004176 <SysTick_DelayUs>
 100a128:	03e00593          	li	a1,62
 100a12c:	02100513          	li	a0,33
 100a130:	deef90ef          	jal	ra,100371e <GPIO_Init>
 100a134:	1690206f          	j	100ca9c <__riscv_restore_0>

0100a138 <IIC_Ack>:
IIC_Ack():
 100a138:	141022ef          	jal	t0,100ca78 <__riscv_save_0>
 100a13c:	03e00593          	li	a1,62
 100a140:	02100513          	li	a0,33
 100a144:	ddaf90ef          	jal	ra,100371e <GPIO_Init>
 100a148:	4505                	li	a0,1
 100a14a:	82cfa0ef          	jal	ra,1004176 <SysTick_DelayUs>
 100a14e:	03e00593          	li	a1,62
 100a152:	02000513          	li	a0,32
 100a156:	dc8f90ef          	jal	ra,100371e <GPIO_Init>
 100a15a:	4509                	li	a0,2
 100a15c:	81afa0ef          	jal	ra,1004176 <SysTick_DelayUs>
 100a160:	03f00593          	li	a1,63
 100a164:	02100513          	li	a0,33
 100a168:	db6f90ef          	jal	ra,100371e <GPIO_Init>
 100a16c:	4509                	li	a0,2
 100a16e:	808fa0ef          	jal	ra,1004176 <SysTick_DelayUs>
 100a172:	03e00593          	li	a1,62
 100a176:	02100513          	li	a0,33
 100a17a:	da4f90ef          	jal	ra,100371e <GPIO_Init>
 100a17e:	11f0206f          	j	100ca9c <__riscv_restore_0>

0100a182 <IIC_WaitAck>:
IIC_WaitAck():
 100a182:	0f7022ef          	jal	t0,100ca78 <__riscv_save_0>
 100a186:	4581                	li	a1,0
 100a188:	02000513          	li	a0,32
 100a18c:	d92f90ef          	jal	ra,100371e <GPIO_Init>
 100a190:	4505                	li	a0,1
 100a192:	fe5f90ef          	jal	ra,1004176 <SysTick_DelayUs>
 100a196:	03f00593          	li	a1,63
 100a19a:	02100513          	li	a0,33
 100a19e:	d80f90ef          	jal	ra,100371e <GPIO_Init>
 100a1a2:	4505                	li	a0,1
 100a1a4:	fd3f90ef          	jal	ra,1004176 <SysTick_DelayUs>
 100a1a8:	0c900413          	li	s0,201
 100a1ac:	02000513          	li	a0,32
 100a1b0:	dbef90ef          	jal	ra,100376e <GPIO_ReadDataBit>
 100a1b4:	84aa                	mv	s1,a0
 100a1b6:	00051c63          	bnez	a0,100a1ce <IIC_WaitAck+0x4c>
 100a1ba:	03e00593          	li	a1,62
 100a1be:	02100513          	li	a0,33
 100a1c2:	d5cf90ef          	jal	ra,100371e <GPIO_Init>
 100a1c6:	4505                	li	a0,1
 100a1c8:	faff90ef          	jal	ra,1004176 <SysTick_DelayUs>
 100a1cc:	a801                	j	100a1dc <IIC_WaitAck+0x5a>
 100a1ce:	147d                	addi	s0,s0,-1
 100a1d0:	0ff47413          	andi	s0,s0,255
 100a1d4:	fc041ce3          	bnez	s0,100a1ac <IIC_WaitAck+0x2a>
 100a1d8:	20d5                	jal	100a2bc <IIC_Stop>
 100a1da:	4485                	li	s1,1
 100a1dc:	8526                	mv	a0,s1
 100a1de:	0bf0206f          	j	100ca9c <__riscv_restore_0>

0100a1e2 <IIC_ReadByte>:
IIC_ReadByte():
 100a1e2:	097022ef          	jal	t0,100ca78 <__riscv_save_0>
 100a1e6:	892a                	mv	s2,a0
 100a1e8:	4581                	li	a1,0
 100a1ea:	02000513          	li	a0,32
 100a1ee:	d30f90ef          	jal	ra,100371e <GPIO_Init>
 100a1f2:	44a1                	li	s1,8
 100a1f4:	4401                	li	s0,0
 100a1f6:	03f00593          	li	a1,63
 100a1fa:	02100513          	li	a0,33
 100a1fe:	d20f90ef          	jal	ra,100371e <GPIO_Init>
 100a202:	4505                	li	a0,1
 100a204:	f73f90ef          	jal	ra,1004176 <SysTick_DelayUs>
 100a208:	0406                	slli	s0,s0,0x1
 100a20a:	02000513          	li	a0,32
 100a20e:	0ff47413          	andi	s0,s0,255
 100a212:	d5cf90ef          	jal	ra,100376e <GPIO_ReadDataBit>
 100a216:	00050563          	beqz	a0,100a220 <IIC_ReadByte+0x3e>
 100a21a:	0405                	addi	s0,s0,1
 100a21c:	0ff47413          	andi	s0,s0,255
 100a220:	03e00593          	li	a1,62
 100a224:	02100513          	li	a0,33
 100a228:	cf6f90ef          	jal	ra,100371e <GPIO_Init>
 100a22c:	14fd                	addi	s1,s1,-1
 100a22e:	4509                	li	a0,2
 100a230:	0ff4f493          	andi	s1,s1,255
 100a234:	f43f90ef          	jal	ra,1004176 <SysTick_DelayUs>
 100a238:	fa049fe3          	bnez	s1,100a1f6 <IIC_ReadByte+0x14>
 100a23c:	00091763          	bnez	s2,100a24a <IIC_ReadByte+0x68>
 100a240:	eafff0ef          	jal	ra,100a0ee <IIC_NAck>
 100a244:	8522                	mv	a0,s0
 100a246:	0570206f          	j	100ca9c <__riscv_restore_0>
 100a24a:	eefff0ef          	jal	ra,100a138 <IIC_Ack>
 100a24e:	bfdd                	j	100a244 <IIC_ReadByte+0x62>

0100a250 <IIC_SendByte>:
IIC_SendByte():
 100a250:	029022ef          	jal	t0,100ca78 <__riscv_save_0>
 100a254:	84aa                	mv	s1,a0
 100a256:	03e00593          	li	a1,62
 100a25a:	02100513          	li	a0,33
 100a25e:	cc0f90ef          	jal	ra,100371e <GPIO_Init>
 100a262:	4421                	li	s0,8
 100a264:	01849793          	slli	a5,s1,0x18
 100a268:	87e1                	srai	a5,a5,0x18
 100a26a:	03f00593          	li	a1,63
 100a26e:	0007c463          	bltz	a5,100a276 <IIC_SendByte+0x26>
 100a272:	03e00593          	li	a1,62
 100a276:	02000513          	li	a0,32
 100a27a:	ca4f90ef          	jal	ra,100371e <GPIO_Init>
 100a27e:	4509                	li	a0,2
 100a280:	ef7f90ef          	jal	ra,1004176 <SysTick_DelayUs>
 100a284:	03f00593          	li	a1,63
 100a288:	02100513          	li	a0,33
 100a28c:	c92f90ef          	jal	ra,100371e <GPIO_Init>
 100a290:	4509                	li	a0,2
 100a292:	ee5f90ef          	jal	ra,1004176 <SysTick_DelayUs>
 100a296:	03e00593          	li	a1,62
 100a29a:	02100513          	li	a0,33
 100a29e:	c80f90ef          	jal	ra,100371e <GPIO_Init>
 100a2a2:	147d                	addi	s0,s0,-1
 100a2a4:	0486                	slli	s1,s1,0x1
 100a2a6:	4509                	li	a0,2
 100a2a8:	0ff47413          	andi	s0,s0,255
 100a2ac:	0ff4f493          	andi	s1,s1,255
 100a2b0:	ec7f90ef          	jal	ra,1004176 <SysTick_DelayUs>
 100a2b4:	fa0418e3          	bnez	s0,100a264 <IIC_SendByte+0x14>
 100a2b8:	7e40206f          	j	100ca9c <__riscv_restore_0>

0100a2bc <IIC_Stop>:
IIC_Stop():
 100a2bc:	7bc022ef          	jal	t0,100ca78 <__riscv_save_0>
 100a2c0:	03e00593          	li	a1,62
 100a2c4:	02100513          	li	a0,33
 100a2c8:	c56f90ef          	jal	ra,100371e <GPIO_Init>
 100a2cc:	03e00593          	li	a1,62
 100a2d0:	02000513          	li	a0,32
 100a2d4:	c4af90ef          	jal	ra,100371e <GPIO_Init>
 100a2d8:	4511                	li	a0,4
 100a2da:	e9df90ef          	jal	ra,1004176 <SysTick_DelayUs>
 100a2de:	03f00593          	li	a1,63
 100a2e2:	02100513          	li	a0,33
 100a2e6:	c38f90ef          	jal	ra,100371e <GPIO_Init>
 100a2ea:	4511                	li	a0,4
 100a2ec:	e8bf90ef          	jal	ra,1004176 <SysTick_DelayUs>
 100a2f0:	03f00593          	li	a1,63
 100a2f4:	02000513          	li	a0,32
 100a2f8:	c26f90ef          	jal	ra,100371e <GPIO_Init>
 100a2fc:	7a00206f          	j	100ca9c <__riscv_restore_0>

0100a300 <IIC_Start>:
IIC_Start():
 100a300:	778022ef          	jal	t0,100ca78 <__riscv_save_0>
 100a304:	03f00593          	li	a1,63
 100a308:	02000513          	li	a0,32
 100a30c:	c12f90ef          	jal	ra,100371e <GPIO_Init>
 100a310:	03f00593          	li	a1,63
 100a314:	02100513          	li	a0,33
 100a318:	c06f90ef          	jal	ra,100371e <GPIO_Init>
 100a31c:	4511                	li	a0,4
 100a31e:	e59f90ef          	jal	ra,1004176 <SysTick_DelayUs>
 100a322:	03e00593          	li	a1,62
 100a326:	02000513          	li	a0,32
 100a32a:	bf4f90ef          	jal	ra,100371e <GPIO_Init>
 100a32e:	4511                	li	a0,4
 100a330:	e47f90ef          	jal	ra,1004176 <SysTick_DelayUs>
 100a334:	03e00593          	li	a1,62
 100a338:	02100513          	li	a0,33
 100a33c:	be2f90ef          	jal	ra,100371e <GPIO_Init>
 100a340:	75c0206f          	j	100ca9c <__riscv_restore_0>

0100a344 <IIC_Init>:
IIC_Init():
 100a344:	734022ef          	jal	t0,100ca78 <__riscv_save_0>
 100a348:	03f00593          	li	a1,63
 100a34c:	02100513          	li	a0,33
 100a350:	bcef90ef          	jal	ra,100371e <GPIO_Init>
 100a354:	03f00593          	li	a1,63
 100a358:	02000513          	li	a0,32
 100a35c:	bc2f90ef          	jal	ra,100371e <GPIO_Init>
 100a360:	f5dff0ef          	jal	ra,100a2bc <IIC_Stop>
 100a364:	7380206f          	j	100ca9c <__riscv_restore_0>

0100a368 <IIC_CheckDevice>:
IIC_CheckDevice():
 100a368:	710022ef          	jal	t0,100ca78 <__riscv_save_0>
 100a36c:	1141                	addi	sp,sp,-16
 100a36e:	c62a                	sw	a0,12(sp)
 100a370:	fd5ff0ef          	jal	ra,100a344 <IIC_Init>
 100a374:	f8dff0ef          	jal	ra,100a300 <IIC_Start>
 100a378:	4532                	lw	a0,12(sp)
 100a37a:	ed7ff0ef          	jal	ra,100a250 <IIC_SendByte>
 100a37e:	e05ff0ef          	jal	ra,100a182 <IIC_WaitAck>
 100a382:	c62a                	sw	a0,12(sp)
 100a384:	f39ff0ef          	jal	ra,100a2bc <IIC_Stop>
 100a388:	4532                	lw	a0,12(sp)
 100a38a:	0141                	addi	sp,sp,16
 100a38c:	7100206f          	j	100ca9c <__riscv_restore_0>

0100a390 <Encoder_Scan>:
Encoder_Scan():
 100a390:	6e8022ef          	jal	t0,100ca78 <__riscv_save_0>
 100a394:	452d                	li	a0,11
 100a396:	bd8f90ef          	jal	ra,100376e <GPIO_ReadDataBit>
 100a39a:	842a                	mv	s0,a0
 100a39c:	02400513          	li	a0,36
 100a3a0:	bcef90ef          	jal	ra,100376e <GPIO_ReadDataBit>
 100a3a4:	100117b7          	lui	a5,0x10011
 100a3a8:	be27c683          	lbu	a3,-1054(a5) # 10010be2 <Enc_Type>
 100a3ac:	4705                	li	a4,1
 100a3ae:	0a069563          	bnez	a3,100a458 <Encoder_Scan+0xc8>
 100a3b2:	00e41a63          	bne	s0,a4,100a3c6 <Encoder_Scan+0x36>
 100a3b6:	02851b63          	bne	a0,s0,100a3ec <Encoder_Scan+0x5c>
 100a3ba:	100117b7          	lui	a5,0x10011
 100a3be:	be0781a3          	sb	zero,-1053(a5) # 10010be3 <dir.3692>
 100a3c2:	4781                	li	a5,0
 100a3c4:	a895                	j	100a438 <Encoder_Scan+0xa8>
 100a3c6:	4781                	li	a5,0
 100a3c8:	06041863          	bnez	s0,100a438 <Encoder_Scan+0xa8>
 100a3cc:	02e51f63          	bne	a0,a4,100a40a <Encoder_Scan+0x7a>
 100a3d0:	100117b7          	lui	a5,0x10011
 100a3d4:	be37c703          	lbu	a4,-1053(a5) # 10010be3 <dir.3692>
 100a3d8:	4781                	li	a5,0
 100a3da:	04071f63          	bnez	a4,100a438 <Encoder_Scan+0xa8>
 100a3de:	100117b7          	lui	a5,0x10011
 100a3e2:	05200713          	li	a4,82
 100a3e6:	bee781a3          	sb	a4,-1053(a5) # 10010be3 <dir.3692>
 100a3ea:	bfe1                	j	100a3c2 <Encoder_Scan+0x32>
 100a3ec:	100117b7          	lui	a5,0x10011
 100a3f0:	be37c783          	lbu	a5,-1053(a5) # 10010be3 <dir.3692>
 100a3f4:	8d5d                	or	a0,a0,a5
 100a3f6:	0ff57513          	andi	a0,a0,255
 100a3fa:	4781                	li	a5,0
 100a3fc:	02051e63          	bnez	a0,100a438 <Encoder_Scan+0xa8>
 100a400:	100117b7          	lui	a5,0x10011
 100a404:	04c00713          	li	a4,76
 100a408:	bff9                	j	100a3e6 <Encoder_Scan+0x56>
 100a40a:	4781                	li	a5,0
 100a40c:	02051663          	bnez	a0,100a438 <Encoder_Scan+0xa8>
 100a410:	100117b7          	lui	a5,0x10011
 100a414:	be37c703          	lbu	a4,-1053(a5) # 10010be3 <dir.3692>
 100a418:	0ff00693          	li	a3,255
 100a41c:	4781                	li	a5,0
 100a41e:	00d70d63          	beq	a4,a3,100a438 <Encoder_Scan+0xa8>
 100a422:	04c00793          	li	a5,76
 100a426:	00f71c63          	bne	a4,a5,100a43e <Encoder_Scan+0xae>
 100a42a:	100117b7          	lui	a5,0x10011
 100a42e:	577d                	li	a4,-1
 100a430:	bee781a3          	sb	a4,-1053(a5) # 10010be3 <dir.3692>
 100a434:	04c00793          	li	a5,76
 100a438:	853e                	mv	a0,a5
 100a43a:	6620206f          	j	100ca9c <__riscv_restore_0>
 100a43e:	05200693          	li	a3,82
 100a442:	4781                	li	a5,0
 100a444:	fed71ae3          	bne	a4,a3,100a438 <Encoder_Scan+0xa8>
 100a448:	100117b7          	lui	a5,0x10011
 100a44c:	577d                	li	a4,-1
 100a44e:	bee781a3          	sb	a4,-1053(a5) # 10010be3 <dir.3692>
 100a452:	05200793          	li	a5,82
 100a456:	b7cd                	j	100a438 <Encoder_Scan+0xa8>
 100a458:	4781                	li	a5,0
 100a45a:	fce69fe3          	bne	a3,a4,100a438 <Encoder_Scan+0xa8>
 100a45e:	10011737          	lui	a4,0x10011
 100a462:	00d41763          	bne	s0,a3,100a470 <Encoder_Scan+0xe0>
 100a466:	02851263          	bne	a0,s0,100a48a <Encoder_Scan+0xfa>
 100a46a:	bea701a3          	sb	a0,-1053(a4) # 10010be3 <dir.3692>
 100a46e:	b7e9                	j	100a438 <Encoder_Scan+0xa8>
 100a470:	02041563          	bnez	s0,100a49a <Encoder_Scan+0x10a>
 100a474:	f40503e3          	beqz	a0,100a3ba <Encoder_Scan+0x2a>
 100a478:	be374783          	lbu	a5,-1053(a4)
 100a47c:	00d51f63          	bne	a0,a3,100a49a <Encoder_Scan+0x10a>
 100a480:	f4a78fe3          	beq	a5,a0,100a3de <Encoder_Scan+0x4e>
 100a484:	f6078ee3          	beqz	a5,100a400 <Encoder_Scan+0x70>
 100a488:	a809                	j	100a49a <Encoder_Scan+0x10a>
 100a48a:	be374783          	lbu	a5,-1053(a4)
 100a48e:	00051663          	bnez	a0,100a49a <Encoder_Scan+0x10a>
 100a492:	f40786e3          	beqz	a5,100a3de <Encoder_Scan+0x4e>
 100a496:	f68785e3          	beq	a5,s0,100a400 <Encoder_Scan+0x70>
 100a49a:	be374703          	lbu	a4,-1053(a4)
 100a49e:	0ff00693          	li	a3,255
 100a4a2:	4781                	li	a5,0
 100a4a4:	f8d70ae3          	beq	a4,a3,100a438 <Encoder_Scan+0xa8>
 100a4a8:	04c00793          	li	a5,76
 100a4ac:	f6f70fe3          	beq	a4,a5,100a42a <Encoder_Scan+0x9a>
 100a4b0:	05200793          	li	a5,82
 100a4b4:	f0f717e3          	bne	a4,a5,100a3c2 <Encoder_Scan+0x32>
 100a4b8:	bf41                	j	100a448 <Encoder_Scan+0xb8>

0100a4ba <encode_timer_cb>:
encode_timer_cb():
 100a4ba:	5be022ef          	jal	t0,100ca78 <__riscv_save_0>
 100a4be:	ed3ff0ef          	jal	ra,100a390 <Encoder_Scan>
 100a4c2:	0ff57513          	andi	a0,a0,255
 100a4c6:	02051863          	bnez	a0,100a4f6 <encode_timer_cb+0x3c>
 100a4ca:	100117b7          	lui	a5,0x10011
 100a4ce:	d577c703          	lbu	a4,-681(a5) # 10010d57 <encode_state>
 100a4d2:	00070463          	beqz	a4,100a4da <encode_timer_cb+0x20>
 100a4d6:	d4078ba3          	sb	zero,-681(a5)
 100a4da:	100117b7          	lui	a5,0x10011
 100a4de:	d567c783          	lbu	a5,-682(a5) # 10010d56 <encode_onoff>
 100a4e2:	00079863          	bnez	a5,100a4f2 <encode_timer_cb+0x38>
 100a4e6:	0100a537          	lui	a0,0x100a
 100a4ea:	4ba50513          	addi	a0,a0,1210 # 100a4ba <encode_timer_cb>
 100a4ee:	ad6fc0ef          	jal	ra,10067c4 <app_queue_insert>
 100a4f2:	5aa0206f          	j	100ca9c <__riscv_restore_0>
 100a4f6:	05200793          	li	a5,82
 100a4fa:	02f51063          	bne	a0,a5,100a51a <encode_timer_cb+0x60>
 100a4fe:	100117b7          	lui	a5,0x10011
 100a502:	d577c703          	lbu	a4,-681(a5) # 10010d57 <encode_state>
 100a506:	fc071ae3          	bnez	a4,100a4da <encode_timer_cb+0x20>
 100a50a:	4705                	li	a4,1
 100a50c:	100106b7          	lui	a3,0x10010
 100a510:	04e68da3          	sb	a4,91(a3) # 1001005b <encode_chk_ok>
 100a514:	d4e78ba3          	sb	a4,-681(a5)
 100a518:	b7c9                	j	100a4da <encode_timer_cb+0x20>
 100a51a:	04c00793          	li	a5,76
 100a51e:	faf51ee3          	bne	a0,a5,100a4da <encode_timer_cb+0x20>
 100a522:	100117b7          	lui	a5,0x10011
 100a526:	d577c703          	lbu	a4,-681(a5) # 10010d57 <encode_state>
 100a52a:	fa0718e3          	bnez	a4,100a4da <encode_timer_cb+0x20>
 100a52e:	10010737          	lui	a4,0x10010
 100a532:	04070da3          	sb	zero,91(a4) # 1001005b <encode_chk_ok>
 100a536:	4705                	li	a4,1
 100a538:	bff1                	j	100a514 <encode_timer_cb+0x5a>

0100a53a <encode_timer_init>:
encode_timer_init():
 100a53a:	53e022ef          	jal	t0,100ca78 <__riscv_save_0>
 100a53e:	4581                	li	a1,0
 100a540:	452d                	li	a0,11
 100a542:	9dcf90ef          	jal	ra,100371e <GPIO_Init>
 100a546:	4581                	li	a1,0
 100a548:	02400513          	li	a0,36
 100a54c:	9d2f90ef          	jal	ra,100371e <GPIO_Init>
 100a550:	03f00593          	li	a1,63
 100a554:	4519                	li	a0,6
 100a556:	9c8f90ef          	jal	ra,100371e <GPIO_Init>
 100a55a:	0100a537          	lui	a0,0x100a
 100a55e:	4ba50513          	addi	a0,a0,1210 # 100a4ba <encode_timer_cb>
 100a562:	a62fc0ef          	jal	ra,10067c4 <app_queue_insert>
 100a566:	5360206f          	j	100ca9c <__riscv_restore_0>

0100a56a <encode_timer_deinit>:
encode_timer_deinit():
 100a56a:	50e022ef          	jal	t0,100ca78 <__riscv_save_0>
 100a56e:	03e00593          	li	a1,62
 100a572:	4519                	li	a0,6
 100a574:	9aaf90ef          	jal	ra,100371e <GPIO_Init>
 100a578:	03e00593          	li	a1,62
 100a57c:	452d                	li	a0,11
 100a57e:	9a0f90ef          	jal	ra,100371e <GPIO_Init>
 100a582:	03e00593          	li	a1,62
 100a586:	02400513          	li	a0,36
 100a58a:	994f90ef          	jal	ra,100371e <GPIO_Init>
 100a58e:	50e0206f          	j	100ca9c <__riscv_restore_0>

0100a592 <get_encode_chk_ok_state>:
get_encode_chk_ok_state():
 100a592:	100107b7          	lui	a5,0x10010
 100a596:	05b7c503          	lbu	a0,91(a5) # 1001005b <encode_chk_ok>
 100a59a:	0ff00713          	li	a4,255
 100a59e:	00e50563          	beq	a0,a4,100a5a8 <get_encode_chk_ok_state+0x16>
 100a5a2:	577d                	li	a4,-1
 100a5a4:	04e78da3          	sb	a4,91(a5)
 100a5a8:	8082                	ret

0100a5aa <encode_on>:
encode_on():
 100a5aa:	4ce022ef          	jal	t0,100ca78 <__riscv_save_0>
 100a5ae:	0100a537          	lui	a0,0x100a
 100a5b2:	100117b7          	lui	a5,0x10011
 100a5b6:	4ba50513          	addi	a0,a0,1210 # 100a4ba <encode_timer_cb>
 100a5ba:	d4078b23          	sb	zero,-682(a5) # 10010d56 <encode_onoff>
 100a5be:	a06fc0ef          	jal	ra,10067c4 <app_queue_insert>
 100a5c2:	4da0206f          	j	100ca9c <__riscv_restore_0>

0100a5c6 <encode_off>:
encode_off():
 100a5c6:	100117b7          	lui	a5,0x10011
 100a5ca:	4705                	li	a4,1
 100a5cc:	d4e78b23          	sb	a4,-682(a5) # 10010d56 <encode_onoff>
 100a5d0:	8082                	ret

0100a5d2 <get_VoiceHandle>:
get_VoiceHandle():
 100a5d2:	100117b7          	lui	a5,0x10011
 100a5d6:	be47c783          	lbu	a5,-1052(a5) # 10010be4 <g_factorymode>
 100a5da:	00079563          	bnez	a5,100a5e4 <get_VoiceHandle+0x12>
 100a5de:	02700513          	li	a0,39
 100a5e2:	8082                	ret
 100a5e4:	6541                	lui	a0,0x10
 100a5e6:	1571                	addi	a0,a0,-4
 100a5e8:	8082                	ret

0100a5ea <factory_WriteDataParse>:
factory_WriteDataParse():
 100a5ea:	67c1                	lui	a5,0x10
 100a5ec:	17f1                	addi	a5,a5,-4
 100a5ee:	04f51763          	bne	a0,a5,100a63c <factory_WriteDataParse+0x52>
 100a5f2:	486022ef          	jal	t0,100ca78 <__riscv_save_0>
 100a5f6:	0100f537          	lui	a0,0x100f
 100a5fa:	4649                	li	a2,18
 100a5fc:	b7c50513          	addi	a0,a0,-1156 # 100eb7c <cmd_test>
 100a600:	842e                	mv	s0,a1
 100a602:	4e2020ef          	jal	ra,100cae4 <memcmp>
 100a606:	00051e63          	bnez	a0,100a622 <factory_WriteDataParse+0x38>
 100a60a:	6509                	lui	a0,0x2
 100a60c:	100117b7          	lui	a5,0x10011
 100a610:	4705                	li	a4,1
 100a612:	71050513          	addi	a0,a0,1808 # 2710 <__EN_MIE-0xffd96e>
 100a616:	bee78223          	sb	a4,-1052(a5) # 10010be4 <g_factorymode>
 100a61a:	df0fc0ef          	jal	ra,1006c0a <app_sleep_timer_set>
 100a61e:	47e0206f          	j	100ca9c <__riscv_restore_0>
 100a622:	0100f537          	lui	a0,0x100f
 100a626:	4625                	li	a2,9
 100a628:	85a2                	mv	a1,s0
 100a62a:	b9050513          	addi	a0,a0,-1136 # 100eb90 <cmd_mic_close>
 100a62e:	4b6020ef          	jal	ra,100cae4 <memcmp>
 100a632:	fe0516e3          	bnez	a0,100a61e <factory_WriteDataParse+0x34>
 100a636:	dbcfe0ef          	jal	ra,1008bf2 <mic_close>
 100a63a:	b7d5                	j	100a61e <factory_WriteDataParse+0x34>
 100a63c:	8082                	ret

0100a63e <factory_KeyProcess>:
factory_KeyProcess():
 100a63e:	43a022ef          	jal	t0,100ca78 <__riscv_save_0>
 100a642:	100117b7          	lui	a5,0x10011
 100a646:	be47c783          	lbu	a5,-1052(a5) # 10010be4 <g_factorymode>
 100a64a:	1141                	addi	sp,sp,-16
 100a64c:	00a107a3          	sb	a0,15(sp)
 100a650:	02078963          	beqz	a5,100a682 <factory_KeyProcess+0x44>
 100a654:	0ff57713          	andi	a4,a0,255
 100a658:	0ff00793          	li	a5,255
 100a65c:	00f71463          	bne	a4,a5,100a664 <factory_KeyProcess+0x26>
 100a660:	df0fe0ef          	jal	ra,1008c50 <mic_open>
 100a664:	6541                	lui	a0,0x10
 100a666:	00f10593          	addi	a1,sp,15
 100a66a:	1571                	addi	a0,a0,-4
 100a66c:	4605                	li	a2,1
 100a66e:	fd3fb0ef          	jal	ra,1006640 <ATT_sendNotify>
 100a672:	00f14583          	lbu	a1,15(sp)
 100a676:	0100f537          	lui	a0,0x100f
 100a67a:	b9c50513          	addi	a0,a0,-1124 # 100eb9c <cmd_mic_close+0xc>
 100a67e:	8daf70ef          	jal	ra,1001758 <print_string_log>
 100a682:	0141                	addi	sp,sp,16
 100a684:	4180206f          	j	100ca9c <__riscv_restore_0>

0100a688 <SecretKey_Check>:
SecretKey_Check():
 100a688:	3f0022ef          	jal	t0,100ca78 <__riscv_save_0>
 100a68c:	7139                	addi	sp,sp,-64
 100a68e:	6795                	lui	a5,0x5
 100a690:	0854                	addi	a3,sp,20
 100a692:	e1b78713          	addi	a4,a5,-485 # 4e1b <__EN_MIE-0xffb263>
 100a696:	c802                	sw	zero,16(sp)
 100a698:	8436                	mv	s0,a3
 100a69a:	100005b7          	lui	a1,0x10000
 100a69e:	e2778793          	addi	a5,a5,-473
 100a6a2:	00b76633          	or	a2,a4,a1
 100a6a6:	00064603          	lbu	a2,0(a2)
 100a6aa:	0705                	addi	a4,a4,1
 100a6ac:	0685                	addi	a3,a3,1
 100a6ae:	fec68fa3          	sb	a2,-1(a3)
 100a6b2:	fef718e3          	bne	a4,a5,100a6a2 <SecretKey_Check+0x1a>
 100a6b6:	0003c537          	lui	a0,0x3c
 100a6ba:	1010                	addi	a2,sp,32
 100a6bc:	45c1                	li	a1,16
 100a6be:	f0050513          	addi	a0,a0,-256 # 3bf00 <__EN_MIE-0xfc417e>
 100a6c2:	ceafa0ef          	jal	ra,1004bac <QSPI_ReadFlashData>
 100a6c6:	0810                	addi	a2,sp,16
 100a6c8:	458d                	li	a1,3
 100a6ca:	4501                	li	a0,0
 100a6cc:	ce0fa0ef          	jal	ra,1004bac <QSPI_ReadFlashData>
 100a6d0:	47c2                	lw	a5,16(sp)
 100a6d2:	6741                	lui	a4,0x10
 100a6d4:	f0070713          	addi	a4,a4,-256 # ff00 <__EN_MIE-0xff017e>
 100a6d8:	0107d513          	srli	a0,a5,0x10
 100a6dc:	0ff57513          	andi	a0,a0,255
 100a6e0:	8f7d                	and	a4,a4,a5
 100a6e2:	8f49                	or	a4,a4,a0
 100a6e4:	01079513          	slli	a0,a5,0x10
 100a6e8:	00ff07b7          	lui	a5,0xff0
 100a6ec:	8d7d                	and	a0,a0,a5
 100a6ee:	1571                	addi	a0,a0,-4
 100a6f0:	953a                	add	a0,a0,a4
 100a6f2:	0070                	addi	a2,sp,12
 100a6f4:	4589                	li	a1,2
 100a6f6:	c82a                	sw	a0,16(sp)
 100a6f8:	cb4fa0ef          	jal	ra,1004bac <QSPI_ReadFlashData>
 100a6fc:	00c14783          	lbu	a5,12(sp)
 100a700:	00d14583          	lbu	a1,13(sp)
 100a704:	0100f537          	lui	a0,0x100f
 100a708:	07a2                	slli	a5,a5,0x8
 100a70a:	95be                	add	a1,a1,a5
 100a70c:	d2450513          	addi	a0,a0,-732 # 100ed24 <head_value_buf+0x14>
 100a710:	848f70ef          	jal	ra,1001758 <print_string_log>
 100a714:	00c14783          	lbu	a5,12(sp)
 100a718:	00d14703          	lbu	a4,13(sp)
 100a71c:	07a2                	slli	a5,a5,0x8
 100a71e:	97ba                	add	a5,a5,a4
 100a720:	670d                	lui	a4,0x3
 100a722:	52770713          	addi	a4,a4,1319 # 3527 <__EN_MIE-0xffcb57>
 100a726:	02e78c63          	beq	a5,a4,100a75e <SecretKey_Check+0xd6>
 100a72a:	6719                	lui	a4,0x6
 100a72c:	81570713          	addi	a4,a4,-2027 # 5815 <__EN_MIE-0xffa869>
 100a730:	02e78963          	beq	a5,a4,100a762 <SecretKey_Check+0xda>
 100a734:	6705                	lui	a4,0x1
 100a736:	22870713          	addi	a4,a4,552 # 1228 <__EN_MIE-0xffee56>
 100a73a:	4501                	li	a0,0
 100a73c:	00e79e63          	bne	a5,a4,100a758 <SecretKey_Check+0xd0>
 100a740:	1814                	addi	a3,sp,48
 100a742:	4631                	li	a2,12
 100a744:	85a2                	mv	a1,s0
 100a746:	3fb010ef          	jal	ra,100c340 <SecretKey_Generate>
 100a74a:	4641                	li	a2,16
 100a74c:	180c                	addi	a1,sp,48
 100a74e:	1008                	addi	a0,sp,32
 100a750:	394020ef          	jal	ra,100cae4 <memcmp>
 100a754:	00153513          	seqz	a0,a0
 100a758:	6121                	addi	sp,sp,64
 100a75a:	3420206f          	j	100ca9c <__riscv_restore_0>
 100a75e:	4505                	li	a0,1
 100a760:	b7c5                	j	100a740 <SecretKey_Check+0xb8>
 100a762:	4509                	li	a0,2
 100a764:	bff1                	j	100a740 <SecretKey_Check+0xb8>

0100a766 <set_app_rpt_timeout_type>:
set_app_rpt_timeout_type():
 100a766:	10011737          	lui	a4,0x10011
 100a76a:	c0474783          	lbu	a5,-1020(a4) # 10010c04 <app_rpt_timeout_type>
 100a76e:	8d5d                	or	a0,a0,a5
 100a770:	c0a70223          	sb	a0,-1020(a4)
 100a774:	8082                	ret

0100a776 <clr_app_rpt_timeout_type>:
clr_app_rpt_timeout_type():
 100a776:	100117b7          	lui	a5,0x10011
 100a77a:	c047c703          	lbu	a4,-1020(a5) # 10010c04 <app_rpt_timeout_type>
 100a77e:	fff54513          	not	a0,a0
 100a782:	8d79                	and	a0,a0,a4
 100a784:	c0a78223          	sb	a0,-1020(a5)
 100a788:	8082                	ret

0100a78a <get_voice_key_state>:
get_voice_key_state():
 100a78a:	100117b7          	lui	a5,0x10011
 100a78e:	be87c783          	lbu	a5,-1048(a5) # 10010be8 <key_pressed_num>
 100a792:	4505                	li	a0,1
 100a794:	02a79c63          	bne	a5,a0,100a7cc <get_voice_key_state+0x42>
 100a798:	10011737          	lui	a4,0x10011
 100a79c:	bea74703          	lbu	a4,-1046(a4) # 10010bea <keynum>
 100a7a0:	4699                	li	a3,6
 100a7a2:	0100f7b7          	lui	a5,0x100f
 100a7a6:	02d70733          	mul	a4,a4,a3
 100a7aa:	a6878793          	addi	a5,a5,-1432 # 100ea68 <KeyBuf>
 100a7ae:	4501                	li	a0,0
 100a7b0:	97ba                	add	a5,a5,a4
 100a7b2:	0007c783          	lbu	a5,0(a5)
 100a7b6:	08b00713          	li	a4,139
 100a7ba:	00e78963          	beq	a5,a4,100a7cc <get_voice_key_state+0x42>
 100a7be:	4715                	li	a4,5
 100a7c0:	00e78663          	beq	a5,a4,100a7cc <get_voice_key_state+0x42>
 100a7c4:	ff478513          	addi	a0,a5,-12
 100a7c8:	00a03533          	snez	a0,a0
 100a7cc:	8082                	ret

0100a7ce <get_voice_key_rel_state>:
get_voice_key_rel_state():
 100a7ce:	10011737          	lui	a4,0x10011
 100a7d2:	bea74703          	lbu	a4,-1046(a4) # 10010bea <keynum>
 100a7d6:	4699                	li	a3,6
 100a7d8:	0100f7b7          	lui	a5,0x100f
 100a7dc:	02d70733          	mul	a4,a4,a3
 100a7e0:	a6878793          	addi	a5,a5,-1432 # 100ea68 <KeyBuf>
 100a7e4:	4501                	li	a0,0
 100a7e6:	97ba                	add	a5,a5,a4
 100a7e8:	0007c783          	lbu	a5,0(a5)
 100a7ec:	08b00713          	li	a4,139
 100a7f0:	00e78863          	beq	a5,a4,100a800 <get_voice_key_rel_state+0x32>
 100a7f4:	4715                	li	a4,5
 100a7f6:	00e78563          	beq	a5,a4,100a800 <get_voice_key_rel_state+0x32>
 100a7fa:	17d1                	addi	a5,a5,-12
 100a7fc:	00f03533          	snez	a0,a5
 100a800:	8082                	ret

0100a802 <get_cur_type>:
get_cur_type():
 100a802:	100117b7          	lui	a5,0x10011
 100a806:	c057c503          	lbu	a0,-1019(a5) # 10010c05 <tv_type_state>
 100a80a:	156d                	addi	a0,a0,-5
 100a80c:	00a03533          	snez	a0,a0
 100a810:	8082                	ret

0100a812 <get_audio_frame_seq>:
get_audio_frame_seq():
 100a812:	100117b7          	lui	a5,0x10011
 100a816:	c067c503          	lbu	a0,-1018(a5) # 10010c06 <audio_frame_seq>
 100a81a:	00150713          	addi	a4,a0,1
 100a81e:	c0e78323          	sb	a4,-1018(a5)
 100a822:	8082                	ret

0100a824 <get_audio_keyvalue>:
get_audio_keyvalue():
 100a824:	254022ef          	jal	t0,100ca78 <__riscv_save_0>
 100a828:	57fd                	li	a5,-1
 100a82a:	00f50023          	sb	a5,0(a0)
 100a82e:	842a                	mv	s0,a0
 100a830:	f5bff0ef          	jal	ra,100a78a <get_voice_key_state>
 100a834:	02051463          	bnez	a0,100a85c <get_audio_keyvalue+0x38>
 100a838:	10011737          	lui	a4,0x10011
 100a83c:	bea74703          	lbu	a4,-1046(a4) # 10010bea <keynum>
 100a840:	4699                	li	a3,6
 100a842:	0100f7b7          	lui	a5,0x100f
 100a846:	02d70733          	mul	a4,a4,a3
 100a84a:	a6878793          	addi	a5,a5,-1432 # 100ea68 <KeyBuf>
 100a84e:	97ba                	add	a5,a5,a4
 100a850:	0007c783          	lbu	a5,0(a5)
 100a854:	00f40023          	sb	a5,0(s0)
 100a858:	2440206f          	j	100ca9c <__riscv_restore_0>
 100a85c:	4505                	li	a0,1
 100a85e:	bfed                	j	100a858 <get_audio_keyvalue+0x34>

0100a860 <get_keyvalue>:
get_keyvalue():
 100a860:	57fd                	li	a5,-1
 100a862:	00f50023          	sb	a5,0(a0)
 100a866:	100117b7          	lui	a5,0x10011
 100a86a:	be87c703          	lbu	a4,-1048(a5) # 10010be8 <key_pressed_num>
 100a86e:	4785                	li	a5,1
 100a870:	02f71463          	bne	a4,a5,100a898 <get_keyvalue+0x38>
 100a874:	10011737          	lui	a4,0x10011
 100a878:	bea74703          	lbu	a4,-1046(a4) # 10010bea <keynum>
 100a87c:	4699                	li	a3,6
 100a87e:	0100f7b7          	lui	a5,0x100f
 100a882:	02d70733          	mul	a4,a4,a3
 100a886:	a6878793          	addi	a5,a5,-1432 # 100ea68 <KeyBuf>
 100a88a:	97ba                	add	a5,a5,a4
 100a88c:	0007c783          	lbu	a5,0(a5)
 100a890:	00f50023          	sb	a5,0(a0)
 100a894:	4501                	li	a0,0
 100a896:	8082                	ret
 100a898:	4505                	li	a0,1
 100a89a:	8082                	ret

0100a89c <update_voice_packet>:
update_voice_packet():
 100a89c:	10050763          	beqz	a0,100a9aa <update_voice_packet+0x10e>
 100a8a0:	1d8022ef          	jal	t0,100ca78 <__riscv_save_0>
 100a8a4:	10011937          	lui	s2,0x10011
 100a8a8:	c0794783          	lbu	a5,-1017(s2) # 10010c07 <app_pkt_type>
 100a8ac:	4485                	li	s1,1
 100a8ae:	1141                	addi	sp,sp,-16
 100a8b0:	842a                	mv	s0,a0
 100a8b2:	08979463          	bne	a5,s1,100a93a <update_voice_packet+0x9e>
 100a8b6:	f5dff0ef          	jal	ra,100a812 <get_audio_frame_seq>
 100a8ba:	00a40123          	sb	a0,2(s0)
 100a8be:	00f10513          	addi	a0,sp,15
 100a8c2:	f63ff0ef          	jal	ra,100a824 <get_audio_keyvalue>
 100a8c6:	06051563          	bnez	a0,100a930 <update_voice_packet+0x94>
 100a8ca:	f39ff0ef          	jal	ra,100a802 <get_cur_type>
 100a8ce:	06050163          	beqz	a0,100a930 <update_voice_packet+0x94>
 100a8d2:	f8000793          	li	a5,-128
 100a8d6:	00f401a3          	sb	a5,3(s0)
 100a8da:	00f14783          	lbu	a5,15(sp)
 100a8de:	00f40223          	sb	a5,4(s0)
 100a8e2:	100117b7          	lui	a5,0x10011
 100a8e6:	c067c783          	lbu	a5,-1018(a5) # 10010c06 <audio_frame_seq>
 100a8ea:	0100f737          	lui	a4,0x100f
 100a8ee:	d3870713          	addi	a4,a4,-712 # 100ed38 <msbc_flag_buf>
 100a8f2:	8b85                	andi	a5,a5,1
 100a8f4:	973e                	add	a4,a4,a5
 100a8f6:	00074703          	lbu	a4,0(a4)
 100a8fa:	4685                	li	a3,1
 100a8fc:	00d402a3          	sb	a3,5(s0)
 100a900:	00e40323          	sb	a4,6(s0)
 100a904:	04040023          	sb	zero,64(s0)
 100a908:	04d400a3          	sb	a3,65(s0)
 100a90c:	0100f737          	lui	a4,0x100f
 100a910:	d3c70713          	addi	a4,a4,-708 # 100ed3c <msbc_flag_buf1>
 100a914:	97ba                	add	a5,a5,a4
 100a916:	0007c783          	lbu	a5,0(a5)
 100a91a:	06040e23          	sb	zero,124(s0)
 100a91e:	04f40123          	sb	a5,66(s0)
 100a922:	cb1ff0ef          	jal	ra,100a5d2 <get_VoiceHandle>
 100a926:	00a40023          	sb	a0,0(s0)
 100a92a:	07b00793          	li	a5,123
 100a92e:	a80d                	j	100a960 <update_voice_packet+0xc4>
 100a930:	000401a3          	sb	zero,3(s0)
 100a934:	00040223          	sb	zero,4(s0)
 100a938:	b76d                	j	100a8e2 <update_voice_packet+0x46>
 100a93a:	4709                	li	a4,2
 100a93c:	02e79763          	bne	a5,a4,100a96a <update_voice_packet+0xce>
 100a940:	100115b7          	lui	a1,0x10011
 100a944:	464d                	li	a2,19
 100a946:	bf058593          	addi	a1,a1,-1040 # 10010bf0 <usr_axis_key_buf>
 100a94a:	0509                	addi	a0,a0,2
 100a94c:	1be020ef          	jal	ra,100cb0a <memcpy>
 100a950:	478d                	li	a5,3
 100a952:	c0f903a3          	sb	a5,-1017(s2)
 100a956:	02200793          	li	a5,34
 100a95a:	00f40023          	sb	a5,0(s0)
 100a95e:	47cd                	li	a5,19
 100a960:	00f400a3          	sb	a5,1(s0)
 100a964:	0141                	addi	sp,sp,16
 100a966:	1360206f          	j	100ca9c <__riscv_restore_0>
 100a96a:	470d                	li	a4,3
 100a96c:	fee79ce3          	bne	a5,a4,100a964 <update_voice_packet+0xc8>
 100a970:	ea3ff0ef          	jal	ra,100a812 <get_audio_frame_seq>
 100a974:	100117b7          	lui	a5,0x10011
 100a978:	c067c783          	lbu	a5,-1018(a5) # 10010c06 <audio_frame_seq>
 100a97c:	0100f737          	lui	a4,0x100f
 100a980:	d3870713          	addi	a4,a4,-712 # 100ed38 <msbc_flag_buf>
 100a984:	8b85                	andi	a5,a5,1
 100a986:	973e                	add	a4,a4,a5
 100a988:	00074703          	lbu	a4,0(a4)
 100a98c:	00a40123          	sb	a0,2(s0)
 100a990:	000401a3          	sb	zero,3(s0)
 100a994:	00040223          	sb	zero,4(s0)
 100a998:	009402a3          	sb	s1,5(s0)
 100a99c:	00e40323          	sb	a4,6(s0)
 100a9a0:	04040023          	sb	zero,64(s0)
 100a9a4:	049400a3          	sb	s1,65(s0)
 100a9a8:	b795                	j	100a90c <update_voice_packet+0x70>
 100a9aa:	8082                	ret

0100a9ac <auto_calibration_axis>:
auto_calibration_axis():
 100a9ac:	26050763          	beqz	a0,100ac1a <auto_calibration_axis+0x26e>
 100a9b0:	26058563          	beqz	a1,100ac1a <auto_calibration_axis+0x26e>
 100a9b4:	26060363          	beqz	a2,100ac1a <auto_calibration_axis+0x26e>
 100a9b8:	0c0022ef          	jal	t0,100ca78 <__riscv_save_0>
 100a9bc:	10011737          	lui	a4,0x10011
 100a9c0:	c0870713          	addi	a4,a4,-1016 # 10010c08 <acc_pre>
 100a9c4:	00275883          	lhu	a7,2(a4)
 100a9c8:	84b2                	mv	s1,a2
 100a9ca:	00251603          	lh	a2,2(a0)
 100a9ce:	842e                	mv	s0,a1
 100a9d0:	00451683          	lh	a3,4(a0)
 100a9d4:	00051583          	lh	a1,0(a0)
 100a9d8:	00075783          	lhu	a5,0(a4)
 100a9dc:	00475803          	lhu	a6,4(a4)
 100a9e0:	411608b3          	sub	a7,a2,a7
 100a9e4:	00c71123          	sh	a2,2(a4)
 100a9e8:	10011637          	lui	a2,0x10011
 100a9ec:	c1060613          	addi	a2,a2,-1008 # 10010c10 <gyro_pre>
 100a9f0:	00441303          	lh	t1,4(s0)
 100a9f4:	40f587b3          	sub	a5,a1,a5
 100a9f8:	00b71023          	sh	a1,0(a4)
 100a9fc:	00d71223          	sh	a3,4(a4)
 100aa00:	00465703          	lhu	a4,4(a2)
 100aa04:	00065503          	lhu	a0,0(a2)
 100aa08:	41068833          	sub	a6,a3,a6
 100aa0c:	00041583          	lh	a1,0(s0)
 100aa10:	00265683          	lhu	a3,2(a2)
 100aa14:	00241e83          	lh	t4,2(s0)
 100aa18:	07c2                	slli	a5,a5,0x10
 100aa1a:	83c1                	srli	a5,a5,0x10
 100aa1c:	40e30733          	sub	a4,t1,a4
 100aa20:	00661223          	sh	t1,4(a2)
 100aa24:	04f78313          	addi	t1,a5,79
 100aa28:	40a58533          	sub	a0,a1,a0
 100aa2c:	40de86b3          	sub	a3,t4,a3
 100aa30:	0342                	slli	t1,t1,0x10
 100aa32:	01079e13          	slli	t3,a5,0x10
 100aa36:	08c2                	slli	a7,a7,0x10
 100aa38:	0842                	slli	a6,a6,0x10
 100aa3a:	0542                	slli	a0,a0,0x10
 100aa3c:	06c2                	slli	a3,a3,0x10
 100aa3e:	0742                	slli	a4,a4,0x10
 100aa40:	00b61023          	sh	a1,0(a2)
 100aa44:	01d61123          	sh	t4,2(a2)
 100aa48:	01035313          	srli	t1,t1,0x10
 100aa4c:	09e00793          	li	a5,158
 100aa50:	410e5e13          	srai	t3,t3,0x10
 100aa54:	0108d893          	srli	a7,a7,0x10
 100aa58:	01085813          	srli	a6,a6,0x10
 100aa5c:	8141                	srli	a0,a0,0x10
 100aa5e:	82c1                	srli	a3,a3,0x10
 100aa60:	8341                	srli	a4,a4,0x10
 100aa62:	10011637          	lui	a2,0x10011
 100aa66:	10011937          	lui	s2,0x10011
 100aa6a:	0467e763          	bltu	a5,t1,100aab8 <auto_calibration_axis+0x10c>
 100aa6e:	04f88313          	addi	t1,a7,79
 100aa72:	0342                	slli	t1,t1,0x10
 100aa74:	01035313          	srli	t1,t1,0x10
 100aa78:	0467e063          	bltu	a5,t1,100aab8 <auto_calibration_axis+0x10c>
 100aa7c:	04f80313          	addi	t1,a6,79
 100aa80:	0342                	slli	t1,t1,0x10
 100aa82:	01035313          	srli	t1,t1,0x10
 100aa86:	0267e963          	bltu	a5,t1,100aab8 <auto_calibration_axis+0x10c>
 100aa8a:	0db50313          	addi	t1,a0,219
 100aa8e:	0342                	slli	t1,t1,0x10
 100aa90:	01035313          	srli	t1,t1,0x10
 100aa94:	1b600793          	li	a5,438
 100aa98:	0267e063          	bltu	a5,t1,100aab8 <auto_calibration_axis+0x10c>
 100aa9c:	0db68313          	addi	t1,a3,219
 100aaa0:	0342                	slli	t1,t1,0x10
 100aaa2:	01035313          	srli	t1,t1,0x10
 100aaa6:	0067e963          	bltu	a5,t1,100aab8 <auto_calibration_axis+0x10c>
 100aaaa:	0db70313          	addi	t1,a4,219
 100aaae:	0342                	slli	t1,t1,0x10
 100aab0:	01035313          	srli	t1,t1,0x10
 100aab4:	0667ff63          	bgeu	a5,t1,100ab32 <auto_calibration_axis+0x186>
 100aab8:	41fe5313          	srai	t1,t3,0x1f
 100aabc:	01c347b3          	xor	a5,t1,t3
 100aac0:	406787b3          	sub	a5,a5,t1
 100aac4:	5dc00313          	li	t1,1500
 100aac8:	14f35663          	bge	t1,a5,100ac14 <auto_calibration_axis+0x268>
 100aacc:	01089793          	slli	a5,a7,0x10
 100aad0:	87c1                	srai	a5,a5,0x10
 100aad2:	41f7d893          	srai	a7,a5,0x1f
 100aad6:	00f8c7b3          	xor	a5,a7,a5
 100aada:	411787b3          	sub	a5,a5,a7
 100aade:	12f35b63          	bge	t1,a5,100ac14 <auto_calibration_axis+0x268>
 100aae2:	01081793          	slli	a5,a6,0x10
 100aae6:	87c1                	srai	a5,a5,0x10
 100aae8:	41f7d813          	srai	a6,a5,0x1f
 100aaec:	00f847b3          	xor	a5,a6,a5
 100aaf0:	410787b3          	sub	a5,a5,a6
 100aaf4:	12f35063          	bge	t1,a5,100ac14 <auto_calibration_axis+0x268>
 100aaf8:	01051793          	slli	a5,a0,0x10
 100aafc:	87c1                	srai	a5,a5,0x10
 100aafe:	41f7d513          	srai	a0,a5,0x1f
 100ab02:	8fa9                	xor	a5,a5,a0
 100ab04:	8f89                	sub	a5,a5,a0
 100ab06:	3e800513          	li	a0,1000
 100ab0a:	10f55563          	bge	a0,a5,100ac14 <auto_calibration_axis+0x268>
 100ab0e:	01069793          	slli	a5,a3,0x10
 100ab12:	87c1                	srai	a5,a5,0x10
 100ab14:	41f7d693          	srai	a3,a5,0x1f
 100ab18:	8fb5                	xor	a5,a5,a3
 100ab1a:	8f95                	sub	a5,a5,a3
 100ab1c:	0ef55c63          	bge	a0,a5,100ac14 <auto_calibration_axis+0x268>
 100ab20:	01071793          	slli	a5,a4,0x10
 100ab24:	87c1                	srai	a5,a5,0x10
 100ab26:	41f7d713          	srai	a4,a5,0x1f
 100ab2a:	8fb9                	xor	a5,a5,a4
 100ab2c:	8f99                	sub	a5,a5,a4
 100ab2e:	0ef55363          	bge	a0,a5,100ac14 <auto_calibration_axis+0x268>
 100ab32:	c0364703          	lbu	a4,-1021(a2) # 10010c03 <auto_cnt>
 100ab36:	06400793          	li	a5,100
 100ab3a:	0ce7fd63          	bgeu	a5,a4,100ac14 <auto_calibration_axis+0x268>
 100ab3e:	c1694703          	lbu	a4,-1002(s2) # 10010c16 <cnt>
 100ab42:	c00601a3          	sb	zero,-1021(a2)
 100ab46:	4619                	li	a2,6
 100ab48:	02c70633          	mul	a2,a4,a2
 100ab4c:	100117b7          	lui	a5,0x10011
 100ab50:	c1878693          	addi	a3,a5,-1000 # 10010c18 <gyro_raw_buf>
 100ab54:	96b2                	add	a3,a3,a2
 100ab56:	00b69023          	sh	a1,0(a3)
 100ab5a:	00241603          	lh	a2,2(s0)
 100ab5e:	00c69123          	sh	a2,2(a3)
 100ab62:	00441603          	lh	a2,4(s0)
 100ab66:	00c69223          	sh	a2,4(a3)
 100ab6a:	46c9                	li	a3,18
 100ab6c:	06e6f563          	bgeu	a3,a4,100abd6 <auto_calibration_axis+0x22a>
 100ab70:	c1878793          	addi	a5,a5,-1000
 100ab74:	07878713          	addi	a4,a5,120
 100ab78:	4681                	li	a3,0
 100ab7a:	4601                	li	a2,0
 100ab7c:	4581                	li	a1,0
 100ab7e:	00079503          	lh	a0,0(a5)
 100ab82:	0799                	addi	a5,a5,6
 100ab84:	95aa                	add	a1,a1,a0
 100ab86:	ffc79503          	lh	a0,-4(a5)
 100ab8a:	962a                	add	a2,a2,a0
 100ab8c:	ffe79503          	lh	a0,-2(a5)
 100ab90:	96aa                	add	a3,a3,a0
 100ab92:	fef716e3          	bne	a4,a5,100ab7e <auto_calibration_axis+0x1d2>
 100ab96:	4751                	li	a4,20
 100ab98:	02e5c5b3          	div	a1,a1,a4
 100ab9c:	100117b7          	lui	a5,0x10011
 100aba0:	0100f537          	lui	a0,0x100f
 100aba4:	c9078793          	addi	a5,a5,-880 # 10010c90 <gyro_offset>
 100aba8:	d4050513          	addi	a0,a0,-704 # 100ed40 <msbc_flag_buf1+0x4>
 100abac:	02e64633          	div	a2,a2,a4
 100abb0:	05c2                	slli	a1,a1,0x10
 100abb2:	85c1                	srai	a1,a1,0x10
 100abb4:	00b79023          	sh	a1,0(a5)
 100abb8:	02e6c6b3          	div	a3,a3,a4
 100abbc:	0642                	slli	a2,a2,0x10
 100abbe:	8641                	srai	a2,a2,0x10
 100abc0:	00c79123          	sh	a2,2(a5)
 100abc4:	06c2                	slli	a3,a3,0x10
 100abc6:	86c1                	srai	a3,a3,0x10
 100abc8:	00d79223          	sh	a3,4(a5)
 100abcc:	b8df60ef          	jal	ra,1001758 <print_string_log>
 100abd0:	c0090b23          	sb	zero,-1002(s2)
 100abd4:	a021                	j	100abdc <auto_calibration_axis+0x230>
 100abd6:	0705                	addi	a4,a4,1
 100abd8:	c0e90b23          	sb	a4,-1002(s2)
 100abdc:	100117b7          	lui	a5,0x10011
 100abe0:	c9078793          	addi	a5,a5,-880 # 10010c90 <gyro_offset>
 100abe4:	00045703          	lhu	a4,0(s0)
 100abe8:	0007d683          	lhu	a3,0(a5)
 100abec:	8f15                	sub	a4,a4,a3
 100abee:	00e49023          	sh	a4,0(s1)
 100abf2:	00245703          	lhu	a4,2(s0)
 100abf6:	0027d683          	lhu	a3,2(a5)
 100abfa:	0047d783          	lhu	a5,4(a5)
 100abfe:	8f15                	sub	a4,a4,a3
 100ac00:	00e49123          	sh	a4,2(s1)
 100ac04:	00445703          	lhu	a4,4(s0)
 100ac08:	40f707b3          	sub	a5,a4,a5
 100ac0c:	00f49223          	sh	a5,4(s1)
 100ac10:	68d0106f          	j	100ca9c <__riscv_restore_0>
 100ac14:	c00601a3          	sb	zero,-1021(a2)
 100ac18:	bf65                	j	100abd0 <auto_calibration_axis+0x224>
 100ac1a:	8082                	ret

0100ac1c <update_axis_2_usr_data>:
update_axis_2_usr_data():
 100ac1c:	643012ef          	jal	t0,100ca5e <__riscv_save_4>
 100ac20:	7179                	addi	sp,sp,-48
 100ac22:	0030                	addi	a2,sp,8
 100ac24:	f622                	fsw	fs0,44(sp)
 100ac26:	f426                	fsw	fs1,40(sp)
 100ac28:	f24a                	fsw	fs2,36(sp)
 100ac2a:	f04e                	fsw	fs3,32(sp)
 100ac2c:	ee52                	fsw	fs4,28(sp)
 100ac2e:	ec56                	fsw	fs5,24(sp)
 100ac30:	892a                	mv	s2,a0
 100ac32:	d7bff0ef          	jal	ra,100a9ac <auto_calibration_axis>
 100ac36:	00091683          	lh	a3,0(s2)
 100ac3a:	d006f953          	fcvt.s.w	fs2,a3
 100ac3e:	c3dfe0ef          	jal	ra,100987a <get_acc_lsb_div>
 100ac42:	00291703          	lh	a4,2(s2)
 100ac46:	84aa                	mv	s1,a0
 100ac48:	d00774d3          	fcvt.s.w	fs1,a4
 100ac4c:	c2ffe0ef          	jal	ra,100987a <get_acc_lsb_div>
 100ac50:	00491783          	lh	a5,4(s2)
 100ac54:	842a                	mv	s0,a0
 100ac56:	d007f453          	fcvt.s.w	fs0,a5
 100ac5a:	c21fe0ef          	jal	ra,100987a <get_acc_lsb_div>
 100ac5e:	00811703          	lh	a4,8(sp)
 100ac62:	89aa                	mv	s3,a0
 100ac64:	d0077ad3          	fcvt.s.w	fs5,a4
 100ac68:	c1dfe0ef          	jal	ra,1009884 <get_gyro_lsb_div>
 100ac6c:	00a11783          	lh	a5,10(sp)
 100ac70:	8a2a                	mv	s4,a0
 100ac72:	d007fa53          	fcvt.s.w	fs4,a5
 100ac76:	c0ffe0ef          	jal	ra,1009884 <get_gyro_lsb_div>
 100ac7a:	00c11783          	lh	a5,12(sp)
 100ac7e:	892a                	mv	s2,a0
 100ac80:	d007f9d3          	fcvt.s.w	fs3,a5
 100ac84:	c01fe0ef          	jal	ra,1009884 <get_gyro_lsb_div>
 100ac88:	0100f7b7          	lui	a5,0x100f
 100ac8c:	a507a787          	flw	fa5,-1456(a5) # 100ea50 <sbc_enc_as16Offset8+0x118>
 100ac90:	d0097653          	fcvt.s.w	fa2,s2
 100ac94:	d00a75d3          	fcvt.s.w	fa1,s4
 100ac98:	0100f7b7          	lui	a5,0x100f
 100ac9c:	18c7f653          	fdiv.s	fa2,fa5,fa2
 100aca0:	13c7a687          	flw	fa3,316(a5) # 100f13c <unknow_1byte_17_2_rsp+0x200>
 100aca4:	0100f7b7          	lui	a5,0x100f
 100aca8:	1407a707          	flw	fa4,320(a5) # 100f140 <unknow_1byte_17_2_rsp+0x204>
 100acac:	10011637          	lui	a2,0x10011
 100acb0:	bf060613          	addi	a2,a2,-1040 # 10010bf0 <usr_axis_key_buf>
 100acb4:	18b7f5d3          	fdiv.s	fa1,fa5,fa1
 100acb8:	11467653          	fmul.s	fa2,fa2,fs4
 100acbc:	10d67653          	fmul.s	fa2,fa2,fa3
 100acc0:	10e67653          	fmul.s	fa2,fa2,fa4
 100acc4:	c00617d3          	fcvt.w.s	a5,fa2,rtz
 100acc8:	d0057653          	fcvt.s.w	fa2,a0
 100accc:	1155f5d3          	fmul.s	fa1,fa1,fs5
 100acd0:	18c7f653          	fdiv.s	fa2,fa5,fa2
 100acd4:	10d5f5d3          	fmul.s	fa1,fa1,fa3
 100acd8:	10e5f5d3          	fmul.s	fa1,fa1,fa4
 100acdc:	c0059753          	fcvt.w.s	a4,fa1,rtz
 100ace0:	00871693          	slli	a3,a4,0x8
 100ace4:	0742                	slli	a4,a4,0x10
 100ace6:	8341                	srli	a4,a4,0x10
 100ace8:	8321                	srli	a4,a4,0x8
 100acea:	8f55                	or	a4,a4,a3
 100acec:	00e61223          	sh	a4,4(a2)
 100acf0:	00879713          	slli	a4,a5,0x8
 100acf4:	07c2                	slli	a5,a5,0x10
 100acf6:	83c1                	srli	a5,a5,0x10
 100acf8:	83a1                	srli	a5,a5,0x8
 100acfa:	8fd9                	or	a5,a5,a4
 100acfc:	11367653          	fmul.s	fa2,fa2,fs3
 100ad00:	00f61323          	sh	a5,6(a2)
 100ad04:	0100f7b7          	lui	a5,0x100f
 100ad08:	1447a687          	flw	fa3,324(a5) # 100f144 <unknow_1byte_17_2_rsp+0x208>
 100ad0c:	10d67653          	fmul.s	fa2,fa2,fa3
 100ad10:	d004f6d3          	fcvt.s.w	fa3,s1
 100ad14:	18d7f6d3          	fdiv.s	fa3,fa5,fa3
 100ad18:	10e67653          	fmul.s	fa2,fa2,fa4
 100ad1c:	d0047753          	fcvt.s.w	fa4,s0
 100ad20:	c00617d3          	fcvt.w.s	a5,fa2,rtz
 100ad24:	00879713          	slli	a4,a5,0x8
 100ad28:	07c2                	slli	a5,a5,0x10
 100ad2a:	83c1                	srli	a5,a5,0x10
 100ad2c:	83a1                	srli	a5,a5,0x8
 100ad2e:	8fd9                	or	a5,a5,a4
 100ad30:	00f61423          	sh	a5,8(a2)
 100ad34:	0100f7b7          	lui	a5,0x100f
 100ad38:	1487a587          	flw	fa1,328(a5) # 100f148 <unknow_1byte_17_2_rsp+0x20c>
 100ad3c:	0100f7b7          	lui	a5,0x100f
 100ad40:	14c7a607          	flw	fa2,332(a5) # 100f14c <unknow_1byte_17_2_rsp+0x210>
 100ad44:	18e7f753          	fdiv.s	fa4,fa5,fa4
 100ad48:	1126f6d3          	fmul.s	fa3,fa3,fs2
 100ad4c:	10b6f6d3          	fmul.s	fa3,fa3,fa1
 100ad50:	10c6f6d3          	fmul.s	fa3,fa3,fa2
 100ad54:	c00696d3          	fcvt.w.s	a3,fa3,rtz
 100ad58:	00869793          	slli	a5,a3,0x8
 100ad5c:	10977753          	fmul.s	fa4,fa4,fs1
 100ad60:	06c2                	slli	a3,a3,0x10
 100ad62:	82c1                	srli	a3,a3,0x10
 100ad64:	82a1                	srli	a3,a3,0x8
 100ad66:	8edd                	or	a3,a3,a5
 100ad68:	10b77753          	fmul.s	fa4,fa4,fa1
 100ad6c:	00d61523          	sh	a3,10(a2)
 100ad70:	10c77753          	fmul.s	fa4,fa4,fa2
 100ad74:	c0071753          	fcvt.w.s	a4,fa4,rtz
 100ad78:	d009f753          	fcvt.s.w	fa4,s3
 100ad7c:	00871793          	slli	a5,a4,0x8
 100ad80:	18e7f7d3          	fdiv.s	fa5,fa5,fa4
 100ad84:	0742                	slli	a4,a4,0x10
 100ad86:	8341                	srli	a4,a4,0x10
 100ad88:	8321                	srli	a4,a4,0x8
 100ad8a:	8f5d                	or	a4,a4,a5
 100ad8c:	0100f7b7          	lui	a5,0x100f
 100ad90:	1507a707          	flw	fa4,336(a5) # 100f150 <unknow_1byte_17_2_rsp+0x214>
 100ad94:	00e61623          	sh	a4,12(a2)
 100ad98:	1087f7d3          	fmul.s	fa5,fa5,fs0
 100ad9c:	10e7f7d3          	fmul.s	fa5,fa5,fa4
 100ada0:	10c7f7d3          	fmul.s	fa5,fa5,fa2
 100ada4:	c00797d3          	fcvt.w.s	a5,fa5,rtz
 100ada8:	00879713          	slli	a4,a5,0x8
 100adac:	07c2                	slli	a5,a5,0x10
 100adae:	83c1                	srli	a5,a5,0x10
 100adb0:	83a1                	srli	a5,a5,0x8
 100adb2:	8fd9                	or	a5,a5,a4
 100adb4:	00f61723          	sh	a5,14(a2)
 100adb8:	7432                	flw	fs0,44(sp)
 100adba:	74a2                	flw	fs1,40(sp)
 100adbc:	7912                	flw	fs2,36(sp)
 100adbe:	7982                	flw	fs3,32(sp)
 100adc0:	6a72                	flw	fs4,28(sp)
 100adc2:	6ae2                	flw	fs5,24(sp)
 100adc4:	6145                	addi	sp,sp,48
 100adc6:	4cd0106f          	j	100ca92 <__riscv_restore_4>

0100adca <get_frame_len>:
get_frame_len():
 100adca:	4af012ef          	jal	t0,100ca78 <__riscv_save_0>
 100adce:	842a                	mv	s0,a0
 100add0:	6af010ef          	jal	ra,100cc7e <rand>
 100add4:	12d00693          	li	a3,301
 100add8:	02d56533          	rem	a0,a0,a3
 100addc:	100106b7          	lui	a3,0x10010
 100ade0:	05c68693          	addi	a3,a3,92 # 1001005c <head_buf>
 100ade4:	4649                	li	a2,18
 100ade6:	0100f737          	lui	a4,0x100f
 100adea:	0100f7b7          	lui	a5,0x100f
 100adee:	d1070713          	addi	a4,a4,-752 # 100ed10 <head_value_buf>
 100adf2:	be078793          	addi	a5,a5,-1056 # 100ebe0 <head_freq_buf>
 100adf6:	96aa                	add	a3,a3,a0
 100adf8:	0006c683          	lbu	a3,0(a3)
 100adfc:	97aa                	add	a5,a5,a0
 100adfe:	0007c503          	lbu	a0,0(a5)
 100ae02:	02c6f6b3          	remu	a3,a3,a2
 100ae06:	9736                	add	a4,a4,a3
 100ae08:	00074703          	lbu	a4,0(a4)
 100ae0c:	00e40023          	sb	a4,0(s0)
 100ae10:	48d0106f          	j	100ca9c <__riscv_restore_0>

0100ae14 <update_frm_head>:
update_frm_head():
 100ae14:	465012ef          	jal	t0,100ca78 <__riscv_save_0>
 100ae18:	10011437          	lui	s0,0x10011
 100ae1c:	c9644783          	lbu	a5,-874(s0) # 10010c96 <hstep>
 100ae20:	100114b7          	lui	s1,0x10011
 100ae24:	02079863          	bnez	a5,100ae54 <update_frm_head+0x40>
 100ae28:	c9848513          	addi	a0,s1,-872 # 10010c98 <htag>
 100ae2c:	f9fff0ef          	jal	ra,100adca <get_frame_len>
 100ae30:	100117b7          	lui	a5,0x10011
 100ae34:	157d                	addi	a0,a0,-1
 100ae36:	c8a78ba3          	sb	a0,-873(a5) # 10010c97 <hcnt>
 100ae3a:	c9644783          	lbu	a5,-874(s0)
 100ae3e:	0785                	addi	a5,a5,1
 100ae40:	c8f40b23          	sb	a5,-874(s0)
 100ae44:	c984c703          	lbu	a4,-872(s1)
 100ae48:	100117b7          	lui	a5,0x10011
 100ae4c:	bee78823          	sb	a4,-1040(a5) # 10010bf0 <usr_axis_key_buf>
 100ae50:	44d0106f          	j	100ca9c <__riscv_restore_0>
 100ae54:	4705                	li	a4,1
 100ae56:	fee797e3          	bne	a5,a4,100ae44 <update_frm_head+0x30>
 100ae5a:	10011737          	lui	a4,0x10011
 100ae5e:	c9774783          	lbu	a5,-873(a4) # 10010c97 <hcnt>
 100ae62:	17fd                	addi	a5,a5,-1
 100ae64:	0ff7f793          	andi	a5,a5,255
 100ae68:	c8f70ba3          	sb	a5,-873(a4)
 100ae6c:	fc079ce3          	bnez	a5,100ae44 <update_frm_head+0x30>
 100ae70:	c8040b23          	sb	zero,-874(s0)
 100ae74:	bfc1                	j	100ae44 <update_frm_head+0x30>

0100ae76 <set_frame_seq_val>:
set_frame_seq_val():
 100ae76:	10011737          	lui	a4,0x10011
 100ae7a:	c9974783          	lbu	a5,-871(a4) # 10010c99 <frame_seq>
 100ae7e:	00178693          	addi	a3,a5,1
 100ae82:	c8d70ca3          	sb	a3,-871(a4)
 100ae86:	10011737          	lui	a4,0x10011
 100ae8a:	bef708a3          	sb	a5,-1039(a4) # 10010bf1 <usr_axis_key_buf+0x1>
 100ae8e:	8082                	ret

0100ae90 <set_kvcmd_state>:
set_kvcmd_state():
 100ae90:	10011737          	lui	a4,0x10011
 100ae94:	c9a74783          	lbu	a5,-870(a4) # 10010c9a <kv_cmd_state_value>
 100ae98:	8d5d                	or	a0,a0,a5
 100ae9a:	c8a70d23          	sb	a0,-870(a4)
 100ae9e:	8082                	ret

0100aea0 <clr_kvcmd_state>:
clr_kvcmd_state():
 100aea0:	100117b7          	lui	a5,0x10011
 100aea4:	c9a7c703          	lbu	a4,-870(a5) # 10010c9a <kv_cmd_state_value>
 100aea8:	fff54513          	not	a0,a0
 100aeac:	8d79                	and	a0,a0,a4
 100aeae:	c8a78d23          	sb	a0,-870(a5)
 100aeb2:	8082                	ret

0100aeb4 <get_encode_state>:
get_encode_state():
 100aeb4:	100117b7          	lui	a5,0x10011
 100aeb8:	ca17c703          	lbu	a4,-863(a5) # 10010ca1 <encode_chk_ok>
 100aebc:	0fe00513          	li	a0,254
 100aec0:	02070563          	beqz	a4,100aeea <get_encode_state+0x36>
 100aec4:	ca0780a3          	sb	zero,-863(a5)
 100aec8:	100107b7          	lui	a5,0x10010
 100aecc:	18e7c703          	lbu	a4,398(a5) # 1001018e <encode_chk_value>
 100aed0:	4505                	li	a0,1
 100aed2:	00070963          	beqz	a4,100aee4 <get_encode_state+0x30>
 100aed6:	4685                	li	a3,1
 100aed8:	0fe00513          	li	a0,254
 100aedc:	00d71463          	bne	a4,a3,100aee4 <get_encode_state+0x30>
 100aee0:	0ff00513          	li	a0,255
 100aee4:	5779                	li	a4,-2
 100aee6:	18e78723          	sb	a4,398(a5)
 100aeea:	8082                	ret

0100aeec <all_state_switch>:
all_state_switch():
 100aeec:	373012ef          	jal	t0,100ca5e <__riscv_save_4>
 100aef0:	1141                	addi	sp,sp,-16
 100aef2:	892a                	mv	s2,a0
 100aef4:	89ae                	mv	s3,a1
 100aef6:	952ff0ef          	jal	ra,100a048 <get_mouse_int_state>
 100aefa:	02051e63          	bnez	a0,100af36 <all_state_switch+0x4a>
 100aefe:	4585                	li	a1,1
 100af00:	4519                	li	a0,6
 100af02:	bedfb0ef          	jal	ra,1006aee <app_sleep_lock_set>
 100af06:	10011737          	lui	a4,0x10011
 100af0a:	c9f74783          	lbu	a5,-865(a4) # 10010c9f <moving_frst>
 100af0e:	02079a63          	bnez	a5,100af42 <all_state_switch+0x56>
 100af12:	4785                	li	a5,1
 100af14:	c8f70fa3          	sb	a5,-865(a4)
 100af18:	0100f537          	lui	a0,0x100f
 100af1c:	10011737          	lui	a4,0x10011
 100af20:	c8070ea3          	sb	zero,-867(a4) # 10010c9d <moving_press_2_init_state>
 100af24:	d5c50513          	addi	a0,a0,-676 # 100ed5c <msbc_flag_buf1+0x20>
 100af28:	10010737          	lui	a4,0x10010
 100af2c:	18f706a3          	sb	a5,397(a4) # 1001018d <axis_key_enable>
 100af30:	829f60ef          	jal	ra,1001758 <print_string_log>
 100af34:	a039                	j	100af42 <all_state_switch+0x56>
 100af36:	00f10513          	addi	a0,sp,15
 100af3a:	927ff0ef          	jal	ra,100a860 <get_keyvalue>
 100af3e:	fc0500e3          	beqz	a0,100aefe <all_state_switch+0x12>
 100af42:	9fafa0ef          	jal	ra,100513c <bt_check_le_connected>
 100af46:	00051663          	bnez	a0,100af52 <all_state_switch+0x66>
 100af4a:	4505                	li	a0,1
 100af4c:	0141                	addi	sp,sp,16
 100af4e:	3450106f          	j	100ca92 <__riscv_restore_4>
 100af52:	100104b7          	lui	s1,0x10010
 100af56:	18d4c783          	lbu	a5,397(s1) # 1001018d <axis_key_enable>
 100af5a:	fe0788e3          	beqz	a5,100af4a <all_state_switch+0x5e>
 100af5e:	100117b7          	lui	a5,0x10011
 100af62:	ca07ca03          	lbu	s4,-864(a5) # 10010ca0 <kv04_cmd_rpt_pkt_en>
 100af66:	020a0d63          	beqz	s4,100afa0 <all_state_switch+0xb4>
 100af6a:	ca078023          	sb	zero,-864(a5)
 100af6e:	8a5ff0ef          	jal	ra,100a812 <get_audio_frame_seq>
 100af72:	100117b7          	lui	a5,0x10011
 100af76:	157d                	addi	a0,a0,-1
 100af78:	c8a78ca3          	sb	a0,-871(a5) # 10010c99 <frame_seq>
 100af7c:	efbff0ef          	jal	ra,100ae76 <set_frame_seq_val>
 100af80:	100117b7          	lui	a5,0x10011
 100af84:	bf078793          	addi	a5,a5,-1040 # 10010bf0 <usr_axis_key_buf>
 100af88:	5779                	li	a4,-2
 100af8a:	00e78123          	sb	a4,2(a5)
 100af8e:	6705                	lui	a4,0x1
 100af90:	d8070713          	addi	a4,a4,-640 # d80 <__EN_MIE-0xfff2fe>
 100af94:	00e79823          	sh	a4,16(a5)
 100af98:	e7dff0ef          	jal	ra,100ae14 <update_frm_head>
 100af9c:	4501                	li	a0,0
 100af9e:	b77d                	j	100af4c <all_state_switch+0x60>
 100afa0:	902ff0ef          	jal	ra,100a0a2 <get_axis_moving_state>
 100afa4:	06050e63          	beqz	a0,100b020 <all_state_switch+0x134>
 100afa8:	00f10513          	addi	a0,sp,15
 100afac:	8b5ff0ef          	jal	ra,100a860 <get_keyvalue>
 100afb0:	06050863          	beqz	a0,100b020 <all_state_switch+0x134>
 100afb4:	100117b7          	lui	a5,0x10011
 100afb8:	c9d7c703          	lbu	a4,-867(a5) # 10010c9d <moving_press_2_init_state>
 100afbc:	8abe                	mv	s5,a5
 100afbe:	06070163          	beqz	a4,100b020 <all_state_switch+0x134>
 100afc2:	10011437          	lui	s0,0x10011
 100afc6:	c9b44583          	lbu	a1,-869(s0) # 10010c9b <app_ka_cur_state>
 100afca:	0100f537          	lui	a0,0x100f
 100afce:	d6450513          	addi	a0,a0,-668 # 100ed64 <msbc_flag_buf1+0x28>
 100afd2:	f86f60ef          	jal	ra,1001758 <print_string_log>
 100afd6:	c9b44703          	lbu	a4,-869(s0)
 100afda:	4785                	li	a5,1
 100afdc:	00f71c63          	bne	a4,a5,100aff4 <all_state_switch+0x108>
 100afe0:	100117b7          	lui	a5,0x10011
 100afe4:	bf078793          	addi	a5,a5,-1040 # 10010bf0 <usr_axis_key_buf>
 100afe8:	5779                	li	a4,-2
 100afea:	00e78123          	sb	a4,2(a5)
 100afee:	00079823          	sh	zero,16(a5)
 100aff2:	4a05                	li	s4,1
 100aff4:	100117b7          	lui	a5,0x10011
 100aff8:	c8078e23          	sb	zero,-868(a5) # 10010c9c <axis_init_en>
 100affc:	4785                	li	a5,1
 100affe:	c8fa8ea3          	sb	a5,-867(s5)
 100b002:	100117b7          	lui	a5,0x10011
 100b006:	c8078fa3          	sb	zero,-865(a5) # 10010c9f <moving_frst>
 100b00a:	100117b7          	lui	a5,0x10011
 100b00e:	c8040da3          	sb	zero,-869(s0)
 100b012:	180486a3          	sb	zero,397(s1)
 100b016:	ca078123          	sb	zero,-862(a5) # 10010ca2 <key_chk_ok>
 100b01a:	f20a08e3          	beqz	s4,100af4a <all_state_switch+0x5e>
 100b01e:	bfad                	j	100af98 <all_state_switch+0xac>
 100b020:	882ff0ef          	jal	ra,100a0a2 <get_axis_moving_state>
 100b024:	14051363          	bnez	a0,100b16a <all_state_switch+0x27e>
 100b028:	00f10513          	addi	a0,sp,15
 100b02c:	835ff0ef          	jal	ra,100a860 <get_keyvalue>
 100b030:	12051d63          	bnez	a0,100b16a <all_state_switch+0x27e>
 100b034:	10011a37          	lui	s4,0x10011
 100b038:	c9ba4783          	lbu	a5,-869(s4) # 10010c9b <app_ka_cur_state>
 100b03c:	4a85                	li	s5,1
 100b03e:	8452                	mv	s0,s4
 100b040:	03579c63          	bne	a5,s5,100b078 <all_state_switch+0x18c>
 100b044:	100117b7          	lui	a5,0x10011
 100b048:	c8078ca3          	sb	zero,-871(a5) # 10010c99 <frame_seq>
 100b04c:	e2bff0ef          	jal	ra,100ae76 <set_frame_seq_val>
 100b050:	85ce                	mv	a1,s3
 100b052:	854a                	mv	a0,s2
 100b054:	bc9ff0ef          	jal	ra,100ac1c <update_axis_2_usr_data>
 100b058:	100117b7          	lui	a5,0x10011
 100b05c:	bf078793          	addi	a5,a5,-1040 # 10010bf0 <usr_axis_key_buf>
 100b060:	5779                	li	a4,-2
 100b062:	00e78123          	sb	a4,2(a5)
 100b066:	6711                	lui	a4,0x4
 100b068:	e8070713          	addi	a4,a4,-384 # 3e80 <__EN_MIE-0xffc1fe>
 100b06c:	00e79823          	sh	a4,16(a5)
 100b070:	478d                	li	a5,3
 100b072:	c8fa0da3          	sb	a5,-869(s4)
 100b076:	b70d                	j	100af98 <all_state_switch+0xac>
 100b078:	4709                	li	a4,2
 100b07a:	02e79663          	bne	a5,a4,100b0a6 <all_state_switch+0x1ba>
 100b07e:	85ce                	mv	a1,s3
 100b080:	854a                	mv	a0,s2
 100b082:	b9bff0ef          	jal	ra,100ac1c <update_axis_2_usr_data>
 100b086:	00f14703          	lbu	a4,15(sp)
 100b08a:	100117b7          	lui	a5,0x10011
 100b08e:	bf078793          	addi	a5,a5,-1040 # 10010bf0 <usr_axis_key_buf>
 100b092:	56f5                	li	a3,-3
 100b094:	00d78123          	sb	a3,2(a5)
 100b098:	f8000693          	li	a3,-128
 100b09c:	00d78823          	sb	a3,16(a5)
 100b0a0:	00e788a3          	sb	a4,17(a5)
 100b0a4:	b7f1                	j	100b070 <all_state_switch+0x184>
 100b0a6:	470d                	li	a4,3
 100b0a8:	10011b37          	lui	s6,0x10011
 100b0ac:	0ae79363          	bne	a5,a4,100b152 <all_state_switch+0x266>
 100b0b0:	dc7ff0ef          	jal	ra,100ae76 <set_frame_seq_val>
 100b0b4:	854a                	mv	a0,s2
 100b0b6:	85ce                	mv	a1,s3
 100b0b8:	b65ff0ef          	jal	ra,100ac1c <update_axis_2_usr_data>
 100b0bc:	00f14783          	lbu	a5,15(sp)
 100b0c0:	10011437          	lui	s0,0x10011
 100b0c4:	bf040413          	addi	s0,s0,-1040 # 10010bf0 <usr_axis_key_buf>
 100b0c8:	00f408a3          	sb	a5,17(s0)
 100b0cc:	c9ab4783          	lbu	a5,-870(s6) # 10010c9a <kv_cmd_state_value>
 100b0d0:	5775                	li	a4,-3
 100b0d2:	00e40123          	sb	a4,2(s0)
 100b0d6:	f8000713          	li	a4,-128
 100b0da:	00e40823          	sb	a4,16(s0)
 100b0de:	8b91                	andi	a5,a5,4
 100b0e0:	10011937          	lui	s2,0x10011
 100b0e4:	02078063          	beqz	a5,100b104 <all_state_switch+0x218>
 100b0e8:	4511                	li	a0,4
 100b0ea:	db7ff0ef          	jal	ra,100aea0 <clr_kvcmd_state>
 100b0ee:	57f9                	li	a5,-2
 100b0f0:	00f40123          	sb	a5,2(s0)
 100b0f4:	6791                	lui	a5,0x4
 100b0f6:	f8078793          	addi	a5,a5,-128 # 3f80 <__EN_MIE-0xffc0fe>
 100b0fa:	00f41823          	sh	a5,16(s0)
 100b0fe:	c9590f23          	sb	s5,-866(s2) # 10010c9e <axis_key_stop_cmd_step>
 100b102:	bd59                	j	100af98 <all_state_switch+0xac>
 100b104:	c9e94783          	lbu	a5,-866(s2)
 100b108:	e80788e3          	beqz	a5,100af98 <all_state_switch+0xac>
 100b10c:	57f9                	li	a5,-2
 100b10e:	0100f537          	lui	a0,0x100f
 100b112:	00f40123          	sb	a5,2(s0)
 100b116:	d7050513          	addi	a0,a0,-656 # 100ed70 <msbc_flag_buf1+0x34>
 100b11a:	47a9                	li	a5,10
 100b11c:	00f408a3          	sb	a5,17(s0)
 100b120:	c8090f23          	sb	zero,-866(s2)
 100b124:	e34f60ef          	jal	ra,1001758 <print_string_log>
 100b128:	100117b7          	lui	a5,0x10011
 100b12c:	c15783a3          	sb	s5,-1017(a5) # 10010c07 <app_pkt_type>
 100b130:	100117b7          	lui	a5,0x10011
 100b134:	c997c703          	lbu	a4,-871(a5) # 10010c99 <frame_seq>
 100b138:	100117b7          	lui	a5,0x10011
 100b13c:	c0e78323          	sb	a4,-1018(a5) # 10010c06 <audio_frame_seq>
 100b140:	b11fd0ef          	jal	ra,1008c50 <mic_open>
 100b144:	180486a3          	sb	zero,397(s1)
 100b148:	c80a0da3          	sb	zero,-869(s4)
 100b14c:	cc9ff0ef          	jal	ra,100ae14 <update_frm_head>
 100b150:	b5a1                	j	100af98 <all_state_switch+0xac>
 100b152:	c9ab4783          	lbu	a5,-870(s6)
 100b156:	8b85                	andi	a5,a5,1
 100b158:	00078563          	beqz	a5,100b162 <all_state_switch+0x276>
 100b15c:	4505                	li	a0,1
 100b15e:	d43ff0ef          	jal	ra,100aea0 <clr_kvcmd_state>
 100b162:	4785                	li	a5,1
 100b164:	c8f40da3          	sb	a5,-869(s0)
 100b168:	b3cd                	j	100af4a <all_state_switch+0x5e>
 100b16a:	f39fe0ef          	jal	ra,100a0a2 <get_axis_moving_state>
 100b16e:	04051863          	bnez	a0,100b1be <all_state_switch+0x2d2>
 100b172:	d43ff0ef          	jal	ra,100aeb4 <get_encode_state>
 100b176:	0fe00793          	li	a5,254
 100b17a:	0cf51763          	bne	a0,a5,100b248 <all_state_switch+0x35c>
 100b17e:	10011437          	lui	s0,0x10011
 100b182:	bf040413          	addi	s0,s0,-1040 # 10010bf0 <usr_axis_key_buf>
 100b186:	01440923          	sb	s4,18(s0)
 100b18a:	10011a37          	lui	s4,0x10011
 100b18e:	c9ba4783          	lbu	a5,-869(s4) # 10010c9b <app_ka_cur_state>
 100b192:	0a079d63          	bnez	a5,100b24c <all_state_switch+0x360>
 100b196:	100117b7          	lui	a5,0x10011
 100b19a:	c8078ca3          	sb	zero,-871(a5) # 10010c99 <frame_seq>
 100b19e:	cd9ff0ef          	jal	ra,100ae76 <set_frame_seq_val>
 100b1a2:	85ce                	mv	a1,s3
 100b1a4:	854a                	mv	a0,s2
 100b1a6:	a77ff0ef          	jal	ra,100ac1c <update_axis_2_usr_data>
 100b1aa:	57f9                	li	a5,-2
 100b1ac:	00f40123          	sb	a5,2(s0)
 100b1b0:	6791                	lui	a5,0x4
 100b1b2:	e8078793          	addi	a5,a5,-384 # 3e80 <__EN_MIE-0xffc1fe>
 100b1b6:	00f41823          	sh	a5,16(s0)
 100b1ba:	4789                	li	a5,2
 100b1bc:	bd5d                	j	100b072 <all_state_switch+0x186>
 100b1be:	100117b7          	lui	a5,0x10011
 100b1c2:	c9d7c783          	lbu	a5,-867(a5) # 10010c9d <moving_press_2_init_state>
 100b1c6:	00079863          	bnez	a5,100b1d6 <all_state_switch+0x2ea>
 100b1ca:	00f10513          	addi	a0,sp,15
 100b1ce:	e92ff0ef          	jal	ra,100a860 <get_keyvalue>
 100b1d2:	fa0510e3          	bnez	a0,100b172 <all_state_switch+0x286>
 100b1d6:	00f10513          	addi	a0,sp,15
 100b1da:	e86ff0ef          	jal	ra,100a860 <get_keyvalue>
 100b1de:	d60516e3          	bnez	a0,100af4a <all_state_switch+0x5e>
 100b1e2:	10011a37          	lui	s4,0x10011
 100b1e6:	c9ba4783          	lbu	a5,-869(s4) # 10010c9b <app_ka_cur_state>
 100b1ea:	10011437          	lui	s0,0x10011
 100b1ee:	bf040413          	addi	s0,s0,-1040 # 10010bf0 <usr_axis_key_buf>
 100b1f2:	8ad2                	mv	s5,s4
 100b1f4:	0c079f63          	bnez	a5,100b2d2 <all_state_switch+0x3e6>
 100b1f8:	100117b7          	lui	a5,0x10011
 100b1fc:	c8078ca3          	sb	zero,-871(a5) # 10010c99 <frame_seq>
 100b200:	c77ff0ef          	jal	ra,100ae76 <set_frame_seq_val>
 100b204:	100117b7          	lui	a5,0x10011
 100b208:	c9c7c703          	lbu	a4,-868(a5) # 10010c9c <axis_init_en>
 100b20c:	00071963          	bnez	a4,100b21e <all_state_switch+0x332>
 100b210:	4705                	li	a4,1
 100b212:	85ce                	mv	a1,s3
 100b214:	854a                	mv	a0,s2
 100b216:	c8e78e23          	sb	a4,-868(a5)
 100b21a:	a03ff0ef          	jal	ra,100ac1c <update_axis_2_usr_data>
 100b21e:	00f14783          	lbu	a5,15(sp)
 100b222:	5779                	li	a4,-2
 100b224:	0100f537          	lui	a0,0x100f
 100b228:	00e40123          	sb	a4,2(s0)
 100b22c:	00f408a3          	sb	a5,17(s0)
 100b230:	f8000713          	li	a4,-128
 100b234:	4785                	li	a5,1
 100b236:	d8850513          	addi	a0,a0,-632 # 100ed88 <msbc_flag_buf1+0x4c>
 100b23a:	00e40823          	sb	a4,16(s0)
 100b23e:	c8fa8da3          	sb	a5,-869(s5)
 100b242:	d16f60ef          	jal	ra,1001758 <print_string_log>
 100b246:	bb89                	j	100af98 <all_state_switch+0xac>
 100b248:	8a2a                	mv	s4,a0
 100b24a:	bf15                	j	100b17e <all_state_switch+0x292>
 100b24c:	470d                	li	a4,3
 100b24e:	00e79c63          	bne	a5,a4,100b266 <all_state_switch+0x37a>
 100b252:	85ce                	mv	a1,s3
 100b254:	854a                	mv	a0,s2
 100b256:	9c7ff0ef          	jal	ra,100ac1c <update_axis_2_usr_data>
 100b25a:	57f5                	li	a5,-3
 100b25c:	00f40123          	sb	a5,2(s0)
 100b260:	00041823          	sh	zero,16(s0)
 100b264:	bf99                	j	100b1ba <all_state_switch+0x2ce>
 100b266:	4789                	li	a5,2
 100b268:	c8fa0da3          	sb	a5,-869(s4)
 100b26c:	c0bff0ef          	jal	ra,100ae76 <set_frame_seq_val>
 100b270:	85ce                	mv	a1,s3
 100b272:	854a                	mv	a0,s2
 100b274:	9a9ff0ef          	jal	ra,100ac1c <update_axis_2_usr_data>
 100b278:	57f5                	li	a5,-3
 100b27a:	00f40123          	sb	a5,2(s0)
 100b27e:	100117b7          	lui	a5,0x10011
 100b282:	c9a7c783          	lbu	a5,-870(a5) # 10010c9a <kv_cmd_state_value>
 100b286:	00041823          	sh	zero,16(s0)
 100b28a:	8b89                	andi	a5,a5,2
 100b28c:	d00786e3          	beqz	a5,100af98 <all_state_switch+0xac>
 100b290:	4509                	li	a0,2
 100b292:	c0fff0ef          	jal	ra,100aea0 <clr_kvcmd_state>
 100b296:	57f9                	li	a5,-2
 100b298:	00f40123          	sb	a5,2(s0)
 100b29c:	6791                	lui	a5,0x4
 100b29e:	f8078793          	addi	a5,a5,-128 # 3f80 <__EN_MIE-0xffc0fe>
 100b2a2:	0100f537          	lui	a0,0x100f
 100b2a6:	00f41823          	sh	a5,16(s0)
 100b2aa:	4705                	li	a4,1
 100b2ac:	100117b7          	lui	a5,0x10011
 100b2b0:	d8050513          	addi	a0,a0,-640 # 100ed80 <msbc_flag_buf1+0x44>
 100b2b4:	c8e78ea3          	sb	a4,-867(a5) # 10010c9d <moving_press_2_init_state>
 100b2b8:	ca0f60ef          	jal	ra,1001758 <print_string_log>
 100b2bc:	100117b7          	lui	a5,0x10011
 100b2c0:	c8078fa3          	sb	zero,-865(a5) # 10010c9f <moving_frst>
 100b2c4:	100117b7          	lui	a5,0x10011
 100b2c8:	180486a3          	sb	zero,397(s1)
 100b2cc:	ca078123          	sb	zero,-862(a5) # 10010ca2 <key_chk_ok>
 100b2d0:	b1e1                	j	100af98 <all_state_switch+0xac>
 100b2d2:	470d                	li	a4,3
 100b2d4:	00e79c63          	bne	a5,a4,100b2ec <all_state_switch+0x400>
 100b2d8:	57f9                	li	a5,-2
 100b2da:	00f40123          	sb	a5,2(s0)
 100b2de:	6791                	lui	a5,0x4
 100b2e0:	f8078793          	addi	a5,a5,-128 # 3f80 <__EN_MIE-0xffc0fe>
 100b2e4:	00f41823          	sh	a5,16(s0)
 100b2e8:	4785                	li	a5,1
 100b2ea:	b361                	j	100b072 <all_state_switch+0x186>
 100b2ec:	00f14783          	lbu	a5,15(sp)
 100b2f0:	4985                	li	s3,1
 100b2f2:	5979                	li	s2,-2
 100b2f4:	00f408a3          	sb	a5,17(s0)
 100b2f8:	100117b7          	lui	a5,0x10011
 100b2fc:	c9a7c783          	lbu	a5,-870(a5) # 10010c9a <kv_cmd_state_value>
 100b300:	f8000713          	li	a4,-128
 100b304:	c93a0da3          	sb	s3,-869(s4)
 100b308:	01240123          	sb	s2,2(s0)
 100b30c:	00e40823          	sb	a4,16(s0)
 100b310:	8b91                	andi	a5,a5,4
 100b312:	c80783e3          	beqz	a5,100af98 <all_state_switch+0xac>
 100b316:	4511                	li	a0,4
 100b318:	b89ff0ef          	jal	ra,100aea0 <clr_kvcmd_state>
 100b31c:	100117b7          	lui	a5,0x10011
 100b320:	c13783a3          	sb	s3,-1017(a5) # 10010c07 <app_pkt_type>
 100b324:	100117b7          	lui	a5,0x10011
 100b328:	c997c703          	lbu	a4,-871(a5) # 10010c99 <frame_seq>
 100b32c:	100117b7          	lui	a5,0x10011
 100b330:	c0e78323          	sb	a4,-1018(a5) # 10010c06 <audio_frame_seq>
 100b334:	91dfd0ef          	jal	ra,1008c50 <mic_open>
 100b338:	6785                	lui	a5,0x1
 100b33a:	a8078793          	addi	a5,a5,-1408 # a80 <__EN_MIE-0xfff5fe>
 100b33e:	180486a3          	sb	zero,397(s1)
 100b342:	01240123          	sb	s2,2(s0)
 100b346:	00f41823          	sh	a5,16(s0)
 100b34a:	c80a0da3          	sb	zero,-869(s4)
 100b34e:	b1a9                	j	100af98 <all_state_switch+0xac>

0100b350 <mouse_handle>:
mouse_handle():
 100b350:	728012ef          	jal	t0,100ca78 <__riscv_save_0>
 100b354:	00055783          	lhu	a5,0(a0)
 100b358:	1141                	addi	sp,sp,-16
 100b35a:	002c                	addi	a1,sp,8
 100b35c:	00f11023          	sh	a5,0(sp)
 100b360:	00255783          	lhu	a5,2(a0)
 100b364:	00f11123          	sh	a5,2(sp)
 100b368:	00455783          	lhu	a5,4(a0)
 100b36c:	00f11223          	sh	a5,4(sp)
 100b370:	00655783          	lhu	a5,6(a0)
 100b374:	00f11423          	sh	a5,8(sp)
 100b378:	00855783          	lhu	a5,8(a0)
 100b37c:	00f11523          	sh	a5,10(sp)
 100b380:	00a55783          	lhu	a5,10(a0)
 100b384:	850a                	mv	a0,sp
 100b386:	00f11623          	sh	a5,12(sp)
 100b38a:	b63ff0ef          	jal	ra,100aeec <all_state_switch>
 100b38e:	02051063          	bnez	a0,100b3ae <mouse_handle+0x5e>
 100b392:	ba8f90ef          	jal	ra,100473a <Bt_HciGetUsedBufferNum>
 100b396:	47b1                	li	a5,12
 100b398:	00a7ee63          	bltu	a5,a0,100b3b4 <mouse_handle+0x64>
 100b39c:	100115b7          	lui	a1,0x10011
 100b3a0:	464d                	li	a2,19
 100b3a2:	bf058593          	addi	a1,a1,-1040 # 10010bf0 <usr_axis_key_buf>
 100b3a6:	02200513          	li	a0,34
 100b3aa:	a96fb0ef          	jal	ra,1006640 <ATT_sendNotify>
 100b3ae:	0141                	addi	sp,sp,16
 100b3b0:	6ec0106f          	j	100ca9c <__riscv_restore_0>
 100b3b4:	b86f90ef          	jal	ra,100473a <Bt_HciGetUsedBufferNum>
 100b3b8:	85aa                	mv	a1,a0
 100b3ba:	0100f537          	lui	a0,0x100f
 100b3be:	d9050513          	addi	a0,a0,-624 # 100ed90 <msbc_flag_buf1+0x54>
 100b3c2:	b96f60ef          	jal	ra,1001758 <print_string_log>
 100b3c6:	b7e5                	j	100b3ae <mouse_handle+0x5e>

0100b3c8 <app_rpt_timeout_handle>:
app_rpt_timeout_handle():
 100b3c8:	6b0012ef          	jal	t0,100ca78 <__riscv_save_0>
 100b3cc:	100117b7          	lui	a5,0x10011
 100b3d0:	c047c703          	lbu	a4,-1020(a5) # 10010c04 <app_rpt_timeout_type>
 100b3d4:	843e                	mv	s0,a5
 100b3d6:	8b05                	andi	a4,a4,1
 100b3d8:	02070763          	beqz	a4,100b406 <app_rpt_timeout_handle+0x3e>
 100b3dc:	100147b7          	lui	a5,0x10014
 100b3e0:	46c7c783          	lbu	a5,1132(a5) # 1001446c <mouse_on_off>
 100b3e4:	02079163          	bnez	a5,100b406 <app_rpt_timeout_handle+0x3e>
 100b3e8:	4505                	li	a0,1
 100b3ea:	b8cff0ef          	jal	ra,100a776 <clr_app_rpt_timeout_type>
 100b3ee:	0100b537          	lui	a0,0x100b
 100b3f2:	35050513          	addi	a0,a0,848 # 100b350 <mouse_handle>
 100b3f6:	bebfe0ef          	jal	ra,1009fe0 <mouse_init>
 100b3fa:	0100f537          	lui	a0,0x100f
 100b3fe:	da450513          	addi	a0,a0,-604 # 100eda4 <msbc_flag_buf1+0x68>
 100b402:	b56f60ef          	jal	ra,1001758 <print_string_log>
 100b406:	c0444783          	lbu	a5,-1020(s0)
 100b40a:	8b89                	andi	a5,a5,2
 100b40c:	02078763          	beqz	a5,100b43a <app_rpt_timeout_handle+0x72>
 100b410:	4509                	li	a0,2
 100b412:	b64ff0ef          	jal	ra,100a776 <clr_app_rpt_timeout_type>
 100b416:	d27f90ef          	jal	ra,100513c <bt_check_le_connected>
 100b41a:	00050b63          	beqz	a0,100b430 <app_rpt_timeout_handle+0x68>
 100b41e:	454d                	li	a0,19
 100b420:	d2df90ef          	jal	ra,100514c <bt_send_le_disconnect>
 100b424:	0100f537          	lui	a0,0x100f
 100b428:	db450513          	addi	a0,a0,-588 # 100edb4 <msbc_flag_buf1+0x78>
 100b42c:	b2cf60ef          	jal	ra,1001758 <print_string_log>
 100b430:	21e5                	jal	100b918 <stop_adv>
 100b432:	b5cfa0ef          	jal	ra,100578e <Bt_ClearRemoteDevInfo>
 100b436:	d60fa0ef          	jal	ra,1005996 <Bt_ClearDeviceNvdataInfo>
 100b43a:	6620106f          	j	100ca9c <__riscv_restore_0>

0100b43e <encode_handle>:
encode_handle():
 100b43e:	63a012ef          	jal	t0,100ca78 <__riscv_save_0>
 100b442:	950ff0ef          	jal	ra,100a592 <get_encode_chk_ok_state>
 100b446:	0ff00793          	li	a5,255
 100b44a:	00f50c63          	beq	a0,a5,100b462 <encode_handle+0x24>
 100b44e:	842a                	mv	s0,a0
 100b450:	cedf90ef          	jal	ra,100513c <bt_check_le_connected>
 100b454:	00051963          	bnez	a0,100b466 <encode_handle+0x28>
 100b458:	01041513          	slli	a0,s0,0x10
 100b45c:	8141                	srli	a0,a0,0x10
 100b45e:	9f0fd0ef          	jal	ra,100864e <ir_comm_send>
 100b462:	63a0106f          	j	100ca9c <__riscv_restore_0>
 100b466:	100117b7          	lui	a5,0x10011
 100b46a:	4705                	li	a4,1
 100b46c:	cae780a3          	sb	a4,-863(a5) # 10010ca1 <encode_chk_ok>
 100b470:	100107b7          	lui	a5,0x10010
 100b474:	18878723          	sb	s0,398(a5) # 1001018e <encode_chk_value>
 100b478:	b7ed                	j	100b462 <encode_handle+0x24>

0100b47a <ir_list_handle>:
ir_list_handle():
 100b47a:	8082                	ret

0100b47c <key_pressed_handle>:
key_pressed_handle():
 100b47c:	100117b7          	lui	a5,0x10011
 100b480:	be87c583          	lbu	a1,-1048(a5) # 10010be8 <key_pressed_num>
 100b484:	4789                	li	a5,2
 100b486:	0cf59563          	bne	a1,a5,100b550 <key_pressed_handle+0xd4>
 100b48a:	100116b7          	lui	a3,0x10011
 100b48e:	bea6c703          	lbu	a4,-1046(a3) # 10010bea <keynum>
 100b492:	47ed                	li	a5,27
 100b494:	0af71e63          	bne	a4,a5,100b550 <key_pressed_handle+0xd4>
 100b498:	10011637          	lui	a2,0x10011
 100b49c:	be964703          	lbu	a4,-1047(a2) # 10010be9 <keynum_secnd>
 100b4a0:	47d1                	li	a5,20
 100b4a2:	0af71763          	bne	a4,a5,100b550 <key_pressed_handle+0xd4>
 100b4a6:	5d2012ef          	jal	t0,100ca78 <__riscv_save_0>
 100b4aa:	10011737          	lui	a4,0x10011
 100b4ae:	be675783          	lhu	a5,-1050(a4) # 10010be6 <key_pressed_time>
 100b4b2:	1141                	addi	sp,sp,-16
 100b4b4:	0785                	addi	a5,a5,1
 100b4b6:	07c2                	slli	a5,a5,0x10
 100b4b8:	83c1                	srli	a5,a5,0x10
 100b4ba:	bef71323          	sh	a5,-1050(a4)
 100b4be:	08f5f263          	bgeu	a1,a5,100b542 <key_pressed_handle+0xc6>
 100b4c2:	be0604a3          	sb	zero,-1047(a2)
 100b4c6:	be068523          	sb	zero,-1046(a3)
 100b4ca:	be071323          	sh	zero,-1050(a4)
 100b4ce:	c6ff90ef          	jal	ra,100513c <bt_check_le_connected>
 100b4d2:	06050063          	beqz	a0,100b532 <key_pressed_handle+0xb6>
 100b4d6:	04000793          	li	a5,64
 100b4da:	00f11623          	sh	a5,12(sp)
 100b4de:	4605                	li	a2,1
 100b4e0:	100107b7          	lui	a5,0x10010
 100b4e4:	002c                	addi	a1,sp,8
 100b4e6:	4565                	li	a0,25
 100b4e8:	180786a3          	sb	zero,397(a5) # 1001018d <axis_key_enable>
 100b4ec:	00010423          	sb	zero,8(sp)
 100b4f0:	950fb0ef          	jal	ra,1006640 <ATT_sendNotify>
 100b4f4:	4609                	li	a2,2
 100b4f6:	006c                	addi	a1,sp,12
 100b4f8:	4565                	li	a0,25
 100b4fa:	946fb0ef          	jal	ra,1006640 <ATT_sendNotify>
 100b4fe:	4509                	li	a0,2
 100b500:	a66ff0ef          	jal	ra,100a766 <set_app_rpt_timeout_type>
 100b504:	100107b7          	lui	a5,0x10010
 100b508:	1897c503          	lbu	a0,393(a5) # 10010189 <app_rpt_timeout_timernum>
 100b50c:	4601                	li	a2,0
 100b50e:	45d1                	li	a1,20
 100b510:	90bf60ef          	jal	ra,1001e1a <swtimer_start>
 100b514:	100117b7          	lui	a5,0x10011
 100b518:	4705                	li	a4,1
 100b51a:	3e800613          	li	a2,1000
 100b51e:	0c800593          	li	a1,200
 100b522:	4501                	li	a0,0
 100b524:	bee786a3          	sb	a4,-1043(a5) # 10010bed <led_state>
 100b528:	ea9fb0ef          	jal	ra,10073d0 <led_on>
 100b52c:	0141                	addi	sp,sp,16
 100b52e:	56e0106f          	j	100ca9c <__riscv_restore_0>
 100b532:	a5cfa0ef          	jal	ra,100578e <Bt_ClearRemoteDevInfo>
 100b536:	c60fa0ef          	jal	ra,1005996 <Bt_ClearDeviceNvdataInfo>
 100b53a:	45c1                	li	a1,16
 100b53c:	4501                	li	a0,0
 100b53e:	2e9d                	jal	100b8b4 <start_adv>
 100b540:	bfd1                	j	100b514 <key_pressed_handle+0x98>
 100b542:	100107b7          	lui	a5,0x10010
 100b546:	18a7c503          	lbu	a0,394(a5) # 1001018a <brand_pressed_timernum>
 100b54a:	84bf60ef          	jal	ra,1001d94 <swtimer_restart>
 100b54e:	bff9                	j	100b52c <key_pressed_handle+0xb0>
 100b550:	8082                	ret

0100b552 <keyvalue_handle>:
keyvalue_handle():
 100b552:	526012ef          	jal	t0,100ca78 <__riscv_save_0>
 100b556:	00054783          	lbu	a5,0(a0)
 100b55a:	10011737          	lui	a4,0x10011
 100b55e:	bef70423          	sb	a5,-1048(a4) # 10010be8 <key_pressed_num>
 100b562:	04079b63          	bnez	a5,100b5b8 <keyvalue_handle+0x66>
 100b566:	100117b7          	lui	a5,0x10011
 100b56a:	bed7c783          	lbu	a5,-1043(a5) # 10010bed <led_state>
 100b56e:	00079563          	bnez	a5,100b578 <keyvalue_handle+0x26>
 100b572:	4501                	li	a0,0
 100b574:	e17fb0ef          	jal	ra,100738a <led_off>
 100b578:	4501                	li	a0,0
 100b57a:	f73fb0ef          	jal	ra,10074ec <set_key_press_state>
 100b57e:	a50ff0ef          	jal	ra,100a7ce <get_voice_key_rel_state>
 100b582:	02051963          	bnez	a0,100b5b4 <keyvalue_handle+0x62>
 100b586:	4709                	li	a4,2
 100b588:	100117b7          	lui	a5,0x10011
 100b58c:	c0e783a3          	sb	a4,-1017(a5) # 10010c07 <app_pkt_type>
 100b590:	a82ff0ef          	jal	ra,100a812 <get_audio_frame_seq>
 100b594:	100117b7          	lui	a5,0x10011
 100b598:	157d                	addi	a0,a0,-1
 100b59a:	c8a78ca3          	sb	a0,-871(a5) # 10010c99 <frame_seq>
 100b59e:	8d9ff0ef          	jal	ra,100ae76 <set_frame_seq_val>
 100b5a2:	100117b7          	lui	a5,0x10011
 100b5a6:	bf078793          	addi	a5,a5,-1040 # 10010bf0 <usr_axis_key_buf>
 100b5aa:	5779                	li	a4,-2
 100b5ac:	00e78123          	sb	a4,2(a5)
 100b5b0:	00079823          	sh	zero,16(a5)
 100b5b4:	4e80106f          	j	100ca9c <__riscv_restore_0>
 100b5b8:	4705                	li	a4,1
 100b5ba:	842a                	mv	s0,a0
 100b5bc:	12e79563          	bne	a5,a4,100b6e6 <keyvalue_handle+0x194>
 100b5c0:	00844783          	lbu	a5,8(s0)
 100b5c4:	00754503          	lbu	a0,7(a0)
 100b5c8:	953e                	add	a0,a0,a5
 100b5ca:	00944783          	lbu	a5,9(s0)
 100b5ce:	953e                	add	a0,a0,a5
 100b5d0:	00a44783          	lbu	a5,10(s0)
 100b5d4:	953e                	add	a0,a0,a5
 100b5d6:	00b44783          	lbu	a5,11(s0)
 100b5da:	953e                	add	a0,a0,a5
 100b5dc:	00c44783          	lbu	a5,12(s0)
 100b5e0:	10011437          	lui	s0,0x10011
 100b5e4:	953e                	add	a0,a0,a5
 100b5e6:	0ff57513          	andi	a0,a0,255
 100b5ea:	bea40523          	sb	a0,-1046(s0) # 10010bea <keynum>
 100b5ee:	47cd                	li	a5,19
 100b5f0:	00f51463          	bne	a0,a5,100b5f8 <keyvalue_handle+0xa6>
 100b5f4:	0ff00513          	li	a0,255
 100b5f8:	846ff0ef          	jal	ra,100a63e <factory_KeyProcess>
 100b5fc:	bea44583          	lbu	a1,-1046(s0)
 100b600:	0100f537          	lui	a0,0x100f
 100b604:	dc850513          	addi	a0,a0,-568 # 100edc8 <msbc_flag_buf1+0x8c>
 100b608:	950f60ef          	jal	ra,1001758 <print_string_log>
 100b60c:	bea44783          	lbu	a5,-1046(s0)
 100b610:	4485                	li	s1,1
 100b612:	10011937          	lui	s2,0x10011
 100b616:	02979263          	bne	a5,s1,100b63a <keyvalue_handle+0xe8>
 100b61a:	4505                	li	a0,1
 100b61c:	ed1fb0ef          	jal	ra,10074ec <set_key_press_state>
 100b620:	4521                	li	a0,8
 100b622:	82cfd0ef          	jal	ra,100864e <ir_comm_send>
 100b626:	bed94783          	lbu	a5,-1043(s2) # 10010bed <led_state>
 100b62a:	f80795e3          	bnez	a5,100b5b4 <keyvalue_handle+0x62>
 100b62e:	4601                	li	a2,0
 100b630:	4581                	li	a1,0
 100b632:	4501                	li	a0,0
 100b634:	d9dfb0ef          	jal	ra,10073d0 <led_on>
 100b638:	bfb5                	j	100b5b4 <keyvalue_handle+0x62>
 100b63a:	b03f90ef          	jal	ra,100513c <bt_check_le_connected>
 100b63e:	bea44583          	lbu	a1,-1046(s0)
 100b642:	06051b63          	bnez	a0,100b6b8 <keyvalue_handle+0x166>
 100b646:	47e5                	li	a5,25
 100b648:	04f59763          	bne	a1,a5,100b696 <keyvalue_handle+0x144>
 100b64c:	8c6fa0ef          	jal	ra,1005712 <Bt_CheckIsPaired>
 100b650:	00050663          	beqz	a0,100b65c <keyvalue_handle+0x10a>
 100b654:	4505                	li	a0,1
 100b656:	e97fb0ef          	jal	ra,10074ec <set_key_press_state>
 100b65a:	a025                	j	100b682 <keyvalue_handle+0x130>
 100b65c:	6611                	lui	a2,0x4
 100b65e:	a9860613          	addi	a2,a2,-1384 # 3a98 <__EN_MIE-0xffc5e6>
 100b662:	4581                	li	a1,0
 100b664:	be9906a3          	sb	s1,-1043(s2)
 100b668:	d69fb0ef          	jal	ra,10073d0 <led_on>
 100b66c:	08300513          	li	a0,131
 100b670:	4589                	li	a1,2
 100b672:	834fd0ef          	jal	ra,10086a6 <ir_single_send>
 100b676:	0100f537          	lui	a0,0x100f
 100b67a:	dd850513          	addi	a0,a0,-552 # 100edd8 <msbc_flag_buf1+0x9c>
 100b67e:	8daf60ef          	jal	ra,1001758 <print_string_log>
 100b682:	bea44703          	lbu	a4,-1046(s0)
 100b686:	0100f7b7          	lui	a5,0x100f
 100b68a:	b5478793          	addi	a5,a5,-1196 # 100eb54 <IRKeyBuf>
 100b68e:	97ba                	add	a5,a5,a4
 100b690:	0007c503          	lbu	a0,0(a5)
 100b694:	b779                	j	100b622 <keyvalue_handle+0xd0>
 100b696:	47ad                	li	a5,11
 100b698:	00f59863          	bne	a1,a5,100b6a8 <keyvalue_handle+0x156>
 100b69c:	4589                	li	a1,2
 100b69e:	05300513          	li	a0,83
 100b6a2:	804fd0ef          	jal	ra,10086a6 <ir_single_send>
 100b6a6:	b77d                	j	100b654 <keyvalue_handle+0x102>
 100b6a8:	02400793          	li	a5,36
 100b6ac:	faf594e3          	bne	a1,a5,100b654 <keyvalue_handle+0x102>
 100b6b0:	4589                	li	a1,2
 100b6b2:	04900513          	li	a0,73
 100b6b6:	b7f5                	j	100b6a2 <keyvalue_handle+0x150>
 100b6b8:	0100f537          	lui	a0,0x100f
 100b6bc:	de450513          	addi	a0,a0,-540 # 100ede4 <msbc_flag_buf1+0xa8>
 100b6c0:	898f60ef          	jal	ra,1001758 <print_string_log>
 100b6c4:	100117b7          	lui	a5,0x10011
 100b6c8:	ca27c703          	lbu	a4,-862(a5) # 10010ca2 <key_chk_ok>
 100b6cc:	f4071de3          	bnez	a4,100b626 <keyvalue_handle+0xd4>
 100b6d0:	ca978123          	sb	s1,-862(a5)
 100b6d4:	4585                	li	a1,1
 100b6d6:	100117b7          	lui	a5,0x10011
 100b6da:	4519                	li	a0,6
 100b6dc:	c8078fa3          	sb	zero,-865(a5) # 10010c9f <moving_frst>
 100b6e0:	c0efb0ef          	jal	ra,1006aee <app_sleep_lock_set>
 100b6e4:	b789                	j	100b626 <keyvalue_handle+0xd4>
 100b6e6:	4709                	li	a4,2
 100b6e8:	ece796e3          	bne	a5,a4,100b5b4 <keyvalue_handle+0x62>
 100b6ec:	4501                	li	a0,0
 100b6ee:	dfffb0ef          	jal	ra,10074ec <set_key_press_state>
 100b6f2:	4505                	li	a0,1
 100b6f4:	c97fb0ef          	jal	ra,100738a <led_off>
 100b6f8:	00b44783          	lbu	a5,11(s0)
 100b6fc:	00a44703          	lbu	a4,10(s0)
 100b700:	00d44883          	lbu	a7,13(s0)
 100b704:	00c44803          	lbu	a6,12(s0)
 100b708:	00944683          	lbu	a3,9(s0)
 100b70c:	00844603          	lbu	a2,8(s0)
 100b710:	00744583          	lbu	a1,7(s0)
 100b714:	0100f537          	lui	a0,0x100f
 100b718:	dfc50513          	addi	a0,a0,-516 # 100edfc <msbc_flag_buf1+0xc0>
 100b71c:	83cf60ef          	jal	ra,1001758 <print_string_log>
 100b720:	00844783          	lbu	a5,8(s0)
 100b724:	4751                	li	a4,20
 100b726:	00e79f63          	bne	a5,a4,100b744 <keyvalue_handle+0x1f2>
 100b72a:	00944703          	lbu	a4,9(s0)
 100b72e:	46ed                	li	a3,27
 100b730:	00d71a63          	bne	a4,a3,100b744 <keyvalue_handle+0x1f2>
 100b734:	100116b7          	lui	a3,0x10011
 100b738:	bee68523          	sb	a4,-1046(a3) # 10010bea <keynum>
 100b73c:	10011737          	lui	a4,0x10011
 100b740:	bef704a3          	sb	a5,-1047(a4) # 10010be9 <keynum_secnd>
 100b744:	100117b7          	lui	a5,0x10011
 100b748:	be079323          	sh	zero,-1050(a5) # 10010be6 <key_pressed_time>
 100b74c:	100107b7          	lui	a5,0x10010
 100b750:	18a7c503          	lbu	a0,394(a5) # 1001018a <brand_pressed_timernum>
 100b754:	4601                	li	a2,0
 100b756:	3e800593          	li	a1,1000
 100b75a:	ec0f60ef          	jal	ra,1001e1a <swtimer_start>
 100b75e:	bd99                	j	100b5b4 <keyvalue_handle+0x62>

0100b760 <power_handle>:
power_handle():
 100b760:	318012ef          	jal	t0,100ca78 <__riscv_save_0>
 100b764:	1141                	addi	sp,sp,-16
 100b766:	00a107a3          	sb	a0,15(sp)
 100b76a:	47d1                	li	a5,20
 100b76c:	00a7ed63          	bltu	a5,a0,100b786 <power_handle+0x26>
 100b770:	100117b7          	lui	a5,0x10011
 100b774:	beb7c703          	lbu	a4,-1045(a5) # 10010beb <tx_power_switch>
 100b778:	00070763          	beqz	a4,100b786 <power_handle+0x26>
 100b77c:	4515                	li	a0,5
 100b77e:	be0785a3          	sb	zero,-1045(a5)
 100b782:	a0bf90ef          	jal	ra,100518c <bt_set_tx_power>
 100b786:	00f14783          	lbu	a5,15(sp)
 100b78a:	4715                	li	a4,5
 100b78c:	02f76063          	bltu	a4,a5,100b7ac <power_handle+0x4c>
 100b790:	9adf90ef          	jal	ra,100513c <bt_check_le_connected>
 100b794:	00050963          	beqz	a0,100b7a6 <power_handle+0x46>
 100b798:	4605                	li	a2,1
 100b79a:	00f10593          	addi	a1,sp,15
 100b79e:	03000513          	li	a0,48
 100b7a2:	e9ffa0ef          	jal	ra,1006640 <ATT_sendNotify>
 100b7a6:	0141                	addi	sp,sp,16
 100b7a8:	2f40106f          	j	100ca9c <__riscv_restore_0>
 100b7ac:	0100f737          	lui	a4,0x100f
 100b7b0:	6c072703          	lw	a4,1728(a4) # 100f6c0 <Att_List+0x31c>
 100b7b4:	00f70023          	sb	a5,0(a4)
 100b7b8:	b7fd                	j	100b7a6 <power_handle+0x46>

0100b7ba <remote_control_reinit>:
remote_control_reinit():
 100b7ba:	2be012ef          	jal	t0,100ca78 <__riscv_save_0>
 100b7be:	100147b7          	lui	a5,0x10014
 100b7c2:	46078623          	sb	zero,1132(a5) # 1001446c <mouse_on_off>
 100b7c6:	a4dfb0ef          	jal	ra,1007212 <keyscan_start>
 100b7ca:	4595                	li	a1,5
 100b7cc:	4511                	li	a0,4
 100b7ce:	f34f60ef          	jal	ra,1001f02 <software_timer_start>
 100b7d2:	e06fb0ef          	jal	ra,1006dd8 <vbat_reinit>
 100b7d6:	cb7fb0ef          	jal	ra,100748c <led_reinit>
 100b7da:	d48fd0ef          	jal	ra,1008d22 <voice_report_reinit>
 100b7de:	fdefe0ef          	jal	ra,1009fbc <mouse_reinit>
 100b7e2:	8cbfe0ef          	jal	ra,100a0ac <EulerAngle_Calculate_ReStart>
 100b7e6:	2b60106f          	j	100ca9c <__riscv_restore_0>

0100b7ea <mouse_switch>:
mouse_switch():
 100b7ea:	28e012ef          	jal	t0,100ca78 <__riscv_save_0>
 100b7ee:	100147b7          	lui	a5,0x10014
 100b7f2:	46c7c703          	lbu	a4,1132(a5) # 1001446c <mouse_on_off>
 100b7f6:	02070063          	beqz	a4,100b816 <mouse_switch+0x2c>
 100b7fa:	46078623          	sb	zero,1132(a5)
 100b7fe:	f2cfe0ef          	jal	ra,1009f2a <mouse_turn_off>
 100b802:	907f90ef          	jal	ra,1005108 <bt_disable_le_tx_md>
 100b806:	8d5f80ef          	jal	ra,10040da <System_ChangeXtal24M>
 100b80a:	4581                	li	a1,0
 100b80c:	4519                	li	a0,6
 100b80e:	ae0fb0ef          	jal	ra,1006aee <app_sleep_lock_set>
 100b812:	28a0106f          	j	100ca9c <__riscv_restore_0>
 100b816:	4705                	li	a4,1
 100b818:	46e78623          	sb	a4,1132(a5)
 100b81c:	f66fe0ef          	jal	ra,1009f82 <mouse_turn_on>
 100b820:	8f9f90ef          	jal	ra,1005118 <bt_enable_le_tx_md>
 100b824:	4501                	li	a0,0
 100b826:	875f80ef          	jal	ra,100409a <System_ChangeDPLL>
 100b82a:	4585                	li	a1,1
 100b82c:	b7c5                	j	100b80c <mouse_switch+0x22>

0100b82e <action_after_led_blk>:
action_after_led_blk():
 100b82e:	100117b7          	lui	a5,0x10011
 100b832:	bed7c703          	lbu	a4,-1043(a5) # 10010bed <led_state>
 100b836:	00070463          	beqz	a4,100b83e <action_after_led_blk+0x10>
 100b83a:	be0786a3          	sb	zero,-1043(a5)
 100b83e:	8082                	ret

0100b840 <action_after_mic_close>:
action_after_mic_close():
 100b840:	238012ef          	jal	t0,100ca78 <__riscv_save_0>
 100b844:	100117b7          	lui	a5,0x10011
 100b848:	4501                	li	a0,0
 100b84a:	be0786a3          	sb	zero,-1043(a5) # 10010bed <led_state>
 100b84e:	b3dfb0ef          	jal	ra,100738a <led_off>
 100b852:	24a0106f          	j	100ca9c <__riscv_restore_0>

0100b856 <LE_LTK_LOST>:
LE_LTK_LOST():
 100b856:	222012ef          	jal	t0,100ca78 <__riscv_save_0>
 100b85a:	0100d5b7          	lui	a1,0x100d
 100b85e:	0100f537          	lui	a0,0x100f
 100b862:	46c58593          	addi	a1,a1,1132 # 100d46c <AAP_StopAnc4+0x70>
 100b866:	e2850513          	addi	a0,a0,-472 # 100ee28 <msbc_flag_buf1+0xec>
 100b86a:	eeff50ef          	jal	ra,1001758 <print_string_log>
 100b86e:	8cff90ef          	jal	ra,100513c <bt_check_le_connected>
 100b872:	00050763          	beqz	a0,100b880 <LE_LTK_LOST+0x2a>
 100b876:	4519                	li	a0,6
 100b878:	8d5f90ef          	jal	ra,100514c <bt_send_le_disconnect>
 100b87c:	f13f90ef          	jal	ra,100578e <Bt_ClearRemoteDevInfo>
 100b880:	916fa0ef          	jal	ra,1005996 <Bt_ClearDeviceNvdataInfo>
 100b884:	03000593          	li	a1,48
 100b888:	4501                	li	a0,0
 100b88a:	202d                	jal	100b8b4 <start_adv>
 100b88c:	2100106f          	j	100ca9c <__riscv_restore_0>

0100b890 <update_conn_param>:
update_conn_param():
 100b890:	1e8012ef          	jal	t0,100ca78 <__riscv_save_0>
 100b894:	85aa                	mv	a1,a0
 100b896:	0100f537          	lui	a0,0x100f
 100b89a:	e4450513          	addi	a0,a0,-444 # 100ee44 <msbc_flag_buf1+0x108>
 100b89e:	ebbf50ef          	jal	ra,1001758 <print_string_log>
 100b8a2:	12c00693          	li	a3,300
 100b8a6:	4611                	li	a2,4
 100b8a8:	45a1                	li	a1,8
 100b8aa:	4521                	li	a0,8
 100b8ac:	fe0f90ef          	jal	ra,100508c <bt_le_conn_updata_param_req>
 100b8b0:	1ec0106f          	j	100ca9c <__riscv_restore_0>

0100b8b4 <start_adv>:
start_adv():
 100b8b4:	1c4012ef          	jal	t0,100ca78 <__riscv_save_0>
 100b8b8:	1141                	addi	sp,sp,-16
 100b8ba:	c42a                	sw	a0,8(sp)
 100b8bc:	00b11723          	sh	a1,14(sp)
 100b8c0:	4501                	li	a0,0
 100b8c2:	4585                	li	a1,1
 100b8c4:	a2afb0ef          	jal	ra,1006aee <app_sleep_lock_set>
 100b8c8:	47a2                	lw	a5,8(sp)
 100b8ca:	02079a63          	bnez	a5,100b8fe <start_adv+0x4a>
 100b8ce:	85bf90ef          	jal	ra,1005128 <bt_get_le_state>
 100b8d2:	4789                	li	a5,2
 100b8d4:	00f51363          	bne	a0,a5,100b8da <start_adv+0x26>
 100b8d8:	2081                	jal	100b918 <stop_adv>
 100b8da:	4505                	li	a0,1
 100b8dc:	857f90ef          	jal	ra,1005132 <bt_set_le_state>
 100b8e0:	0100f5b7          	lui	a1,0x100f
 100b8e4:	0048                	addi	a0,sp,4
 100b8e6:	466d                	li	a2,27
 100b8e8:	bb858593          	addi	a1,a1,-1096 # 100ebb8 <adv_data_buf>
 100b8ec:	e9af90ef          	jal	ra,1004f86 <bt_start_le_adv>
 100b8f0:	03c00513          	li	a0,60
 100b8f4:	b16fb0ef          	jal	ra,1006c0a <app_sleep_timer_set>
 100b8f8:	0141                	addi	sp,sp,16
 100b8fa:	1a20106f          	j	100ca9c <__riscv_restore_0>
 100b8fe:	4705                	li	a4,1
 100b900:	fee79ce3          	bne	a5,a4,100b8f8 <start_adv+0x44>
 100b904:	4509                	li	a0,2
 100b906:	82df90ef          	jal	ra,1005132 <bt_set_le_state>
 100b90a:	0048                	addi	a0,sp,4
 100b90c:	4601                	li	a2,0
 100b90e:	4581                	li	a1,0
 100b910:	e76f90ef          	jal	ra,1004f86 <bt_start_le_adv>
 100b914:	4529                	li	a0,10
 100b916:	bff9                	j	100b8f4 <start_adv+0x40>

0100b918 <stop_adv>:
stop_adv():
 100b918:	160012ef          	jal	t0,100ca78 <__riscv_save_0>
 100b91c:	821f90ef          	jal	ra,100513c <bt_check_le_connected>
 100b920:	00051d63          	bnez	a0,100b93a <stop_adv+0x22>
 100b924:	805f90ef          	jal	ra,1005128 <bt_get_le_state>
 100b928:	4789                	li	a5,2
 100b92a:	00f51a63          	bne	a0,a5,100b93e <stop_adv+0x26>
 100b92e:	4541                	li	a0,16
 100b930:	e5ff60ef          	jal	ra,100278e <IPC_TxControlCmd>
 100b934:	4501                	li	a0,0
 100b936:	ffcf90ef          	jal	ra,1005132 <bt_set_le_state>
 100b93a:	1620106f          	j	100ca9c <__riscv_restore_0>
 100b93e:	4539                	li	a0,14
 100b940:	bfc5                	j	100b930 <stop_adv+0x18>

0100b942 <Read_Blob_Parse>:
Read_Blob_Parse():
 100b942:	136012ef          	jal	t0,100ca78 <__riscv_save_0>
 100b946:	7111                	addi	sp,sp,-256
 100b948:	892a                	mv	s2,a0
 100b94a:	84ae                	mv	s1,a1
 100b94c:	0fb00613          	li	a2,251
 100b950:	4581                	li	a1,0
 100b952:	0048                	addi	a0,sp,4
 100b954:	270010ef          	jal	ra,100cbc4 <memset>
 100b958:	47b5                	li	a5,13
 100b95a:	00f10223          	sb	a5,4(sp)
 100b95e:	10005737          	lui	a4,0x10005
 100b962:	e4174683          	lbu	a3,-447(a4) # 10004e41 <_sidata+0xeff5269>
 100b966:	e4274783          	lbu	a5,-446(a4)
 100b96a:	00895403          	lhu	s0,8(s2)
 100b96e:	07a2                	slli	a5,a5,0x8
 100b970:	8fd5                	or	a5,a5,a3
 100b972:	8c05                	sub	s0,s0,s1
 100b974:	17fd                	addi	a5,a5,-1
 100b976:	00f44963          	blt	s0,a5,100b988 <Read_Blob_Parse+0x46>
 100b97a:	e4174583          	lbu	a1,-447(a4)
 100b97e:	e4274403          	lbu	s0,-446(a4)
 100b982:	0422                	slli	s0,s0,0x8
 100b984:	8c4d                	or	s0,s0,a1
 100b986:	147d                	addi	s0,s0,-1
 100b988:	00c92583          	lw	a1,12(s2)
 100b98c:	0442                	slli	s0,s0,0x10
 100b98e:	8041                	srli	s0,s0,0x10
 100b990:	8622                	mv	a2,s0
 100b992:	95a6                	add	a1,a1,s1
 100b994:	00510513          	addi	a0,sp,5
 100b998:	172010ef          	jal	ra,100cb0a <memcpy>
 100b99c:	00140593          	addi	a1,s0,1
 100b9a0:	0048                	addi	a0,sp,4
 100b9a2:	0ff5f593          	andi	a1,a1,255
 100b9a6:	c7bfa0ef          	jal	ra,1006620 <ATT_Send>
 100b9aa:	6111                	addi	sp,sp,256
 100b9ac:	0f00106f          	j	100ca9c <__riscv_restore_0>

0100b9b0 <Read_Parse>:
Read_Parse():
 100b9b0:	0c8012ef          	jal	t0,100ca78 <__riscv_save_0>
 100b9b4:	7111                	addi	sp,sp,-256
 100b9b6:	84aa                	mv	s1,a0
 100b9b8:	10000613          	li	a2,256
 100b9bc:	4581                	li	a1,0
 100b9be:	850a                	mv	a0,sp
 100b9c0:	204010ef          	jal	ra,100cbc4 <memset>
 100b9c4:	47ad                	li	a5,11
 100b9c6:	00f10023          	sb	a5,0(sp)
 100b9ca:	10005737          	lui	a4,0x10005
 100b9ce:	e4174683          	lbu	a3,-447(a4) # 10004e41 <_sidata+0xeff5269>
 100b9d2:	e4274783          	lbu	a5,-446(a4)
 100b9d6:	0084d403          	lhu	s0,8(s1)
 100b9da:	07a2                	slli	a5,a5,0x8
 100b9dc:	8fd5                	or	a5,a5,a3
 100b9de:	17fd                	addi	a5,a5,-1
 100b9e0:	00f44b63          	blt	s0,a5,100b9f6 <Read_Parse+0x46>
 100b9e4:	e4174583          	lbu	a1,-447(a4)
 100b9e8:	e4274403          	lbu	s0,-446(a4)
 100b9ec:	0422                	slli	s0,s0,0x8
 100b9ee:	8c4d                	or	s0,s0,a1
 100b9f0:	147d                	addi	s0,s0,-1
 100b9f2:	0442                	slli	s0,s0,0x10
 100b9f4:	8041                	srli	s0,s0,0x10
 100b9f6:	0004d583          	lhu	a1,0(s1)
 100b9fa:	0100f537          	lui	a0,0x100f
 100b9fe:	e5450513          	addi	a0,a0,-428 # 100ee54 <msbc_flag_buf1+0x118>
 100ba02:	d57f50ef          	jal	ra,1001758 <print_string_log>
 100ba06:	44cc                	lw	a1,12(s1)
 100ba08:	8622                	mv	a2,s0
 100ba0a:	00110513          	addi	a0,sp,1
 100ba0e:	0fc010ef          	jal	ra,100cb0a <memcpy>
 100ba12:	00140593          	addi	a1,s0,1
 100ba16:	0ff5f593          	andi	a1,a1,255
 100ba1a:	850a                	mv	a0,sp
 100ba1c:	c05fa0ef          	jal	ra,1006620 <ATT_Send>
 100ba20:	0004d703          	lhu	a4,0(s1)
 100ba24:	47d9                	li	a5,22
 100ba26:	02f71d63          	bne	a4,a5,100ba60 <Read_Parse+0xb0>
 100ba2a:	100147b7          	lui	a5,0x10014
 100ba2e:	46c7c783          	lbu	a5,1132(a5) # 1001446c <mouse_on_off>
 100ba32:	02079763          	bnez	a5,100ba60 <Read_Parse+0xb0>
 100ba36:	cddf90ef          	jal	ra,1005712 <Bt_CheckIsPaired>
 100ba3a:	00051763          	bnez	a0,100ba48 <Read_Parse+0x98>
 100ba3e:	100117b7          	lui	a5,0x10011
 100ba42:	4705                	li	a4,1
 100ba44:	bee78623          	sb	a4,-1044(a5) # 10010bec <paired_frst>
 100ba48:	4505                	li	a0,1
 100ba4a:	d1dfe0ef          	jal	ra,100a766 <set_app_rpt_timeout_type>
 100ba4e:	100107b7          	lui	a5,0x10010
 100ba52:	1897c503          	lbu	a0,393(a5) # 10010189 <app_rpt_timeout_timernum>
 100ba56:	4601                	li	a2,0
 100ba58:	1f400593          	li	a1,500
 100ba5c:	bbef60ef          	jal	ra,1001e1a <swtimer_start>
 100ba60:	6111                	addi	sp,sp,256
 100ba62:	03a0106f          	j	100ca9c <__riscv_restore_0>

0100ba66 <Write_DataParse>:
Write_DataParse():
 100ba66:	012012ef          	jal	t0,100ca78 <__riscv_save_0>
 100ba6a:	84ae                	mv	s1,a1
 100ba6c:	00055583          	lhu	a1,0(a0)
 100ba70:	892a                	mv	s2,a0
 100ba72:	0100f537          	lui	a0,0x100f
 100ba76:	fd850513          	addi	a0,a0,-40 # 100efd8 <unknow_1byte_17_2_rsp+0x9c>
 100ba7a:	8432                	mv	s0,a2
 100ba7c:	cddf50ef          	jal	ra,1001758 <print_string_log>
 100ba80:	00095503          	lhu	a0,0(s2)
 100ba84:	85a6                	mv	a1,s1
 100ba86:	8622                	mv	a2,s0
 100ba88:	b63fe0ef          	jal	ra,100a5ea <factory_WriteDataParse>
 100ba8c:	00095583          	lhu	a1,0(s2)
 100ba90:	02c00793          	li	a5,44
 100ba94:	16f59d63          	bne	a1,a5,100bc0e <Write_DataParse+0x1a8>
 100ba98:	4785                	li	a5,1
 100ba9a:	0cf41063          	bne	s0,a5,100bb5a <Write_DataParse+0xf4>
 100ba9e:	0004c783          	lbu	a5,0(s1)
 100baa2:	470d                	li	a4,3
 100baa4:	06e79663          	bne	a5,a4,100bb10 <Write_DataParse+0xaa>
 100baa8:	0100f537          	lui	a0,0x100f
 100baac:	ff450513          	addi	a0,a0,-12 # 100eff4 <unknow_1byte_17_2_rsp+0xb8>
 100bab0:	ca9f50ef          	jal	ra,1001758 <print_string_log>
 100bab4:	100117b7          	lui	a5,0x10011
 100bab8:	c08783a3          	sb	s0,-1017(a5) # 10010c07 <app_pkt_type>
 100babc:	100117b7          	lui	a5,0x10011
 100bac0:	c997c703          	lbu	a4,-871(a5) # 10010c99 <frame_seq>
 100bac4:	100117b7          	lui	a5,0x10011
 100bac8:	10011437          	lui	s0,0x10011
 100bacc:	c0e78323          	sb	a4,-1018(a5) # 10010c06 <audio_frame_seq>
 100bad0:	100107b7          	lui	a5,0x10010
 100bad4:	bf040713          	addi	a4,s0,-1040 # 10010bf0 <usr_axis_key_buf>
 100bad8:	180786a3          	sb	zero,397(a5) # 1001018d <axis_key_enable>
 100badc:	57f9                	li	a5,-2
 100bade:	00f70123          	sb	a5,2(a4)
 100bae2:	6785                	lui	a5,0x1
 100bae4:	a8078793          	addi	a5,a5,-1408 # a80 <__EN_MIE-0xfff5fe>
 100bae8:	00f71823          	sh	a5,16(a4)
 100baec:	100117b7          	lui	a5,0x10011
 100baf0:	c8078da3          	sb	zero,-869(a5) # 10010c9b <app_ka_cur_state>
 100baf4:	b20ff0ef          	jal	ra,100ae14 <update_frm_head>
 100baf8:	464d                	li	a2,19
 100bafa:	bf040593          	addi	a1,s0,-1040
 100bafe:	02200513          	li	a0,34
 100bb02:	b3ffa0ef          	jal	ra,1006640 <ATT_sendNotify>
 100bb06:	c44fe0ef          	jal	ra,1009f4a <mouse_off>
 100bb0a:	946fd0ef          	jal	ra,1008c50 <mic_open>
 100bb0e:	a03d                	j	100bb3c <Write_DataParse+0xd6>
 100bb10:	4711                	li	a4,4
 100bb12:	02e79763          	bne	a5,a4,100bb40 <Write_DataParse+0xda>
 100bb16:	0100f537          	lui	a0,0x100f
 100bb1a:	ffc50513          	addi	a0,a0,-4 # 100effc <unknow_1byte_17_2_rsp+0xc0>
 100bb1e:	c3bf50ef          	jal	ra,1001758 <print_string_log>
 100bb22:	8d0fd0ef          	jal	ra,1008bf2 <mic_close>
 100bb26:	c2efe0ef          	jal	ra,1009f54 <mouse_on>
 100bb2a:	4785                	li	a5,1
 100bb2c:	10010737          	lui	a4,0x10010
 100bb30:	18f706a3          	sb	a5,397(a4) # 1001018d <axis_key_enable>
 100bb34:	10011737          	lui	a4,0x10011
 100bb38:	caf70023          	sb	a5,-864(a4) # 10010ca0 <kv04_cmd_rpt_pkt_en>
 100bb3c:	7610006f          	j	100ca9c <__riscv_restore_0>
 100bb40:	06d00713          	li	a4,109
 100bb44:	02e79e63          	bne	a5,a4,100bb80 <Write_DataParse+0x11a>
 100bb48:	0100f5b7          	lui	a1,0x100f
 100bb4c:	4609                	li	a2,2
 100bb4e:	e6858593          	addi	a1,a1,-408 # 100ee68 <handle_44_6d_rsp_buf>
 100bb52:	4565                	li	a0,25
 100bb54:	aedfa0ef          	jal	ra,1006640 <ATT_sendNotify>
 100bb58:	b7d5                	j	100bb3c <Write_DataParse+0xd6>
 100bb5a:	4789                	li	a5,2
 100bb5c:	fef410e3          	bne	s0,a5,100bb3c <Write_DataParse+0xd6>
 100bb60:	0100f537          	lui	a0,0x100f
 100bb64:	4609                	li	a2,2
 100bb66:	85a6                	mv	a1,s1
 100bb68:	e6c50513          	addi	a0,a0,-404 # 100ee6c <handle_44_6c_buf>
 100bb6c:	779000ef          	jal	ra,100cae4 <memcmp>
 100bb70:	fc0516e3          	bnez	a0,100bb3c <Write_DataParse+0xd6>
 100bb74:	0100f5b7          	lui	a1,0x100f
 100bb78:	4609                	li	a2,2
 100bb7a:	e7058593          	addi	a1,a1,-400 # 100ee70 <handle_44_6c_rsp_buf>
 100bb7e:	bfd1                	j	100bb52 <Write_DataParse+0xec>
 100bb80:	4505                	li	a0,1
 100bb82:	00878663          	beq	a5,s0,100bb8e <Write_DataParse+0x128>
 100bb86:	4709                	li	a4,2
 100bb88:	00e79663          	bne	a5,a4,100bb94 <Write_DataParse+0x12e>
 100bb8c:	4509                	li	a0,2
 100bb8e:	b02ff0ef          	jal	ra,100ae90 <set_kvcmd_state>
 100bb92:	b76d                	j	100bb3c <Write_DataParse+0xd6>
 100bb94:	474d                	li	a4,19
 100bb96:	02e79063          	bne	a5,a4,100bbb6 <Write_DataParse+0x150>
 100bb9a:	10011737          	lui	a4,0x10011
 100bb9e:	c0574783          	lbu	a5,-1019(a4) # 10010c05 <tv_type_state>
 100bba2:	0100f5b7          	lui	a1,0x100f
 100bba6:	4631                	li	a2,12
 100bba8:	0027e793          	ori	a5,a5,2
 100bbac:	c0f702a3          	sb	a5,-1019(a4)
 100bbb0:	e8858593          	addi	a1,a1,-376 # 100ee88 <handle_44_kv13_rsp_buf>
 100bbb4:	bf79                	j	100bb52 <Write_DataParse+0xec>
 100bbb6:	475d                	li	a4,23
 100bbb8:	02e79a63          	bne	a5,a4,100bbec <Write_DataParse+0x186>
 100bbbc:	10011737          	lui	a4,0x10011
 100bbc0:	c0574783          	lbu	a5,-1019(a4) # 10010c05 <tv_type_state>
 100bbc4:	0047e793          	ori	a5,a5,4
 100bbc8:	c0f702a3          	sb	a5,-1019(a4)
 100bbcc:	0100f5b7          	lui	a1,0x100f
 100bbd0:	09a00613          	li	a2,154
 100bbd4:	ea058593          	addi	a1,a1,-352 # 100eea0 <unknow_1byte_17_rsp>
 100bbd8:	4565                	li	a0,25
 100bbda:	a67fa0ef          	jal	ra,1006640 <ATT_sendNotify>
 100bbde:	0100f5b7          	lui	a1,0x100f
 100bbe2:	09a00613          	li	a2,154
 100bbe6:	f3c58593          	addi	a1,a1,-196 # 100ef3c <unknow_1byte_17_2_rsp>
 100bbea:	b7a5                	j	100bb52 <Write_DataParse+0xec>
 100bbec:	4765                	li	a4,25
 100bbee:	f4e797e3          	bne	a5,a4,100bb3c <Write_DataParse+0xd6>
 100bbf2:	10011737          	lui	a4,0x10011
 100bbf6:	c0574783          	lbu	a5,-1019(a4) # 10010c05 <tv_type_state>
 100bbfa:	0100f5b7          	lui	a1,0x100f
 100bbfe:	4631                	li	a2,12
 100bc00:	0087e793          	ori	a5,a5,8
 100bc04:	c0f702a3          	sb	a5,-1019(a4)
 100bc08:	e9458593          	addi	a1,a1,-364 # 100ee94 <handle_44_kv19_rsp_buf>
 100bc0c:	b799                	j	100bb52 <Write_DataParse+0xec>
 100bc0e:	47f9                	li	a5,30
 100bc10:	0ef59563          	bne	a1,a5,100bcfa <Write_DataParse+0x294>
 100bc14:	4785                	li	a5,1
 100bc16:	f2f413e3          	bne	s0,a5,100bb3c <Write_DataParse+0xd6>
 100bc1a:	0004c783          	lbu	a5,0(s1)
 100bc1e:	470d                	li	a4,3
 100bc20:	08e79163          	bne	a5,a4,100bca2 <Write_DataParse+0x23c>
 100bc24:	0100f537          	lui	a0,0x100f
 100bc28:	ff450513          	addi	a0,a0,-12 # 100eff4 <unknow_1byte_17_2_rsp+0xb8>
 100bc2c:	b2df50ef          	jal	ra,1001758 <print_string_log>
 100bc30:	100117b7          	lui	a5,0x10011
 100bc34:	c08783a3          	sb	s0,-1017(a5) # 10010c07 <app_pkt_type>
 100bc38:	100117b7          	lui	a5,0x10011
 100bc3c:	c997c703          	lbu	a4,-871(a5) # 10010c99 <frame_seq>
 100bc40:	100117b7          	lui	a5,0x10011
 100bc44:	100114b7          	lui	s1,0x10011
 100bc48:	c0e78323          	sb	a4,-1018(a5) # 10010c06 <audio_frame_seq>
 100bc4c:	100107b7          	lui	a5,0x10010
 100bc50:	bf048713          	addi	a4,s1,-1040 # 10010bf0 <usr_axis_key_buf>
 100bc54:	180786a3          	sb	zero,397(a5) # 1001018d <axis_key_enable>
 100bc58:	57f9                	li	a5,-2
 100bc5a:	00f70123          	sb	a5,2(a4)
 100bc5e:	6785                	lui	a5,0x1
 100bc60:	a8078793          	addi	a5,a5,-1408 # a80 <__EN_MIE-0xfff5fe>
 100bc64:	00f71823          	sh	a5,16(a4)
 100bc68:	100117b7          	lui	a5,0x10011
 100bc6c:	c8078da3          	sb	zero,-869(a5) # 10010c9b <app_ka_cur_state>
 100bc70:	9a4ff0ef          	jal	ra,100ae14 <update_frm_head>
 100bc74:	464d                	li	a2,19
 100bc76:	bf048593          	addi	a1,s1,-1040
 100bc7a:	02200513          	li	a0,34
 100bc7e:	9c3fa0ef          	jal	ra,1006640 <ATT_sendNotify>
 100bc82:	ac8fe0ef          	jal	ra,1009f4a <mouse_off>
 100bc86:	100117b7          	lui	a5,0x10011
 100bc8a:	bed7c703          	lbu	a4,-1043(a5) # 10010bed <led_state>
 100bc8e:	e6071ee3          	bnez	a4,100bb0a <Write_DataParse+0xa4>
 100bc92:	4601                	li	a2,0
 100bc94:	4581                	li	a1,0
 100bc96:	4501                	li	a0,0
 100bc98:	be8786a3          	sb	s0,-1043(a5)
 100bc9c:	f34fb0ef          	jal	ra,10073d0 <led_on>
 100bca0:	b5ad                	j	100bb0a <Write_DataParse+0xa4>
 100bca2:	4711                	li	a4,4
 100bca4:	e6e789e3          	beq	a5,a4,100bb16 <Write_DataParse+0xb0>
 100bca8:	4745                	li	a4,17
 100bcaa:	02e79663          	bne	a5,a4,100bcd6 <Write_DataParse+0x270>
 100bcae:	100117b7          	lui	a5,0x10011
 100bcb2:	c057c583          	lbu	a1,-1019(a5) # 10010c05 <tv_type_state>
 100bcb6:	0100f537          	lui	a0,0x100f
 100bcba:	00450513          	addi	a0,a0,4 # 100f004 <unknow_1byte_17_2_rsp+0xc8>
 100bcbe:	0015e593          	ori	a1,a1,1
 100bcc2:	c0b782a3          	sb	a1,-1019(a5)
 100bcc6:	a93f50ef          	jal	ra,1001758 <print_string_log>
 100bcca:	0100f5b7          	lui	a1,0x100f
 100bcce:	4645                	li	a2,17
 100bcd0:	e7458593          	addi	a1,a1,-396 # 100ee74 <handle_44_kv11_rsp_buf>
 100bcd4:	bdbd                	j	100bb52 <Write_DataParse+0xec>
 100bcd6:	475d                	li	a4,23
 100bcd8:	e6e792e3          	bne	a5,a4,100bb3c <Write_DataParse+0xd6>
 100bcdc:	100117b7          	lui	a5,0x10011
 100bce0:	c057c583          	lbu	a1,-1019(a5) # 10010c05 <tv_type_state>
 100bce4:	0100f537          	lui	a0,0x100f
 100bce8:	01050513          	addi	a0,a0,16 # 100f010 <unknow_1byte_17_2_rsp+0xd4>
 100bcec:	0045e593          	ori	a1,a1,4
 100bcf0:	c0b782a3          	sb	a1,-1019(a5)
 100bcf4:	a65f50ef          	jal	ra,1001758 <print_string_log>
 100bcf8:	bdd1                	j	100bbcc <Write_DataParse+0x166>
 100bcfa:	67c1                	lui	a5,0x10
 100bcfc:	1785                	addi	a5,a5,-31
 100bcfe:	06f59363          	bne	a1,a5,100bd64 <Write_DataParse+0x2fe>
 100bd02:	ddffa0ef          	jal	ra,1006ae0 <app_sleep_check>
 100bd06:	00050663          	beqz	a0,100bd12 <Write_DataParse+0x2ac>
 100bd0a:	4595                	li	a1,5
 100bd0c:	4511                	li	a0,4
 100bd0e:	9f4f60ef          	jal	ra,1001f02 <software_timer_start>
 100bd12:	4585                	li	a1,1
 100bd14:	4505                	li	a0,1
 100bd16:	dd9fa0ef          	jal	ra,1006aee <app_sleep_lock_set>
 100bd1a:	4581                	li	a1,0
 100bd1c:	4501                	li	a0,0
 100bd1e:	dd1fa0ef          	jal	ra,1006aee <app_sleep_lock_set>
 100bd22:	30047073          	csrci	mstatus,8
 100bd26:	10011937          	lui	s2,0x10011
 100bd2a:	cec95783          	lhu	a5,-788(s2) # 10010cec <gOsEnterCriticalCnt>
 100bd2e:	85a6                	mv	a1,s1
 100bd30:	8522                	mv	a0,s0
 100bd32:	0785                	addi	a5,a5,1
 100bd34:	cef91623          	sh	a5,-788(s2)
 100bd38:	db9f90ef          	jal	ra,1005af0 <OTA_EVT_HANDLE>
 100bd3c:	00050863          	beqz	a0,100bd4c <Write_DataParse+0x2e6>
 100bd40:	d93f90ef          	jal	ra,1005ad2 <OTA_RESET>
 100bd44:	4581                	li	a1,0
 100bd46:	4505                	li	a0,1
 100bd48:	da7fa0ef          	jal	ra,1006aee <app_sleep_lock_set>
 100bd4c:	cec95783          	lhu	a5,-788(s2)
 100bd50:	17fd                	addi	a5,a5,-1
 100bd52:	07c2                	slli	a5,a5,0x10
 100bd54:	83c1                	srli	a5,a5,0x10
 100bd56:	cef91623          	sh	a5,-788(s2)
 100bd5a:	de0791e3          	bnez	a5,100bb3c <Write_DataParse+0xd6>
 100bd5e:	30046073          	csrsi	mstatus,8
 100bd62:	bbe9                	j	100bb3c <Write_DataParse+0xd6>
 100bd64:	00895783          	lhu	a5,8(s2)
 100bd68:	8622                	mv	a2,s0
 100bd6a:	0087e863          	bltu	a5,s0,100bd7a <Write_DataParse+0x314>
 100bd6e:	00c92503          	lw	a0,12(s2)
 100bd72:	85a6                	mv	a1,s1
 100bd74:	597000ef          	jal	ra,100cb0a <memcpy>
 100bd78:	b3d1                	j	100bb3c <Write_DataParse+0xd6>
 100bd7a:	0100f537          	lui	a0,0x100f
 100bd7e:	01c50513          	addi	a0,a0,28 # 100f01c <unknow_1byte_17_2_rsp+0xe0>
 100bd82:	9d7f50ef          	jal	ra,1001758 <print_string_log>
 100bd86:	bb5d                	j	100bb3c <Write_DataParse+0xd6>

0100bd88 <CONN_PARAM_ACCEPTED>:
CONN_PARAM_ACCEPTED():
 100bd88:	4f1002ef          	jal	t0,100ca78 <__riscv_save_0>
 100bd8c:	10000437          	lui	s0,0x10000
 100bd90:	4f344583          	lbu	a1,1267(s0) # 100004f3 <_sidata+0xeff091b>
 100bd94:	4f444783          	lbu	a5,1268(s0)
 100bd98:	0100f537          	lui	a0,0x100f
 100bd9c:	05050513          	addi	a0,a0,80 # 100f050 <unknow_1byte_17_2_rsp+0x114>
 100bda0:	07a2                	slli	a5,a5,0x8
 100bda2:	8ddd                	or	a1,a1,a5
 100bda4:	9b5f50ef          	jal	ra,1001758 <print_string_log>
 100bda8:	4f344703          	lbu	a4,1267(s0)
 100bdac:	4f444783          	lbu	a5,1268(s0)
 100bdb0:	07a2                	slli	a5,a5,0x8
 100bdb2:	8fd9                	or	a5,a5,a4
 100bdb4:	06300713          	li	a4,99
 100bdb8:	00e79c63          	bne	a5,a4,100bdd0 <CONN_PARAM_ACCEPTED+0x48>
 100bdbc:	32000513          	li	a0,800
 100bdc0:	be4f90ef          	jal	ra,10051a4 <bt_set_connect_lpm_period>
 100bdc4:	4585                	li	a1,1
 100bdc6:	451d                	li	a0,7
 100bdc8:	d27fa0ef          	jal	ra,1006aee <app_sleep_lock_set>
 100bdcc:	f61fd0ef          	jal	ra,1009d2c <mouse_lpm_int_mode>
 100bdd0:	4cd0006f          	j	100ca9c <__riscv_restore_0>

0100bdd4 <ENCRYPT_DONE>:
ENCRYPT_DONE():
 100bdd4:	4a5002ef          	jal	t0,100ca78 <__riscv_save_0>
 100bdd8:	0100f537          	lui	a0,0x100f
 100bddc:	06850513          	addi	a0,a0,104 # 100f068 <unknow_1byte_17_2_rsp+0x12c>
 100bde0:	979f50ef          	jal	ra,1001758 <print_string_log>
 100bde4:	6505                	lui	a0,0x1
 100bde6:	38850513          	addi	a0,a0,904 # 1388 <__EN_MIE-0xffecf6>
 100bdea:	e21fa0ef          	jal	ra,1006c0a <app_sleep_timer_set>
 100bdee:	4505                	li	a0,1
 100bdf0:	d9afb0ef          	jal	ra,100738a <led_off>
 100bdf4:	91ff90ef          	jal	ra,1005712 <Bt_CheckIsPaired>
 100bdf8:	02050a63          	beqz	a0,100be2c <ENCRYPT_DONE+0x58>
 100bdfc:	100147b7          	lui	a5,0x10014
 100be00:	46c7c783          	lbu	a5,1132(a5) # 1001446c <mouse_on_off>
 100be04:	02079463          	bnez	a5,100be2c <ENCRYPT_DONE+0x58>
 100be08:	100117b7          	lui	a5,0x10011
 100be0c:	bec7c783          	lbu	a5,-1044(a5) # 10010bec <paired_frst>
 100be10:	00079e63          	bnez	a5,100be2c <ENCRYPT_DONE+0x58>
 100be14:	0100f537          	lui	a0,0x100f
 100be18:	07850513          	addi	a0,a0,120 # 100f078 <unknow_1byte_17_2_rsp+0x13c>
 100be1c:	93df50ef          	jal	ra,1001758 <print_string_log>
 100be20:	0100b537          	lui	a0,0x100b
 100be24:	35050513          	addi	a0,a0,848 # 100b350 <mouse_handle>
 100be28:	9b8fe0ef          	jal	ra,1009fe0 <mouse_init>
 100be2c:	4501                	li	a0,0
 100be2e:	a63ff0ef          	jal	ra,100b890 <update_conn_param>
 100be32:	46b0006f          	j	100ca9c <__riscv_restore_0>

0100be36 <PAIR_FAIL>:
PAIR_FAIL():
 100be36:	443002ef          	jal	t0,100ca78 <__riscv_save_0>
 100be3a:	85aa                	mv	a1,a0
 100be3c:	0100f537          	lui	a0,0x100f
 100be40:	09450513          	addi	a0,a0,148 # 100f094 <unknow_1byte_17_2_rsp+0x158>
 100be44:	915f50ef          	jal	ra,1001758 <print_string_log>
 100be48:	4550006f          	j	100ca9c <__riscv_restore_0>

0100be4c <PAIR_DONE>:
PAIR_DONE():
 100be4c:	42d002ef          	jal	t0,100ca78 <__riscv_save_0>
 100be50:	0100f537          	lui	a0,0x100f
 100be54:	0b050513          	addi	a0,a0,176 # 100f0b0 <unknow_1byte_17_2_rsp+0x174>
 100be58:	901f50ef          	jal	ra,1001758 <print_string_log>
 100be5c:	6509                	lui	a0,0x2
 100be5e:	71050513          	addi	a0,a0,1808 # 2710 <__EN_MIE-0xffd96e>
 100be62:	da9fa0ef          	jal	ra,1006c0a <app_sleep_timer_set>
 100be66:	100117b7          	lui	a5,0x10011
 100be6a:	4705                	li	a4,1
 100be6c:	3e800613          	li	a2,1000
 100be70:	0c800593          	li	a1,200
 100be74:	4501                	li	a0,0
 100be76:	bee786a3          	sb	a4,-1043(a5) # 10010bed <led_state>
 100be7a:	d56fb0ef          	jal	ra,10073d0 <led_on>
 100be7e:	41f0006f          	j	100ca9c <__riscv_restore_0>

0100be82 <LE_DISCONNECTED>:
LE_DISCONNECTED():
 100be82:	3f7002ef          	jal	t0,100ca78 <__riscv_save_0>
 100be86:	85aa                	mv	a1,a0
 100be88:	0100f537          	lui	a0,0x100f
 100be8c:	0c050513          	addi	a0,a0,192 # 100f0c0 <unknow_1byte_17_2_rsp+0x184>
 100be90:	8c9f50ef          	jal	ra,1001758 <print_string_log>
 100be94:	100117b7          	lui	a5,0x10011
 100be98:	be078623          	sb	zero,-1044(a5) # 10010bec <paired_frst>
 100be9c:	fd2f80ef          	jal	ra,100466e <Bt_HciFifo_Init>
 100bea0:	4581                	li	a1,0
 100bea2:	451d                	li	a0,7
 100bea4:	c4bfa0ef          	jal	ra,1006aee <app_sleep_lock_set>
 100bea8:	4501                	li	a0,0
 100beaa:	a88f90ef          	jal	ra,1005132 <bt_set_le_state>
 100beae:	a2cf80ef          	jal	ra,10040da <System_ChangeXtal24M>
 100beb2:	a0bfa0ef          	jal	ra,10068bc <app_queue_reset>
 100beb6:	905ff0ef          	jal	ra,100b7ba <remote_control_reinit>
 100beba:	bcdfa0ef          	jal	ra,1006a86 <enter_deep_sleep>
 100bebe:	3df0006f          	j	100ca9c <__riscv_restore_0>

0100bec2 <LE_CONNECTED>:
LE_CONNECTED():
 100bec2:	3b7002ef          	jal	t0,100ca78 <__riscv_save_0>
 100bec6:	0100f537          	lui	a0,0x100f
 100beca:	0e050513          	addi	a0,a0,224 # 100f0e0 <unknow_1byte_17_2_rsp+0x1a4>
 100bece:	88bf50ef          	jal	ra,1001758 <print_string_log>
 100bed2:	452d                	li	a0,11
 100bed4:	ac2f90ef          	jal	ra,1005196 <bt_set_lpm_overhead_wake_time>
 100bed8:	4511                	li	a0,4
 100beda:	a58f90ef          	jal	ra,1005132 <bt_set_le_state>
 100bede:	a2af90ef          	jal	ra,1005108 <bt_disable_le_tx_md>
 100bee2:	edbf80ef          	jal	ra,1004dbc <bt_check_save_connect_info>
 100bee6:	00050563          	beqz	a0,100bef0 <LE_CONNECTED+0x2e>
 100beea:	4501                	li	a0,0
 100beec:	b54f90ef          	jal	ra,1005240 <Bt_SaveBleDeviceInfoToFlash>
 100bef0:	3ad0006f          	j	100ca9c <__riscv_restore_0>

0100bef4 <Dev_WakeUp>:
Dev_WakeUp():
 100bef4:	385002ef          	jal	t0,100ca78 <__riscv_save_0>
 100bef8:	0100f537          	lui	a0,0x100f
 100befc:	0f050513          	addi	a0,a0,240 # 100f0f0 <unknow_1byte_17_2_rsp+0x1b4>
 100bf00:	859f50ef          	jal	ra,1001758 <print_string_log>
 100bf04:	0b000513          	li	a0,176
 100bf08:	887f60ef          	jal	ra,100278e <IPC_TxControlCmd>
 100bf0c:	d2ef90ef          	jal	ra,100543a <Flash_LoadFlashRecord>
 100bf10:	ddaf90ef          	jal	ra,10054ea <Bt_ReadAddrFromFlash>
 100bf14:	c7cf80ef          	jal	ra,1004390 <Lpm_GetWakeFlag>
 100bf18:	00051963          	bnez	a0,100bf2a <Dev_WakeUp+0x36>
 100bf1c:	0100f537          	lui	a0,0x100f
 100bf20:	45a9                	li	a1,10
 100bf22:	bd450513          	addi	a0,a0,-1068 # 100ebd4 <scan_rsp_data_buf>
 100bf26:	82af90ef          	jal	ra,1004f50 <bt_renew_scan_rsp>
 100bf2a:	30047073          	csrci	mstatus,8
 100bf2e:	10011437          	lui	s0,0x10011
 100bf32:	cec45783          	lhu	a5,-788(s0) # 10010cec <gOsEnterCriticalCnt>
 100bf36:	0785                	addi	a5,a5,1
 100bf38:	cef41623          	sh	a5,-788(s0)
 100bf3c:	fd6f90ef          	jal	ra,1005712 <Bt_CheckIsPaired>
 100bf40:	00051463          	bnez	a0,100bf48 <Dev_WakeUp+0x54>
 100bf44:	fc5f80ef          	jal	ra,1004f08 <bt_send_security_request>
 100bf48:	cec45783          	lhu	a5,-788(s0)
 100bf4c:	17fd                	addi	a5,a5,-1
 100bf4e:	07c2                	slli	a5,a5,0x10
 100bf50:	83c1                	srli	a5,a5,0x10
 100bf52:	cef41623          	sh	a5,-788(s0)
 100bf56:	00079463          	bnez	a5,100bf5e <Dev_WakeUp+0x6a>
 100bf5a:	30046073          	csrsi	mstatus,8
 100bf5e:	fb4f90ef          	jal	ra,1005712 <Bt_CheckIsPaired>
 100bf62:	45c1                	li	a1,16
 100bf64:	00050463          	beqz	a0,100bf6c <Dev_WakeUp+0x78>
 100bf68:	45a1                	li	a1,8
 100bf6a:	4505                	li	a0,1
 100bf6c:	949ff0ef          	jal	ra,100b8b4 <start_adv>
 100bf70:	32d0006f          	j	100ca9c <__riscv_restore_0>

0100bf74 <Dev_PowerOn>:
Dev_PowerOn():
 100bf74:	305002ef          	jal	t0,100ca78 <__riscv_save_0>
 100bf78:	0100f537          	lui	a0,0x100f
 100bf7c:	0f050513          	addi	a0,a0,240 # 100f0f0 <unknow_1byte_17_2_rsp+0x1b4>
 100bf80:	fd8f50ef          	jal	ra,1001758 <print_string_log>
 100bf84:	0b000513          	li	a0,176
 100bf88:	807f60ef          	jal	ra,100278e <IPC_TxControlCmd>
 100bf8c:	caef90ef          	jal	ra,100543a <Flash_LoadFlashRecord>
 100bf90:	d5af90ef          	jal	ra,10054ea <Bt_ReadAddrFromFlash>
 100bf94:	bfcf80ef          	jal	ra,1004390 <Lpm_GetWakeFlag>
 100bf98:	00051963          	bnez	a0,100bfaa <Dev_PowerOn+0x36>
 100bf9c:	0100f537          	lui	a0,0x100f
 100bfa0:	45a9                	li	a1,10
 100bfa2:	bd450513          	addi	a0,a0,-1068 # 100ebd4 <scan_rsp_data_buf>
 100bfa6:	fabf80ef          	jal	ra,1004f50 <bt_renew_scan_rsp>
 100bfaa:	30047073          	csrci	mstatus,8
 100bfae:	10011437          	lui	s0,0x10011
 100bfb2:	cec45783          	lhu	a5,-788(s0) # 10010cec <gOsEnterCriticalCnt>
 100bfb6:	0785                	addi	a5,a5,1
 100bfb8:	cef41623          	sh	a5,-788(s0)
 100bfbc:	f56f90ef          	jal	ra,1005712 <Bt_CheckIsPaired>
 100bfc0:	00051463          	bnez	a0,100bfc8 <Dev_PowerOn+0x54>
 100bfc4:	f45f80ef          	jal	ra,1004f08 <bt_send_security_request>
 100bfc8:	cec45783          	lhu	a5,-788(s0)
 100bfcc:	17fd                	addi	a5,a5,-1
 100bfce:	07c2                	slli	a5,a5,0x10
 100bfd0:	83c1                	srli	a5,a5,0x10
 100bfd2:	cef41623          	sh	a5,-788(s0)
 100bfd6:	00079463          	bnez	a5,100bfde <Dev_PowerOn+0x6a>
 100bfda:	30046073          	csrsi	mstatus,8
 100bfde:	f34f90ef          	jal	ra,1005712 <Bt_CheckIsPaired>
 100bfe2:	45c1                	li	a1,16
 100bfe4:	00050463          	beqz	a0,100bfec <Dev_PowerOn+0x78>
 100bfe8:	45a1                	li	a1,8
 100bfea:	4505                	li	a0,1
 100bfec:	8c9ff0ef          	jal	ra,100b8b4 <start_adv>
 100bff0:	3e800613          	li	a2,1000
 100bff4:	0c800593          	li	a1,200
 100bff8:	4501                	li	a0,0
 100bffa:	bd6fb0ef          	jal	ra,10073d0 <led_on>
 100bffe:	29f0006f          	j	100ca9c <__riscv_restore_0>

0100c002 <app_task_run>:
app_task_run():
 100c002:	277002ef          	jal	t0,100ca78 <__riscv_save_0>
 100c006:	100117b7          	lui	a5,0x10011
 100c00a:	beb7c783          	lbu	a5,-1045(a5) # 10010beb <tx_power_switch>
 100c00e:	00078463          	beqz	a5,100c016 <app_task_run+0x14>
 100c012:	9b4f90ef          	jal	ra,10051c6 <bt_dynamic_switch_power>
 100c016:	837fa0ef          	jal	ra,100684c <app_queue_task>
 100c01a:	2830006f          	j	100ca9c <__riscv_restore_0>

0100c01e <app_init>:
app_init():
 100c01e:	25b002ef          	jal	t0,100ca78 <__riscv_save_0>
 100c022:	b6ef80ef          	jal	ra,1004390 <Lpm_GetWakeFlag>
 100c026:	10051a63          	bnez	a0,100c13a <app_init+0x11c>
 100c02a:	0fb00513          	li	a0,251
 100c02e:	8c6f90ef          	jal	ra,10050f4 <bt_set_le_mtu_size>
 100c032:	4505                	li	a0,1
 100c034:	ecbf80ef          	jal	ra,1004efe <bt_set_auth_for_security_req>
 100c038:	f07f80ef          	jal	ra,1004f3e <bt_update_dle>
 100c03c:	edff80ef          	jal	ra,1004f1a <bt_update_mtu>
 100c040:	eedf80ef          	jal	ra,1004f2c <bt_update_slave_feature>
 100c044:	4521                	li	a0,8
 100c046:	eaff80ef          	jal	ra,1004ef4 <bt_set_ce_length_num>
 100c04a:	4595                	li	a1,5
 100c04c:	4511                	li	a0,4
 100c04e:	eb5f50ef          	jal	ra,1001f02 <software_timer_start>
 100c052:	c25fa0ef          	jal	ra,1006c76 <app_sleep_init>
 100c056:	0100b537          	lui	a0,0x100b
 100c05a:	76050513          	addi	a0,a0,1888 # 100b760 <power_handle>
 100c05e:	dbdfa0ef          	jal	ra,1006e1a <vbat_init>
 100c062:	c52fb0ef          	jal	ra,10074b4 <led_init>
 100c066:	cd7fc0ef          	jal	ra,1008d3c <voice_report_init>
 100c06a:	02600593          	li	a1,38
 100c06e:	03200513          	li	a0,50
 100c072:	82bfc0ef          	jal	ra,100889c <ir_init>
 100c076:	0100b5b7          	lui	a1,0x100b
 100c07a:	55258593          	addi	a1,a1,1362 # 100b552 <keyvalue_handle>
 100c07e:	4501                	li	a0,0
 100c080:	9cafb0ef          	jal	ra,100724a <keyscan_init>
 100c084:	f93fd0ef          	jal	ra,100a016 <check_mouse_chip_id>
 100c088:	cb2fe0ef          	jal	ra,100a53a <encode_timer_init>
 100c08c:	0100b537          	lui	a0,0x100b
 100c090:	3c850513          	addi	a0,a0,968 # 100b3c8 <app_rpt_timeout_handle>
 100c094:	dfbf50ef          	jal	ra,1001e8e <swtimer_add>
 100c098:	100107b7          	lui	a5,0x10010
 100c09c:	18a784a3          	sb	a0,393(a5) # 10010189 <app_rpt_timeout_timernum>
 100c0a0:	0100b537          	lui	a0,0x100b
 100c0a4:	47c50513          	addi	a0,a0,1148 # 100b47c <key_pressed_handle>
 100c0a8:	de7f50ef          	jal	ra,1001e8e <swtimer_add>
 100c0ac:	100107b7          	lui	a5,0x10010
 100c0b0:	18a78523          	sb	a0,394(a5) # 1001018a <brand_pressed_timernum>
 100c0b4:	0100b537          	lui	a0,0x100b
 100c0b8:	43e50513          	addi	a0,a0,1086 # 100b43e <encode_handle>
 100c0bc:	dd3f50ef          	jal	ra,1001e8e <swtimer_add>
 100c0c0:	10010437          	lui	s0,0x10010
 100c0c4:	18a405a3          	sb	a0,395(s0) # 1001018b <encode_timernum>
 100c0c8:	0100b537          	lui	a0,0x100b
 100c0cc:	47a50513          	addi	a0,a0,1146 # 100b47a <ir_list_handle>
 100c0d0:	dbff50ef          	jal	ra,1001e8e <swtimer_add>
 100c0d4:	100107b7          	lui	a5,0x10010
 100c0d8:	18a78623          	sb	a0,396(a5) # 1001018c <ir_lisrt_timernum>
 100c0dc:	18b44503          	lbu	a0,395(s0)
 100c0e0:	4605                	li	a2,1
 100c0e2:	45a9                	li	a1,10
 100c0e4:	d37f50ef          	jal	ra,1001e1a <swtimer_start>
 100c0e8:	da0fe0ef          	jal	ra,100a688 <SecretKey_Check>
 100c0ec:	02051f63          	bnez	a0,100c12a <app_init+0x10c>
 100c0f0:	0100f537          	lui	a0,0x100f
 100c0f4:	10450513          	addi	a0,a0,260 # 100f104 <unknow_1byte_17_2_rsp+0x1c8>
 100c0f8:	e60f50ef          	jal	ra,1001758 <print_string_log>
 100c0fc:	4501                	li	a0,0
 100c0fe:	9ebf70ef          	jal	ra,1003ae8 <IWDG_Disable>
 100c102:	4505                	li	a0,1
 100c104:	9e5f70ef          	jal	ra,1003ae8 <IWDG_Disable>
 100c108:	4601                	li	a2,0
 100c10a:	4581                	li	a1,0
 100c10c:	4501                	li	a0,0
 100c10e:	ac2fb0ef          	jal	ra,10073d0 <led_on>
 100c112:	06400513          	li	a0,100
 100c116:	84ef80ef          	jal	ra,1004164 <SysTick_DelayMs>
 100c11a:	4501                	li	a0,0
 100c11c:	a6efb0ef          	jal	ra,100738a <led_off>
 100c120:	06400513          	li	a0,100
 100c124:	840f80ef          	jal	ra,1004164 <SysTick_DelayMs>
 100c128:	b7c5                	j	100c108 <app_init+0xea>
 100c12a:	0100f537          	lui	a0,0x100f
 100c12e:	11c50513          	addi	a0,a0,284 # 100f11c <unknow_1byte_17_2_rsp+0x1e0>
 100c132:	e26f50ef          	jal	ra,1001758 <print_string_log>
 100c136:	1670006f          	j	100ca9c <__riscv_restore_0>
 100c13a:	f82fa0ef          	jal	ra,10068bc <app_queue_reset>
 100c13e:	febfa0ef          	jal	ra,1007128 <key_wakeup_get>
 100c142:	00050b63          	beqz	a0,100c158 <app_init+0x13a>
 100c146:	e74ff0ef          	jal	ra,100b7ba <remote_control_reinit>
 100c14a:	ea0ff0ef          	jal	ra,100b7ea <mouse_switch>
 100c14e:	0100f537          	lui	a0,0x100f
 100c152:	13050513          	addi	a0,a0,304 # 100f130 <unknow_1byte_17_2_rsp+0x1f4>
 100c156:	bff1                	j	100c132 <app_init+0x114>
 100c158:	979fa0ef          	jal	ra,1006ad0 <enter_low_sleep>
 100c15c:	bfe9                	j	100c136 <app_init+0x118>

0100c15e <Find_AttTable_ByHandle>:
Find_AttTable_ByHandle():
 100c15e:	0100f7b7          	lui	a5,0x100f
 100c162:	3a478693          	addi	a3,a5,932 # 100f3a4 <Att_List>
 100c166:	4701                	li	a4,0
 100c168:	3a478793          	addi	a5,a5,932
 100c16c:	06b00613          	li	a2,107
 100c170:	0006d583          	lhu	a1,0(a3)
 100c174:	00a59663          	bne	a1,a0,100c180 <Find_AttTable_ByHandle+0x22>
 100c178:	00471513          	slli	a0,a4,0x4
 100c17c:	953e                	add	a0,a0,a5
 100c17e:	8082                	ret
 100c180:	0705                	addi	a4,a4,1
 100c182:	06c1                	addi	a3,a3,16
 100c184:	fec716e3          	bne	a4,a2,100c170 <Find_AttTable_ByHandle+0x12>
 100c188:	4501                	li	a0,0
 100c18a:	8082                	ret

0100c18c <Find_AttTable_ByHandleRange_Type>:
Find_AttTable_ByHandleRange_Type():
 100c18c:	06a5e663          	bltu	a1,a0,100c1f8 <Find_AttTable_ByHandleRange_Type+0x6c>
 100c190:	6741                	lui	a4,0x10
 100c192:	1771                	addi	a4,a4,-4
 100c194:	4781                	li	a5,0
 100c196:	06a76263          	bltu	a4,a0,100c1fa <Find_AttTable_ByHandleRange_Type+0x6e>
 100c19a:	0b7002ef          	jal	t0,100ca50 <__riscv_save_10>
 100c19e:	0100f7b7          	lui	a5,0x100f
 100c1a2:	8ab2                	mv	s5,a2
 100c1a4:	8a2e                	mv	s4,a1
 100c1a6:	89aa                	mv	s3,a0
 100c1a8:	3a478913          	addi	s2,a5,932 # 100f3a4 <Att_List>
 100c1ac:	4481                	li	s1,0
 100c1ae:	3a478413          	addi	s0,a5,932
 100c1b2:	00160b93          	addi	s7,a2,1
 100c1b6:	06b00b13          	li	s6,107
 100c1ba:	00095783          	lhu	a5,0(s2)
 100c1be:	0337e763          	bltu	a5,s3,100c1ec <Find_AttTable_ByHandleRange_Type+0x60>
 100c1c2:	02fa6563          	bltu	s4,a5,100c1ec <Find_AttTable_ByHandleRange_Type+0x60>
 100c1c6:	000ac783          	lbu	a5,0(s5)
 100c1ca:	00294603          	lbu	a2,2(s2)
 100c1ce:	00f61f63          	bne	a2,a5,100c1ec <Find_AttTable_ByHandleRange_Type+0x60>
 100c1d2:	00492503          	lw	a0,4(s2)
 100c1d6:	85de                	mv	a1,s7
 100c1d8:	10d000ef          	jal	ra,100cae4 <memcmp>
 100c1dc:	00051863          	bnez	a0,100c1ec <Find_AttTable_ByHandleRange_Type+0x60>
 100c1e0:	00449793          	slli	a5,s1,0x4
 100c1e4:	97a2                	add	a5,a5,s0
 100c1e6:	853e                	mv	a0,a5
 100c1e8:	0a10006f          	j	100ca88 <__riscv_restore_10>
 100c1ec:	0485                	addi	s1,s1,1
 100c1ee:	0941                	addi	s2,s2,16
 100c1f0:	fd6495e3          	bne	s1,s6,100c1ba <Find_AttTable_ByHandleRange_Type+0x2e>
 100c1f4:	4781                	li	a5,0
 100c1f6:	bfc5                	j	100c1e6 <Find_AttTable_ByHandleRange_Type+0x5a>
 100c1f8:	4781                	li	a5,0
 100c1fa:	853e                	mv	a0,a5
 100c1fc:	8082                	ret

0100c1fe <Find_AttTable_ByHandleRange_Type_Data>:
Find_AttTable_ByHandleRange_Type_Data():
 100c1fe:	08a5e663          	bltu	a1,a0,100c28a <Find_AttTable_ByHandleRange_Type_Data+0x8c>
 100c202:	6841                	lui	a6,0x10
 100c204:	1871                	addi	a6,a6,-4
 100c206:	4781                	li	a5,0
 100c208:	08a86263          	bltu	a6,a0,100c28c <Find_AttTable_ByHandleRange_Type_Data+0x8e>
 100c20c:	045002ef          	jal	t0,100ca50 <__riscv_save_10>
 100c210:	0100f7b7          	lui	a5,0x100f
 100c214:	01071d13          	slli	s10,a4,0x10
 100c218:	8b3a                	mv	s6,a4
 100c21a:	8bb6                	mv	s7,a3
 100c21c:	8ab2                	mv	s5,a2
 100c21e:	8a2e                	mv	s4,a1
 100c220:	89aa                	mv	s3,a0
 100c222:	3a478413          	addi	s0,a5,932 # 100f3a4 <Att_List>
 100c226:	4901                	li	s2,0
 100c228:	3a478493          	addi	s1,a5,932
 100c22c:	00160c93          	addi	s9,a2,1
 100c230:	010d5d13          	srli	s10,s10,0x10
 100c234:	06b00c13          	li	s8,107
 100c238:	00045783          	lhu	a5,0(s0)
 100c23c:	0537e163          	bltu	a5,s3,100c27e <Find_AttTable_ByHandleRange_Type_Data+0x80>
 100c240:	02fa6f63          	bltu	s4,a5,100c27e <Find_AttTable_ByHandleRange_Type_Data+0x80>
 100c244:	000ac783          	lbu	a5,0(s5)
 100c248:	00244603          	lbu	a2,2(s0)
 100c24c:	02f61963          	bne	a2,a5,100c27e <Find_AttTable_ByHandleRange_Type_Data+0x80>
 100c250:	4048                	lw	a0,4(s0)
 100c252:	85e6                	mv	a1,s9
 100c254:	091000ef          	jal	ra,100cae4 <memcmp>
 100c258:	02051363          	bnez	a0,100c27e <Find_AttTable_ByHandleRange_Type_Data+0x80>
 100c25c:	00845783          	lhu	a5,8(s0)
 100c260:	01a79f63          	bne	a5,s10,100c27e <Find_AttTable_ByHandleRange_Type_Data+0x80>
 100c264:	4448                	lw	a0,12(s0)
 100c266:	865a                	mv	a2,s6
 100c268:	85de                	mv	a1,s7
 100c26a:	07b000ef          	jal	ra,100cae4 <memcmp>
 100c26e:	00051863          	bnez	a0,100c27e <Find_AttTable_ByHandleRange_Type_Data+0x80>
 100c272:	00491793          	slli	a5,s2,0x4
 100c276:	97a6                	add	a5,a5,s1
 100c278:	853e                	mv	a0,a5
 100c27a:	00f0006f          	j	100ca88 <__riscv_restore_10>
 100c27e:	0905                	addi	s2,s2,1
 100c280:	0441                	addi	s0,s0,16
 100c282:	fb891be3          	bne	s2,s8,100c238 <Find_AttTable_ByHandleRange_Type_Data+0x3a>
 100c286:	4781                	li	a5,0
 100c288:	bfc5                	j	100c278 <Find_AttTable_ByHandleRange_Type_Data+0x7a>
 100c28a:	4781                	li	a5,0
 100c28c:	853e                	mv	a0,a5
 100c28e:	8082                	ret

0100c290 <BitsReverse>:
BitsReverse():
 100c290:	87ae                	mv	a5,a1
 100c292:	4681                	li	a3,0
 100c294:	4605                	li	a2,1
 100c296:	00079463          	bnez	a5,100c29e <BitsReverse+0xe>
 100c29a:	8536                	mv	a0,a3
 100c29c:	8082                	ret
 100c29e:	40f58733          	sub	a4,a1,a5
 100c2a2:	00e61733          	sll	a4,a2,a4
 100c2a6:	8f69                	and	a4,a4,a0
 100c2a8:	17fd                	addi	a5,a5,-1
 100c2aa:	fe0706e3          	beqz	a4,100c296 <BitsReverse+0x6>
 100c2ae:	00f61733          	sll	a4,a2,a5
 100c2b2:	8ed9                	or	a3,a3,a4
 100c2b4:	b7cd                	j	100c296 <BitsReverse+0x6>

0100c2b6 <GetCRC>:
GetCRC():
 100c2b6:	79a002ef          	jal	t0,100ca50 <__riscv_save_10>
 100c2ba:	4761                	li	a4,24
 100c2bc:	02e50533          	mul	a0,a0,a4
 100c2c0:	010107b7          	lui	a5,0x1010
 100c2c4:	a5478793          	addi	a5,a5,-1452 # 100fa54 <s_crcInfoTab>
 100c2c8:	4985                	li	s3,1
 100c2ca:	1141                	addi	sp,sp,-16
 100c2cc:	842e                	mv	s0,a1
 100c2ce:	00d60ab3          	add	s5,a2,a3
 100c2d2:	4c05                	li	s8,1
 100c2d4:	953e                	add	a0,a0,a5
 100c2d6:	00454483          	lbu	s1,4(a0)
 100c2da:	00852b03          	lw	s6,8(a0)
 100c2de:	00c52a03          	lw	s4,12(a0)
 100c2e2:	01054b83          	lbu	s7,16(a0)
 100c2e6:	ff848913          	addi	s2,s1,-8
 100c2ea:	14fd                	addi	s1,s1,-1
 100c2ec:	0ff97913          	andi	s2,s2,255
 100c2f0:	009999b3          	sll	s3,s3,s1
 100c2f4:	01561b63          	bne	a2,s5,100c30a <GetCRC+0x54>
 100c2f8:	4509                	li	a0,2
 100c2fa:	00951533          	sll	a0,a0,s1
 100c2fe:	01444433          	xor	s0,s0,s4
 100c302:	157d                	addi	a0,a0,-1
 100c304:	8d61                	and	a0,a0,s0
 100c306:	0141                	addi	sp,sp,16
 100c308:	a741                	j	100ca88 <__riscv_restore_10>
 100c30a:	0605                	addi	a2,a2,1
 100c30c:	fff64503          	lbu	a0,-1(a2)
 100c310:	018b9763          	bne	s7,s8,100c31e <GetCRC+0x68>
 100c314:	45a1                	li	a1,8
 100c316:	c632                	sw	a2,12(sp)
 100c318:	f79ff0ef          	jal	ra,100c290 <BitsReverse>
 100c31c:	4632                	lw	a2,12(sp)
 100c31e:	01251533          	sll	a0,a0,s2
 100c322:	8c29                	xor	s0,s0,a0
 100c324:	47a1                	li	a5,8
 100c326:	0089f733          	and	a4,s3,s0
 100c32a:	0406                	slli	s0,s0,0x1
 100c32c:	00070463          	beqz	a4,100c334 <GetCRC+0x7e>
 100c330:	01644433          	xor	s0,s0,s6
 100c334:	17fd                	addi	a5,a5,-1
 100c336:	0ff7f793          	andi	a5,a5,255
 100c33a:	fe0796e3          	bnez	a5,100c326 <GetCRC+0x70>
 100c33e:	bf5d                	j	100c2f4 <GetCRC+0x3e>

0100c340 <SecretKey_Generate>:
SecretKey_Generate():
 100c340:	71e002ef          	jal	t0,100ca5e <__riscv_save_4>
 100c344:	100107b7          	lui	a5,0x10010
 100c348:	050a                	slli	a0,a0,0x2
 100c34a:	19478793          	addi	a5,a5,404 # 10010194 <PublicKey>
 100c34e:	97aa                	add	a5,a5,a0
 100c350:	4380                	lw	s0,0(a5)
 100c352:	89ae                	mv	s3,a1
 100c354:	8a32                	mv	s4,a2
 100c356:	84b6                	mv	s1,a3
 100c358:	01040913          	addi	s2,s0,16
 100c35c:	00144783          	lbu	a5,1(s0)
 100c360:	00044583          	lbu	a1,0(s0)
 100c364:	86d2                	mv	a3,s4
 100c366:	07a2                	slli	a5,a5,0x8
 100c368:	8ddd                	or	a1,a1,a5
 100c36a:	864e                	mv	a2,s3
 100c36c:	4501                	li	a0,0
 100c36e:	f49ff0ef          	jal	ra,100c2b6 <GetCRC>
 100c372:	00855793          	srli	a5,a0,0x8
 100c376:	00f48023          	sb	a5,0(s1)
 100c37a:	00a480a3          	sb	a0,1(s1)
 100c37e:	0409                	addi	s0,s0,2
 100c380:	0489                	addi	s1,s1,2
 100c382:	fc891de3          	bne	s2,s0,100c35c <SecretKey_Generate+0x1c>
 100c386:	4545                	li	a0,17
 100c388:	a729                	j	100ca92 <__riscv_restore_4>

0100c38a <__muldf3>:
__muldf3():
 100c38a:	7179                	addi	sp,sp,-48
 100c38c:	d422                	sw	s0,40(sp)
 100c38e:	c85a                	sw	s6,16(sp)
 100c390:	c266                	sw	s9,4(sp)
 100c392:	d606                	sw	ra,44(sp)
 100c394:	d226                	sw	s1,36(sp)
 100c396:	d04a                	sw	s2,32(sp)
 100c398:	ce4e                	sw	s3,28(sp)
 100c39a:	cc52                	sw	s4,24(sp)
 100c39c:	ca56                	sw	s5,20(sp)
 100c39e:	c65e                	sw	s7,12(sp)
 100c3a0:	c462                	sw	s8,8(sp)
 100c3a2:	842a                	mv	s0,a0
 100c3a4:	8cb2                	mv	s9,a2
 100c3a6:	8b36                	mv	s6,a3
 100c3a8:	00202973          	frrm	s2
 100c3ac:	0145db93          	srli	s7,a1,0x14
 100c3b0:	00c59993          	slli	s3,a1,0xc
 100c3b4:	7ffbfb93          	andi	s7,s7,2047
 100c3b8:	00c9d993          	srli	s3,s3,0xc
 100c3bc:	01f5da93          	srli	s5,a1,0x1f
 100c3c0:	020b8663          	beqz	s7,100c3ec <__muldf3+0x62>
 100c3c4:	7ff00793          	li	a5,2047
 100c3c8:	06fb8a63          	beq	s7,a5,100c43c <__muldf3+0xb2>
 100c3cc:	01d55793          	srli	a5,a0,0x1d
 100c3d0:	098e                	slli	s3,s3,0x3
 100c3d2:	0137e9b3          	or	s3,a5,s3
 100c3d6:	008007b7          	lui	a5,0x800
 100c3da:	00f9e9b3          	or	s3,s3,a5
 100c3de:	00351a13          	slli	s4,a0,0x3
 100c3e2:	c01b8b93          	addi	s7,s7,-1023
 100c3e6:	4c01                	li	s8,0
 100c3e8:	4481                	li	s1,0
 100c3ea:	a0b5                	j	100c456 <__muldf3+0xcc>
 100c3ec:	00a9e7b3          	or	a5,s3,a0
 100c3f0:	0c078363          	beqz	a5,100c4b6 <__muldf3+0x12c>
 100c3f4:	02098a63          	beqz	s3,100c428 <__muldf3+0x9e>
 100c3f8:	854e                	mv	a0,s3
 100c3fa:	257d                	jal	100caa8 <__clzsi2>
 100c3fc:	ff550713          	addi	a4,a0,-11
 100c400:	47f1                	li	a5,28
 100c402:	02e7c763          	blt	a5,a4,100c430 <__muldf3+0xa6>
 100c406:	47f5                	li	a5,29
 100c408:	ff850a13          	addi	s4,a0,-8
 100c40c:	8f99                	sub	a5,a5,a4
 100c40e:	014999b3          	sll	s3,s3,s4
 100c412:	00f457b3          	srl	a5,s0,a5
 100c416:	0137e9b3          	or	s3,a5,s3
 100c41a:	01441a33          	sll	s4,s0,s4
 100c41e:	c0d00b93          	li	s7,-1011
 100c422:	40ab8bb3          	sub	s7,s7,a0
 100c426:	b7c1                	j	100c3e6 <__muldf3+0x5c>
 100c428:	2541                	jal	100caa8 <__clzsi2>
 100c42a:	02050513          	addi	a0,a0,32
 100c42e:	b7f9                	j	100c3fc <__muldf3+0x72>
 100c430:	fd850993          	addi	s3,a0,-40
 100c434:	013419b3          	sll	s3,s0,s3
 100c438:	4a01                	li	s4,0
 100c43a:	b7d5                	j	100c41e <__muldf3+0x94>
 100c43c:	00a9e433          	or	s0,s3,a0
 100c440:	08040063          	beqz	s0,100c4c0 <__muldf3+0x136>
 100c444:	00c99793          	slli	a5,s3,0xc
 100c448:	8a2a                	mv	s4,a0
 100c44a:	7ff00b93          	li	s7,2047
 100c44e:	4c0d                	li	s8,3
 100c450:	44c1                	li	s1,16
 100c452:	f807cbe3          	bltz	a5,100c3e8 <__muldf3+0x5e>
 100c456:	014b5513          	srli	a0,s6,0x14
 100c45a:	00cb1413          	slli	s0,s6,0xc
 100c45e:	7ff57513          	andi	a0,a0,2047
 100c462:	87e6                	mv	a5,s9
 100c464:	8031                	srli	s0,s0,0xc
 100c466:	01fb5b13          	srli	s6,s6,0x1f
 100c46a:	06050163          	beqz	a0,100c4cc <__muldf3+0x142>
 100c46e:	7ff00713          	li	a4,2047
 100c472:	0ae50563          	beq	a0,a4,100c51c <__muldf3+0x192>
 100c476:	01dcd793          	srli	a5,s9,0x1d
 100c47a:	040e                	slli	s0,s0,0x3
 100c47c:	8c5d                	or	s0,s0,a5
 100c47e:	008007b7          	lui	a5,0x800
 100c482:	8c5d                	or	s0,s0,a5
 100c484:	c0150513          	addi	a0,a0,-1023
 100c488:	003c9793          	slli	a5,s9,0x3
 100c48c:	4701                	li	a4,0
 100c48e:	002c1693          	slli	a3,s8,0x2
 100c492:	8ed9                	or	a3,a3,a4
 100c494:	955e                	add	a0,a0,s7
 100c496:	16fd                	addi	a3,a3,-1
 100c498:	4639                	li	a2,14
 100c49a:	016ac833          	xor	a6,s5,s6
 100c49e:	00150893          	addi	a7,a0,1
 100c4a2:	0ed66a63          	bltu	a2,a3,100c596 <__muldf3+0x20c>
 100c4a6:	01010637          	lui	a2,0x1010
 100c4aa:	068a                	slli	a3,a3,0x2
 100c4ac:	a9c60613          	addi	a2,a2,-1380 # 100fa9c <PublicKey_5815+0x10>
 100c4b0:	96b2                	add	a3,a3,a2
 100c4b2:	4294                	lw	a3,0(a3)
 100c4b4:	8682                	jr	a3
 100c4b6:	4981                	li	s3,0
 100c4b8:	4a01                	li	s4,0
 100c4ba:	4b81                	li	s7,0
 100c4bc:	4c05                	li	s8,1
 100c4be:	b72d                	j	100c3e8 <__muldf3+0x5e>
 100c4c0:	4981                	li	s3,0
 100c4c2:	4a01                	li	s4,0
 100c4c4:	7ff00b93          	li	s7,2047
 100c4c8:	4c09                	li	s8,2
 100c4ca:	bf39                	j	100c3e8 <__muldf3+0x5e>
 100c4cc:	019467b3          	or	a5,s0,s9
 100c4d0:	06078363          	beqz	a5,100c536 <__muldf3+0x1ac>
 100c4d4:	02040963          	beqz	s0,100c506 <__muldf3+0x17c>
 100c4d8:	8522                	mv	a0,s0
 100c4da:	23f9                	jal	100caa8 <__clzsi2>
 100c4dc:	ff550693          	addi	a3,a0,-11
 100c4e0:	47f1                	li	a5,28
 100c4e2:	02d7c763          	blt	a5,a3,100c510 <__muldf3+0x186>
 100c4e6:	4775                	li	a4,29
 100c4e8:	ff850793          	addi	a5,a0,-8
 100c4ec:	8f15                	sub	a4,a4,a3
 100c4ee:	00f41433          	sll	s0,s0,a5
 100c4f2:	00ecd733          	srl	a4,s9,a4
 100c4f6:	8c59                	or	s0,s0,a4
 100c4f8:	00fc97b3          	sll	a5,s9,a5
 100c4fc:	c0d00713          	li	a4,-1011
 100c500:	40a70533          	sub	a0,a4,a0
 100c504:	b761                	j	100c48c <__muldf3+0x102>
 100c506:	8566                	mv	a0,s9
 100c508:	2345                	jal	100caa8 <__clzsi2>
 100c50a:	02050513          	addi	a0,a0,32
 100c50e:	b7f9                	j	100c4dc <__muldf3+0x152>
 100c510:	fd850413          	addi	s0,a0,-40
 100c514:	008c9433          	sll	s0,s9,s0
 100c518:	4781                	li	a5,0
 100c51a:	b7cd                	j	100c4fc <__muldf3+0x172>
 100c51c:	01946633          	or	a2,s0,s9
 100c520:	02060063          	beqz	a2,100c540 <__muldf3+0x1b6>
 100c524:	00c41713          	slli	a4,s0,0xc
 100c528:	7ff00513          	li	a0,2047
 100c52c:	02074063          	bltz	a4,100c54c <__muldf3+0x1c2>
 100c530:	470d                	li	a4,3
 100c532:	44c1                	li	s1,16
 100c534:	bfa9                	j	100c48e <__muldf3+0x104>
 100c536:	4401                	li	s0,0
 100c538:	4781                	li	a5,0
 100c53a:	4501                	li	a0,0
 100c53c:	4705                	li	a4,1
 100c53e:	bf81                	j	100c48e <__muldf3+0x104>
 100c540:	4401                	li	s0,0
 100c542:	4781                	li	a5,0
 100c544:	7ff00513          	li	a0,2047
 100c548:	4709                	li	a4,2
 100c54a:	b791                	j	100c48e <__muldf3+0x104>
 100c54c:	470d                	li	a4,3
 100c54e:	b781                	j	100c48e <__muldf3+0x104>
 100c550:	00080437          	lui	s0,0x80
 100c554:	4781                	li	a5,0
 100c556:	7ff00713          	li	a4,2047
 100c55a:	4801                	li	a6,0
 100c55c:	44c1                	li	s1,16
 100c55e:	0432                	slli	s0,s0,0xc
 100c560:	7ff77713          	andi	a4,a4,2047
 100c564:	0752                	slli	a4,a4,0x14
 100c566:	8031                	srli	s0,s0,0xc
 100c568:	087e                	slli	a6,a6,0x1f
 100c56a:	8c59                	or	s0,s0,a4
 100c56c:	01046733          	or	a4,s0,a6
 100c570:	853e                	mv	a0,a5
 100c572:	85ba                	mv	a1,a4
 100c574:	00048463          	beqz	s1,100c57c <__muldf3+0x1f2>
 100c578:	0014a073          	csrs	fflags,s1
 100c57c:	50b2                	lw	ra,44(sp)
 100c57e:	5422                	lw	s0,40(sp)
 100c580:	5492                	lw	s1,36(sp)
 100c582:	5902                	lw	s2,32(sp)
 100c584:	49f2                	lw	s3,28(sp)
 100c586:	4a62                	lw	s4,24(sp)
 100c588:	4ad2                	lw	s5,20(sp)
 100c58a:	4b42                	lw	s6,16(sp)
 100c58c:	4bb2                	lw	s7,12(sp)
 100c58e:	4c22                	lw	s8,8(sp)
 100c590:	4c92                	lw	s9,4(sp)
 100c592:	6145                	addi	sp,sp,48
 100c594:	8082                	ret
 100c596:	6341                	lui	t1,0x10
 100c598:	fff30f93          	addi	t6,t1,-1 # ffff <__EN_MIE-0xff007f>
 100c59c:	010a5713          	srli	a4,s4,0x10
 100c5a0:	0107d693          	srli	a3,a5,0x10
 100c5a4:	01fa7a33          	and	s4,s4,t6
 100c5a8:	01f7ff33          	and	t5,a5,t6
 100c5ac:	03468633          	mul	a2,a3,s4
 100c5b0:	034f07b3          	mul	a5,t5,s4
 100c5b4:	03e70eb3          	mul	t4,a4,t5
 100c5b8:	01d605b3          	add	a1,a2,t4
 100c5bc:	0107d613          	srli	a2,a5,0x10
 100c5c0:	962e                	add	a2,a2,a1
 100c5c2:	02d70e33          	mul	t3,a4,a3
 100c5c6:	01d67363          	bgeu	a2,t4,100c5cc <__muldf3+0x242>
 100c5ca:	9e1a                	add	t3,t3,t1
 100c5cc:	01065293          	srli	t0,a2,0x10
 100c5d0:	01f67633          	and	a2,a2,t6
 100c5d4:	01f7f7b3          	and	a5,a5,t6
 100c5d8:	01045e93          	srli	t4,s0,0x10
 100c5dc:	01f47fb3          	and	t6,s0,t6
 100c5e0:	0642                	slli	a2,a2,0x10
 100c5e2:	963e                	add	a2,a2,a5
 100c5e4:	03fa05b3          	mul	a1,s4,t6
 100c5e8:	03f707b3          	mul	a5,a4,t6
 100c5ec:	034e8a33          	mul	s4,t4,s4
 100c5f0:	00fa0333          	add	t1,s4,a5
 100c5f4:	0105da13          	srli	s4,a1,0x10
 100c5f8:	9a1a                	add	s4,s4,t1
 100c5fa:	03d70733          	mul	a4,a4,t4
 100c5fe:	00fa7463          	bgeu	s4,a5,100c606 <__muldf3+0x27c>
 100c602:	67c1                	lui	a5,0x10
 100c604:	973e                	add	a4,a4,a5
 100c606:	010a5313          	srli	t1,s4,0x10
 100c60a:	67c1                	lui	a5,0x10
 100c60c:	933a                	add	t1,t1,a4
 100c60e:	fff78713          	addi	a4,a5,-1 # ffff <__EN_MIE-0xff007f>
 100c612:	0109d413          	srli	s0,s3,0x10
 100c616:	00e9f9b3          	and	s3,s3,a4
 100c61a:	8df9                	and	a1,a1,a4
 100c61c:	00ea7a33          	and	s4,s4,a4
 100c620:	033f03b3          	mul	t2,t5,s3
 100c624:	0a42                	slli	s4,s4,0x10
 100c626:	9a2e                	add	s4,s4,a1
 100c628:	92d2                	add	t0,t0,s4
 100c62a:	03e40733          	mul	a4,s0,t5
 100c62e:	02868f33          	mul	t5,a3,s0
 100c632:	033686b3          	mul	a3,a3,s3
 100c636:	00e685b3          	add	a1,a3,a4
 100c63a:	0103d693          	srli	a3,t2,0x10
 100c63e:	96ae                	add	a3,a3,a1
 100c640:	00e6f363          	bgeu	a3,a4,100c646 <__muldf3+0x2bc>
 100c644:	9f3e                	add	t5,t5,a5
 100c646:	0106d793          	srli	a5,a3,0x10
 100c64a:	6741                	lui	a4,0x10
 100c64c:	9f3e                	add	t5,t5,a5
 100c64e:	fff70793          	addi	a5,a4,-1 # ffff <__EN_MIE-0xff007f>
 100c652:	8efd                	and	a3,a3,a5
 100c654:	00f3f3b3          	and	t2,t2,a5
 100c658:	06c2                	slli	a3,a3,0x10
 100c65a:	03f407b3          	mul	a5,s0,t6
 100c65e:	969e                	add	a3,a3,t2
 100c660:	03f983b3          	mul	t2,s3,t6
 100c664:	033e89b3          	mul	s3,t4,s3
 100c668:	028e85b3          	mul	a1,t4,s0
 100c66c:	99be                	add	s3,s3,a5
 100c66e:	0103d413          	srli	s0,t2,0x10
 100c672:	99a2                	add	s3,s3,s0
 100c674:	00f9f363          	bgeu	s3,a5,100c67a <__muldf3+0x2f0>
 100c678:	95ba                	add	a1,a1,a4
 100c67a:	67c1                	lui	a5,0x10
 100c67c:	17fd                	addi	a5,a5,-1
 100c67e:	00f9f733          	and	a4,s3,a5
 100c682:	00f3f3b3          	and	t2,t2,a5
 100c686:	0742                	slli	a4,a4,0x10
 100c688:	9e16                	add	t3,t3,t0
 100c68a:	971e                	add	a4,a4,t2
 100c68c:	014e3a33          	sltu	s4,t3,s4
 100c690:	971a                	add	a4,a4,t1
 100c692:	01470433          	add	s0,a4,s4
 100c696:	9e36                	add	t3,t3,a3
 100c698:	00de36b3          	sltu	a3,t3,a3
 100c69c:	01e40eb3          	add	t4,s0,t5
 100c6a0:	00de8fb3          	add	t6,t4,a3
 100c6a4:	00673733          	sltu	a4,a4,t1
 100c6a8:	01443433          	sltu	s0,s0,s4
 100c6ac:	8c59                	or	s0,s0,a4
 100c6ae:	00dfb6b3          	sltu	a3,t6,a3
 100c6b2:	0109d993          	srli	s3,s3,0x10
 100c6b6:	01eebf33          	sltu	t5,t4,t5
 100c6ba:	944e                	add	s0,s0,s3
 100c6bc:	00df66b3          	or	a3,t5,a3
 100c6c0:	9436                	add	s0,s0,a3
 100c6c2:	942e                	add	s0,s0,a1
 100c6c4:	017fd793          	srli	a5,t6,0x17
 100c6c8:	0426                	slli	s0,s0,0x9
 100c6ca:	8c5d                	or	s0,s0,a5
 100c6cc:	009e1793          	slli	a5,t3,0x9
 100c6d0:	8fd1                	or	a5,a5,a2
 100c6d2:	00f037b3          	snez	a5,a5
 100c6d6:	017e5e13          	srli	t3,t3,0x17
 100c6da:	01c7e7b3          	or	a5,a5,t3
 100c6de:	0fa6                	slli	t6,t6,0x9
 100c6e0:	00741713          	slli	a4,s0,0x7
 100c6e4:	01f7e7b3          	or	a5,a5,t6
 100c6e8:	06075a63          	bgez	a4,100c75c <__muldf3+0x3d2>
 100c6ec:	0017d713          	srli	a4,a5,0x1
 100c6f0:	8b85                	andi	a5,a5,1
 100c6f2:	8fd9                	or	a5,a5,a4
 100c6f4:	01f41713          	slli	a4,s0,0x1f
 100c6f8:	8fd9                	or	a5,a5,a4
 100c6fa:	8005                	srli	s0,s0,0x1
 100c6fc:	3ff88593          	addi	a1,a7,1023
 100c700:	0cb05563          	blez	a1,100c7ca <__muldf3+0x440>
 100c704:	0077f713          	andi	a4,a5,7
 100c708:	06070363          	beqz	a4,100c76e <__muldf3+0x3e4>
 100c70c:	4709                	li	a4,2
 100c70e:	0014e493          	ori	s1,s1,1
 100c712:	04e90c63          	beq	s2,a4,100c76a <__muldf3+0x3e0>
 100c716:	470d                	li	a4,3
 100c718:	04e90463          	beq	s2,a4,100c760 <__muldf3+0x3d6>
 100c71c:	04091963          	bnez	s2,100c76e <__muldf3+0x3e4>
 100c720:	00f7f713          	andi	a4,a5,15
 100c724:	4691                	li	a3,4
 100c726:	04d70463          	beq	a4,a3,100c76e <__muldf3+0x3e4>
 100c72a:	00478713          	addi	a4,a5,4 # 10004 <__EN_MIE-0xff007a>
 100c72e:	00f737b3          	sltu	a5,a4,a5
 100c732:	943e                	add	s0,s0,a5
 100c734:	87ba                	mv	a5,a4
 100c736:	a825                	j	100c76e <__muldf3+0x3e4>
 100c738:	8856                	mv	a6,s5
 100c73a:	844e                	mv	s0,s3
 100c73c:	87d2                	mv	a5,s4
 100c73e:	8762                	mv	a4,s8
 100c740:	4689                	li	a3,2
 100c742:	1ed70363          	beq	a4,a3,100c928 <__muldf3+0x59e>
 100c746:	468d                	li	a3,3
 100c748:	1ed70563          	beq	a4,a3,100c932 <__muldf3+0x5a8>
 100c74c:	4685                	li	a3,1
 100c74e:	fad717e3          	bne	a4,a3,100c6fc <__muldf3+0x372>
 100c752:	4401                	li	s0,0
 100c754:	4781                	li	a5,0
 100c756:	a2d9                	j	100c91c <__muldf3+0x592>
 100c758:	885a                	mv	a6,s6
 100c75a:	b7dd                	j	100c740 <__muldf3+0x3b6>
 100c75c:	88aa                	mv	a7,a0
 100c75e:	bf79                	j	100c6fc <__muldf3+0x372>
 100c760:	00081763          	bnez	a6,100c76e <__muldf3+0x3e4>
 100c764:	00878713          	addi	a4,a5,8
 100c768:	b7d9                	j	100c72e <__muldf3+0x3a4>
 100c76a:	fe081de3          	bnez	a6,100c764 <__muldf3+0x3da>
 100c76e:	00741713          	slli	a4,s0,0x7
 100c772:	00075863          	bgez	a4,100c782 <__muldf3+0x3f8>
 100c776:	ff000737          	lui	a4,0xff000
 100c77a:	177d                	addi	a4,a4,-1
 100c77c:	8c79                	and	s0,s0,a4
 100c77e:	40088593          	addi	a1,a7,1024
 100c782:	7fe00713          	li	a4,2046
 100c786:	00b74a63          	blt	a4,a1,100c79a <__muldf3+0x410>
 100c78a:	0037d713          	srli	a4,a5,0x3
 100c78e:	01d41793          	slli	a5,s0,0x1d
 100c792:	8fd9                	or	a5,a5,a4
 100c794:	800d                	srli	s0,s0,0x3
 100c796:	872e                	mv	a4,a1
 100c798:	b3d9                	j	100c55e <__muldf3+0x1d4>
 100c79a:	4789                	li	a5,2
 100c79c:	02f90463          	beq	s2,a5,100c7c4 <__muldf3+0x43a>
 100c7a0:	478d                	li	a5,3
 100c7a2:	00f90b63          	beq	s2,a5,100c7b8 <__muldf3+0x42e>
 100c7a6:	00090b63          	beqz	s2,100c7bc <__muldf3+0x432>
 100c7aa:	57fd                	li	a5,-1
 100c7ac:	7fe00713          	li	a4,2046
 100c7b0:	0054e493          	ori	s1,s1,5
 100c7b4:	843e                	mv	s0,a5
 100c7b6:	b365                	j	100c55e <__muldf3+0x1d4>
 100c7b8:	fe0819e3          	bnez	a6,100c7aa <__muldf3+0x420>
 100c7bc:	4781                	li	a5,0
 100c7be:	7ff00713          	li	a4,2047
 100c7c2:	b7fd                	j	100c7b0 <__muldf3+0x426>
 100c7c4:	fe081ce3          	bnez	a6,100c7bc <__muldf3+0x432>
 100c7c8:	b7cd                	j	100c7aa <__muldf3+0x420>
 100c7ca:	4705                	li	a4,1
 100c7cc:	04059a63          	bnez	a1,100c820 <__muldf3+0x496>
 100c7d0:	0077f693          	andi	a3,a5,7
 100c7d4:	8722                	mv	a4,s0
 100c7d6:	04068163          	beqz	a3,100c818 <__muldf3+0x48e>
 100c7da:	4709                	li	a4,2
 100c7dc:	0014e493          	ori	s1,s1,1
 100c7e0:	02e90963          	beq	s2,a4,100c812 <__muldf3+0x488>
 100c7e4:	470d                	li	a4,3
 100c7e6:	02e90063          	beq	s2,a4,100c806 <__muldf3+0x47c>
 100c7ea:	8722                	mv	a4,s0
 100c7ec:	02091663          	bnez	s2,100c818 <__muldf3+0x48e>
 100c7f0:	00f7f693          	andi	a3,a5,15
 100c7f4:	4611                	li	a2,4
 100c7f6:	02c68163          	beq	a3,a2,100c818 <__muldf3+0x48e>
 100c7fa:	ffc7b713          	sltiu	a4,a5,-4
 100c7fe:	00174713          	xori	a4,a4,1
 100c802:	9722                	add	a4,a4,s0
 100c804:	a811                	j	100c818 <__muldf3+0x48e>
 100c806:	8722                	mv	a4,s0
 100c808:	00081863          	bnez	a6,100c818 <__muldf3+0x48e>
 100c80c:	ff87b713          	sltiu	a4,a5,-8
 100c810:	b7fd                	j	100c7fe <__muldf3+0x474>
 100c812:	8722                	mv	a4,s0
 100c814:	fe081ce3          	bnez	a6,100c80c <__muldf3+0x482>
 100c818:	8361                	srli	a4,a4,0x18
 100c81a:	00174713          	xori	a4,a4,1
 100c81e:	8b05                	andi	a4,a4,1
 100c820:	4685                	li	a3,1
 100c822:	8e8d                	sub	a3,a3,a1
 100c824:	03800613          	li	a2,56
 100c828:	0cd64363          	blt	a2,a3,100c8ee <__muldf3+0x564>
 100c82c:	467d                	li	a2,31
 100c82e:	04d64a63          	blt	a2,a3,100c882 <__muldf3+0x4f8>
 100c832:	41e88893          	addi	a7,a7,1054
 100c836:	01141633          	sll	a2,s0,a7
 100c83a:	00d7d5b3          	srl	a1,a5,a3
 100c83e:	011797b3          	sll	a5,a5,a7
 100c842:	8e4d                	or	a2,a2,a1
 100c844:	00f037b3          	snez	a5,a5
 100c848:	8fd1                	or	a5,a5,a2
 100c84a:	00d45433          	srl	s0,s0,a3
 100c84e:	0077f693          	andi	a3,a5,7
 100c852:	06068263          	beqz	a3,100c8b6 <__muldf3+0x52c>
 100c856:	4689                	li	a3,2
 100c858:	0014e493          	ori	s1,s1,1
 100c85c:	04d90b63          	beq	s2,a3,100c8b2 <__muldf3+0x528>
 100c860:	468d                	li	a3,3
 100c862:	04d90363          	beq	s2,a3,100c8a8 <__muldf3+0x51e>
 100c866:	04091863          	bnez	s2,100c8b6 <__muldf3+0x52c>
 100c86a:	00f7f693          	andi	a3,a5,15
 100c86e:	4611                	li	a2,4
 100c870:	04c68363          	beq	a3,a2,100c8b6 <__muldf3+0x52c>
 100c874:	00478693          	addi	a3,a5,4
 100c878:	00f6b7b3          	sltu	a5,a3,a5
 100c87c:	943e                	add	s0,s0,a5
 100c87e:	87b6                	mv	a5,a3
 100c880:	a81d                	j	100c8b6 <__muldf3+0x52c>
 100c882:	5605                	li	a2,-31
 100c884:	8e0d                	sub	a2,a2,a1
 100c886:	02000513          	li	a0,32
 100c88a:	00c45633          	srl	a2,s0,a2
 100c88e:	4581                	li	a1,0
 100c890:	00a68663          	beq	a3,a0,100c89c <__muldf3+0x512>
 100c894:	43e88893          	addi	a7,a7,1086
 100c898:	011415b3          	sll	a1,s0,a7
 100c89c:	8fcd                	or	a5,a5,a1
 100c89e:	00f037b3          	snez	a5,a5
 100c8a2:	8fd1                	or	a5,a5,a2
 100c8a4:	4401                	li	s0,0
 100c8a6:	b765                	j	100c84e <__muldf3+0x4c4>
 100c8a8:	00081763          	bnez	a6,100c8b6 <__muldf3+0x52c>
 100c8ac:	00878693          	addi	a3,a5,8
 100c8b0:	b7e1                	j	100c878 <__muldf3+0x4ee>
 100c8b2:	fe081de3          	bnez	a6,100c8ac <__muldf3+0x522>
 100c8b6:	00841693          	slli	a3,s0,0x8
 100c8ba:	0006da63          	bgez	a3,100c8ce <__muldf3+0x544>
 100c8be:	0014e493          	ori	s1,s1,1
 100c8c2:	4401                	li	s0,0
 100c8c4:	4781                	li	a5,0
 100c8c6:	02071163          	bnez	a4,100c8e8 <__muldf3+0x55e>
 100c8ca:	4705                	li	a4,1
 100c8cc:	b949                	j	100c55e <__muldf3+0x1d4>
 100c8ce:	0037d693          	srli	a3,a5,0x3
 100c8d2:	01d41793          	slli	a5,s0,0x1d
 100c8d6:	8fd5                	or	a5,a5,a3
 100c8d8:	800d                	srli	s0,s0,0x3
 100c8da:	c80702e3          	beqz	a4,100c55e <__muldf3+0x1d4>
 100c8de:	0014f713          	andi	a4,s1,1
 100c8e2:	c6070ee3          	beqz	a4,100c55e <__muldf3+0x1d4>
 100c8e6:	4701                	li	a4,0
 100c8e8:	0024e493          	ori	s1,s1,2
 100c8ec:	b98d                	j	100c55e <__muldf3+0x1d4>
 100c8ee:	8fc1                	or	a5,a5,s0
 100c8f0:	02078363          	beqz	a5,100c916 <__muldf3+0x58c>
 100c8f4:	4789                	li	a5,2
 100c8f6:	0014e493          	ori	s1,s1,1
 100c8fa:	02f90363          	beq	s2,a5,100c920 <__muldf3+0x596>
 100c8fe:	478d                	li	a5,3
 100c900:	00f90763          	beq	s2,a5,100c90e <__muldf3+0x584>
 100c904:	4795                	li	a5,5
 100c906:	00090763          	beqz	s2,100c914 <__muldf3+0x58a>
 100c90a:	4785                	li	a5,1
 100c90c:	a021                	j	100c914 <__muldf3+0x58a>
 100c90e:	47a5                	li	a5,9
 100c910:	fe081de3          	bnez	a6,100c90a <__muldf3+0x580>
 100c914:	838d                	srli	a5,a5,0x3
 100c916:	0024e493          	ori	s1,s1,2
 100c91a:	4401                	li	s0,0
 100c91c:	4701                	li	a4,0
 100c91e:	b181                	j	100c55e <__muldf3+0x1d4>
 100c920:	47a5                	li	a5,9
 100c922:	fe0819e3          	bnez	a6,100c914 <__muldf3+0x58a>
 100c926:	b7d5                	j	100c90a <__muldf3+0x580>
 100c928:	4401                	li	s0,0
 100c92a:	4781                	li	a5,0
 100c92c:	7ff00713          	li	a4,2047
 100c930:	b13d                	j	100c55e <__muldf3+0x1d4>
 100c932:	00080437          	lui	s0,0x80
 100c936:	4781                	li	a5,0
 100c938:	7ff00713          	li	a4,2047
 100c93c:	4801                	li	a6,0
 100c93e:	b105                	j	100c55e <__muldf3+0x1d4>

0100c940 <__fixunsdfsi>:
__fixunsdfsi():
 100c940:	002027f3          	frrm	a5
 100c944:	00100737          	lui	a4,0x100
 100c948:	0145d693          	srli	a3,a1,0x14
 100c94c:	fff70793          	addi	a5,a4,-1 # fffff <__EN_MIE-0xf0007f>
 100c950:	7ff6f693          	andi	a3,a3,2047
 100c954:	3fe00613          	li	a2,1022
 100c958:	8fed                	and	a5,a5,a1
 100c95a:	81fd                	srli	a1,a1,0x1f
 100c95c:	00d64863          	blt	a2,a3,100c96c <__fixunsdfsi+0x2c>
 100c960:	06069563          	bnez	a3,100c9ca <__fixunsdfsi+0x8a>
 100c964:	8d5d                	or	a0,a0,a5
 100c966:	06051263          	bnez	a0,100c9ca <__fixunsdfsi+0x8a>
 100c96a:	8082                	ret
 100c96c:	06059263          	bnez	a1,100c9d0 <__fixunsdfsi+0x90>
 100c970:	41e00613          	li	a2,1054
 100c974:	06d64163          	blt	a2,a3,100c9d6 <__fixunsdfsi+0x96>
 100c978:	43300613          	li	a2,1075
 100c97c:	8fd9                	or	a5,a5,a4
 100c97e:	8e15                	sub	a2,a2,a3
 100c980:	477d                	li	a4,31
 100c982:	02c74263          	blt	a4,a2,100c9a6 <__fixunsdfsi+0x66>
 100c986:	bed68693          	addi	a3,a3,-1043
 100c98a:	00d51733          	sll	a4,a0,a3
 100c98e:	00d797b3          	sll	a5,a5,a3
 100c992:	00c55533          	srl	a0,a0,a2
 100c996:	00e03733          	snez	a4,a4
 100c99a:	8d5d                	or	a0,a0,a5
 100c99c:	02070f63          	beqz	a4,100c9da <__fixunsdfsi+0x9a>
 100c9a0:	00172073          	csrs	fflags,a4
 100c9a4:	8082                	ret
 100c9a6:	02000593          	li	a1,32
 100c9aa:	4701                	li	a4,0
 100c9ac:	00b60663          	beq	a2,a1,100c9b8 <__fixunsdfsi+0x78>
 100c9b0:	c0d68713          	addi	a4,a3,-1011
 100c9b4:	00e79733          	sll	a4,a5,a4
 100c9b8:	8f49                	or	a4,a4,a0
 100c9ba:	41300513          	li	a0,1043
 100c9be:	8d15                	sub	a0,a0,a3
 100c9c0:	00e03733          	snez	a4,a4
 100c9c4:	00a7d533          	srl	a0,a5,a0
 100c9c8:	bfd1                	j	100c99c <__fixunsdfsi+0x5c>
 100c9ca:	4501                	li	a0,0
 100c9cc:	4705                	li	a4,1
 100c9ce:	bfc9                	j	100c9a0 <__fixunsdfsi+0x60>
 100c9d0:	4501                	li	a0,0
 100c9d2:	4741                	li	a4,16
 100c9d4:	b7f1                	j	100c9a0 <__fixunsdfsi+0x60>
 100c9d6:	557d                	li	a0,-1
 100c9d8:	bfed                	j	100c9d2 <__fixunsdfsi+0x92>
 100c9da:	8082                	ret

0100c9dc <__floatsidf>:
__floatsidf():
 100c9dc:	1141                	addi	sp,sp,-16
 100c9de:	c606                	sw	ra,12(sp)
 100c9e0:	c422                	sw	s0,8(sp)
 100c9e2:	c226                	sw	s1,4(sp)
 100c9e4:	04050f63          	beqz	a0,100ca42 <__floatsidf+0x66>
 100c9e8:	41f55793          	srai	a5,a0,0x1f
 100c9ec:	00a7c433          	xor	s0,a5,a0
 100c9f0:	8c1d                	sub	s0,s0,a5
 100c9f2:	01f55493          	srli	s1,a0,0x1f
 100c9f6:	8522                	mv	a0,s0
 100c9f8:	2845                	jal	100caa8 <__clzsi2>
 100c9fa:	41e00713          	li	a4,1054
 100c9fe:	47a9                	li	a5,10
 100ca00:	8f09                	sub	a4,a4,a0
 100ca02:	02a7ca63          	blt	a5,a0,100ca36 <__floatsidf+0x5a>
 100ca06:	47ad                	li	a5,11
 100ca08:	8f89                	sub	a5,a5,a0
 100ca0a:	0555                	addi	a0,a0,21
 100ca0c:	00f457b3          	srl	a5,s0,a5
 100ca10:	00a41433          	sll	s0,s0,a0
 100ca14:	8526                	mv	a0,s1
 100ca16:	07b2                	slli	a5,a5,0xc
 100ca18:	7ff77713          	andi	a4,a4,2047
 100ca1c:	0752                	slli	a4,a4,0x14
 100ca1e:	83b1                	srli	a5,a5,0xc
 100ca20:	057e                	slli	a0,a0,0x1f
 100ca22:	8fd9                	or	a5,a5,a4
 100ca24:	00a7e733          	or	a4,a5,a0
 100ca28:	40b2                	lw	ra,12(sp)
 100ca2a:	8522                	mv	a0,s0
 100ca2c:	4422                	lw	s0,8(sp)
 100ca2e:	4492                	lw	s1,4(sp)
 100ca30:	85ba                	mv	a1,a4
 100ca32:	0141                	addi	sp,sp,16
 100ca34:	8082                	ret
 100ca36:	1555                	addi	a0,a0,-11
 100ca38:	00a417b3          	sll	a5,s0,a0
 100ca3c:	8526                	mv	a0,s1
 100ca3e:	4401                	li	s0,0
 100ca40:	bfd9                	j	100ca16 <__floatsidf+0x3a>
 100ca42:	4701                	li	a4,0
 100ca44:	4781                	li	a5,0
 100ca46:	bfe5                	j	100ca3e <__floatsidf+0x62>

0100ca48 <__riscv_save_12>:
__riscv_save_12():
 100ca48:	7139                	addi	sp,sp,-64
 100ca4a:	4301                	li	t1,0
 100ca4c:	c66e                	sw	s11,12(sp)
 100ca4e:	a019                	j	100ca54 <__riscv_save_10+0x4>

0100ca50 <__riscv_save_10>:
 100ca50:	7139                	addi	sp,sp,-64
 100ca52:	5341                	li	t1,-16
 100ca54:	c86a                	sw	s10,16(sp)
 100ca56:	ca66                	sw	s9,20(sp)
 100ca58:	cc62                	sw	s8,24(sp)
 100ca5a:	ce5e                	sw	s7,28(sp)
 100ca5c:	a019                	j	100ca62 <__riscv_save_4+0x4>

0100ca5e <__riscv_save_4>:
 100ca5e:	7139                	addi	sp,sp,-64
 100ca60:	5301                	li	t1,-32
 100ca62:	d05a                	sw	s6,32(sp)
 100ca64:	d256                	sw	s5,36(sp)
 100ca66:	d452                	sw	s4,40(sp)
 100ca68:	d64e                	sw	s3,44(sp)
 100ca6a:	d84a                	sw	s2,48(sp)
 100ca6c:	da26                	sw	s1,52(sp)
 100ca6e:	dc22                	sw	s0,56(sp)
 100ca70:	de06                	sw	ra,60(sp)
 100ca72:	40610133          	sub	sp,sp,t1
 100ca76:	8282                	jr	t0

0100ca78 <__riscv_save_0>:
__riscv_save_1():
 100ca78:	1141                	addi	sp,sp,-16
 100ca7a:	c04a                	sw	s2,0(sp)
 100ca7c:	c226                	sw	s1,4(sp)
 100ca7e:	c422                	sw	s0,8(sp)
 100ca80:	c606                	sw	ra,12(sp)
 100ca82:	8282                	jr	t0

0100ca84 <__riscv_restore_12>:
__riscv_restore_12():
 100ca84:	4db2                	lw	s11,12(sp)
 100ca86:	0141                	addi	sp,sp,16

0100ca88 <__riscv_restore_10>:
 100ca88:	4d02                	lw	s10,0(sp)
 100ca8a:	4c92                	lw	s9,4(sp)
 100ca8c:	4c22                	lw	s8,8(sp)
 100ca8e:	4bb2                	lw	s7,12(sp)
 100ca90:	0141                	addi	sp,sp,16

0100ca92 <__riscv_restore_4>:
 100ca92:	4b02                	lw	s6,0(sp)
 100ca94:	4a92                	lw	s5,4(sp)
 100ca96:	4a22                	lw	s4,8(sp)
 100ca98:	49b2                	lw	s3,12(sp)
 100ca9a:	0141                	addi	sp,sp,16

0100ca9c <__riscv_restore_0>:
 100ca9c:	4902                	lw	s2,0(sp)
 100ca9e:	4492                	lw	s1,4(sp)
 100caa0:	4422                	lw	s0,8(sp)
 100caa2:	40b2                	lw	ra,12(sp)
 100caa4:	0141                	addi	sp,sp,16
 100caa6:	8082                	ret

0100caa8 <__clzsi2>:
__clzsi2():
 100caa8:	67c1                	lui	a5,0x10
 100caaa:	02f57663          	bgeu	a0,a5,100cad6 <__clzsi2+0x2e>
 100caae:	0ff00793          	li	a5,255
 100cab2:	00a7b7b3          	sltu	a5,a5,a0
 100cab6:	078e                	slli	a5,a5,0x3
 100cab8:	02000693          	li	a3,32
 100cabc:	01010737          	lui	a4,0x1010
 100cac0:	8e9d                	sub	a3,a3,a5
 100cac2:	ad870713          	addi	a4,a4,-1320 # 100fad8 <__clz_tab>
 100cac6:	00f557b3          	srl	a5,a0,a5
 100caca:	97ba                	add	a5,a5,a4
 100cacc:	0007c503          	lbu	a0,0(a5) # 10000 <__EN_MIE-0xff007e>
 100cad0:	40a68533          	sub	a0,a3,a0
 100cad4:	8082                	ret
 100cad6:	01000737          	lui	a4,0x1000
 100cada:	47c1                	li	a5,16
 100cadc:	fce56ee3          	bltu	a0,a4,100cab8 <__clzsi2+0x10>
 100cae0:	47e1                	li	a5,24
 100cae2:	bfd9                	j	100cab8 <__clzsi2+0x10>

0100cae4 <memcmp>:
memcmp():
 100cae4:	4701                	li	a4,0
 100cae6:	00e61463          	bne	a2,a4,100caee <memcmp+0xa>
 100caea:	4501                	li	a0,0
 100caec:	8082                	ret
 100caee:	00e507b3          	add	a5,a0,a4
 100caf2:	0705                	addi	a4,a4,1
 100caf4:	00e586b3          	add	a3,a1,a4
 100caf8:	0007c783          	lbu	a5,0(a5)
 100cafc:	fff6c683          	lbu	a3,-1(a3)
 100cb00:	fed783e3          	beq	a5,a3,100cae6 <memcmp+0x2>
 100cb04:	40d78533          	sub	a0,a5,a3
 100cb08:	8082                	ret

0100cb0a <memcpy>:
memcpy():
 100cb0a:	00a5c7b3          	xor	a5,a1,a0
 100cb0e:	8b8d                	andi	a5,a5,3
 100cb10:	00c50733          	add	a4,a0,a2
 100cb14:	00079563          	bnez	a5,100cb1e <memcpy+0x14>
 100cb18:	478d                	li	a5,3
 100cb1a:	00c7ee63          	bltu	a5,a2,100cb36 <memcpy+0x2c>
 100cb1e:	87aa                	mv	a5,a0
 100cb20:	0ae57163          	bgeu	a0,a4,100cbc2 <memcpy+0xb8>
 100cb24:	0005c683          	lbu	a3,0(a1)
 100cb28:	0785                	addi	a5,a5,1
 100cb2a:	0585                	addi	a1,a1,1
 100cb2c:	fed78fa3          	sb	a3,-1(a5)
 100cb30:	fee7eae3          	bltu	a5,a4,100cb24 <memcpy+0x1a>
 100cb34:	8082                	ret
 100cb36:	00357693          	andi	a3,a0,3
 100cb3a:	87aa                	mv	a5,a0
 100cb3c:	00068b63          	beqz	a3,100cb52 <memcpy+0x48>
 100cb40:	0005c683          	lbu	a3,0(a1)
 100cb44:	0785                	addi	a5,a5,1
 100cb46:	0585                	addi	a1,a1,1
 100cb48:	fed78fa3          	sb	a3,-1(a5)
 100cb4c:	0037f693          	andi	a3,a5,3
 100cb50:	b7f5                	j	100cb3c <memcpy+0x32>
 100cb52:	ffc77693          	andi	a3,a4,-4
 100cb56:	fe068613          	addi	a2,a3,-32
 100cb5a:	06c7f063          	bgeu	a5,a2,100cbba <memcpy+0xb0>
 100cb5e:	0005a383          	lw	t2,0(a1)
 100cb62:	0045a283          	lw	t0,4(a1)
 100cb66:	0085af83          	lw	t6,8(a1)
 100cb6a:	00c5af03          	lw	t5,12(a1)
 100cb6e:	0105ae83          	lw	t4,16(a1)
 100cb72:	0145ae03          	lw	t3,20(a1)
 100cb76:	0185a303          	lw	t1,24(a1)
 100cb7a:	01c5a883          	lw	a7,28(a1)
 100cb7e:	02458593          	addi	a1,a1,36
 100cb82:	0077a023          	sw	t2,0(a5)
 100cb86:	ffc5a803          	lw	a6,-4(a1)
 100cb8a:	0057a223          	sw	t0,4(a5)
 100cb8e:	01f7a423          	sw	t6,8(a5)
 100cb92:	01e7a623          	sw	t5,12(a5)
 100cb96:	01d7a823          	sw	t4,16(a5)
 100cb9a:	01c7aa23          	sw	t3,20(a5)
 100cb9e:	0067ac23          	sw	t1,24(a5)
 100cba2:	0117ae23          	sw	a7,28(a5)
 100cba6:	02478793          	addi	a5,a5,36
 100cbaa:	ff07ae23          	sw	a6,-4(a5)
 100cbae:	b775                	j	100cb5a <memcpy+0x50>
 100cbb0:	4190                	lw	a2,0(a1)
 100cbb2:	0791                	addi	a5,a5,4
 100cbb4:	0591                	addi	a1,a1,4
 100cbb6:	fec7ae23          	sw	a2,-4(a5)
 100cbba:	fed7ebe3          	bltu	a5,a3,100cbb0 <memcpy+0xa6>
 100cbbe:	f6e7e3e3          	bltu	a5,a4,100cb24 <memcpy+0x1a>
 100cbc2:	8082                	ret

0100cbc4 <memset>:
memset():
 100cbc4:	433d                	li	t1,15
 100cbc6:	872a                	mv	a4,a0
 100cbc8:	02c37363          	bgeu	t1,a2,100cbee <memset+0x2a>
 100cbcc:	00f77793          	andi	a5,a4,15
 100cbd0:	efbd                	bnez	a5,100cc4e <memset+0x8a>
 100cbd2:	e5ad                	bnez	a1,100cc3c <memset+0x78>
 100cbd4:	ff067693          	andi	a3,a2,-16
 100cbd8:	8a3d                	andi	a2,a2,15
 100cbda:	96ba                	add	a3,a3,a4
 100cbdc:	c30c                	sw	a1,0(a4)
 100cbde:	c34c                	sw	a1,4(a4)
 100cbe0:	c70c                	sw	a1,8(a4)
 100cbe2:	c74c                	sw	a1,12(a4)
 100cbe4:	0741                	addi	a4,a4,16
 100cbe6:	fed76be3          	bltu	a4,a3,100cbdc <memset+0x18>
 100cbea:	e211                	bnez	a2,100cbee <memset+0x2a>
 100cbec:	8082                	ret
 100cbee:	40c306b3          	sub	a3,t1,a2
 100cbf2:	068a                	slli	a3,a3,0x2
 100cbf4:	00000297          	auipc	t0,0x0
 100cbf8:	9696                	add	a3,a3,t0
 100cbfa:	00a68067          	jr	10(a3)
 100cbfe:	00b70723          	sb	a1,14(a4) # 100000e <__EN_MIE-0x70>
 100cc02:	00b706a3          	sb	a1,13(a4)
 100cc06:	00b70623          	sb	a1,12(a4)
 100cc0a:	00b705a3          	sb	a1,11(a4)
 100cc0e:	00b70523          	sb	a1,10(a4)
 100cc12:	00b704a3          	sb	a1,9(a4)
 100cc16:	00b70423          	sb	a1,8(a4)
 100cc1a:	00b703a3          	sb	a1,7(a4)
 100cc1e:	00b70323          	sb	a1,6(a4)
 100cc22:	00b702a3          	sb	a1,5(a4)
 100cc26:	00b70223          	sb	a1,4(a4)
 100cc2a:	00b701a3          	sb	a1,3(a4)
 100cc2e:	00b70123          	sb	a1,2(a4)
 100cc32:	00b700a3          	sb	a1,1(a4)
 100cc36:	00b70023          	sb	a1,0(a4)
 100cc3a:	8082                	ret
 100cc3c:	0ff5f593          	andi	a1,a1,255
 100cc40:	00859693          	slli	a3,a1,0x8
 100cc44:	8dd5                	or	a1,a1,a3
 100cc46:	01059693          	slli	a3,a1,0x10
 100cc4a:	8dd5                	or	a1,a1,a3
 100cc4c:	b761                	j	100cbd4 <memset+0x10>
 100cc4e:	00279693          	slli	a3,a5,0x2
 100cc52:	00000297          	auipc	t0,0x0
 100cc56:	9696                	add	a3,a3,t0
 100cc58:	8286                	mv	t0,ra
 100cc5a:	fa8680e7          	jalr	-88(a3)
 100cc5e:	8096                	mv	ra,t0
 100cc60:	17c1                	addi	a5,a5,-16
 100cc62:	8f1d                	sub	a4,a4,a5
 100cc64:	963e                	add	a2,a2,a5
 100cc66:	f8c374e3          	bgeu	t1,a2,100cbee <memset+0x2a>
 100cc6a:	b7a5                	j	100cbd2 <memset+0xe>

0100cc6c <srand>:
srand():
 100cc6c:	100107b7          	lui	a5,0x10010
 100cc70:	5c87a783          	lw	a5,1480(a5) # 100105c8 <_impure_ptr>
 100cc74:	0aa7a423          	sw	a0,168(a5)
 100cc78:	0a07a623          	sw	zero,172(a5)
 100cc7c:	8082                	ret

0100cc7e <rand>:
rand():
 100cc7e:	100107b7          	lui	a5,0x10010
 100cc82:	5c87a603          	lw	a2,1480(a5) # 100105c8 <_impure_ptr>
 100cc86:	4c958737          	lui	a4,0x4c958
 100cc8a:	5851f7b7          	lui	a5,0x5851f
 100cc8e:	0a862683          	lw	a3,168(a2)
 100cc92:	0ac62503          	lw	a0,172(a2)
 100cc96:	f2d70713          	addi	a4,a4,-211 # 4c957f2d <_stack+0x3c93a72d>
 100cc9a:	42d78793          	addi	a5,a5,1069 # 5851f42d <_stack+0x48501c2d>
 100cc9e:	02f687b3          	mul	a5,a3,a5
 100cca2:	02e50533          	mul	a0,a0,a4
 100cca6:	953e                	add	a0,a0,a5
 100cca8:	02e687b3          	mul	a5,a3,a4
 100ccac:	02e6b733          	mulhu	a4,a3,a4
 100ccb0:	00178693          	addi	a3,a5,1
 100ccb4:	0ad62423          	sw	a3,168(a2)
 100ccb8:	972a                	add	a4,a4,a0
 100ccba:	00f6b533          	sltu	a0,a3,a5
 100ccbe:	953a                	add	a0,a0,a4
 100ccc0:	0aa62623          	sw	a0,172(a2)
 100ccc4:	0506                	slli	a0,a0,0x1
 100ccc6:	8105                	srli	a0,a0,0x1
 100ccc8:	8082                	ret
 100ccca:	0000                	unimp
 100cccc:	0020                	addi	s0,sp,8
 100ccce:	0000                	unimp
 100ccd0:	3130                	fld	fa2,96(a0)
 100ccd2:	3332                	fld	ft6,296(sp)
 100ccd4:	3534                	fld	fa3,104(a0)
 100ccd6:	3736                	fld	fa4,360(sp)
 100ccd8:	3938                	fld	fa4,112(a0)
 100ccda:	6261                	lui	tp,0x18
 100ccdc:	66656463          	bltu	a0,t1,100d344 <AAP_AncRst3+0x4>
 100cce0:	0000                	unimp
 100cce2:	0000                	unimp
 100cce4:	3130                	fld	fa2,96(a0)
 100cce6:	3332                	fld	ft6,296(sp)
 100cce8:	3534                	fld	fa3,104(a0)
 100ccea:	3736                	fld	fa4,360(sp)
 100ccec:	3938                	fld	fa4,112(a0)
 100ccee:	4241                	li	tp,16
 100ccf0:	46454443          	fmadd.q	fs0,fa0,ft4,fs0,rmm
 100ccf4:	0000                	unimp
 100ccf6:	0000                	unimp
 100ccf8:	5245                	li	tp,-15
 100ccfa:	4f52                	lw	t5,20(sp)
 100ccfc:	0052                	c.slli	zero,0x14
 100ccfe:	0000                	unimp
 100cd00:	2f2e                	fld	ft10,200(sp)
 100cd02:	2e2e                	fld	ft8,200(sp)
 100cd04:	2f2e2e2f          	0x2f2e2e2f
 100cd08:	2e2e                	fld	ft8,200(sp)
 100cd0a:	5050412f          	0x5050412f
 100cd0e:	6c616d2f          	0x6c616d2f
 100cd12:	6f6c                	flw	fa1,92(a4)
 100cd14:	616d2f63          	0x616d2f63
 100cd18:	6c6c                	flw	fa1,92(s0)
 100cd1a:	632e636f          	jal	t1,10f334c <_sidata+0xe3774>
	...

0100cd20 <__FUNCTION__.3696>:
 100cd20:	6f6d654d 4d5f7972 6f6c6c61 00000063     Memory_Malloc...
 100cd30:	2e2e2f2e 2f2e2e2f 502f2e2e 6674616c     ./../../../Platf
 100cd40:	2f6d726f 2f6b6473 792f7462 78313163     orm/sdk/bt/yc11x
 100cd50:	70695f78 00632e63 44637049 75616665     x_ipc.c.IpcDefau
 100cd60:	6143746c 61426c6c 0d206b63 0000000a     ltCallBack .....

0100cd70 <__FUNCTION__.3762>:
 100cd70:	5f435049 6f437854 6e6f6d6d 00000000     IPC_TxCommon....

0100cd80 <__FUNCTION__.3767>:
 100cd80:	5f435049 6f437854 6f72746e 646d436c     IPC_TxControlCmd
 100cd90:	00000000                                ....

0100cd94 <__FUNCTION__.3772>:
 100cd94:	5f435049 63417854 646d436c 00000000     IPC_TxAclCmd....

0100cda4 <__FUNCTION__.3777>:
 100cda4:	5f435049 646e6148 7852656c 6b636150     IPC_HandleRxPack
 100cdb4:	00007465                                et..

0100cdb8 <g_adc_cicfircoeffTtablel>:
 100cdb8:	00000142 00000000 00000234 00000000     B.......4.......
 100cdc8:	ffffff82 ffffffff fffffd46 ffffffff     ........F.......
 100cdd8:	0000019c 00000000 000003cb 00000000     ................
 100cde8:	fffffc28 ffffffff fffffb4a ffffffff     (.......J.......
 100cdf8:	00000751 00000000 0000046e 00000000     Q.......n.......
 100ce08:	fffff3b0 ffffffff fffffddd ffffffff     ................
 100ce18:	00001228 00000000 fffffc69 ffffffff     (.......i.......
 100ce28:	ffffe803 ffffffff 00000d8e 00000000     ................
 100ce38:	00001bb9 00000000 ffffe361 ffffffff     ........a.......
 100ce48:	ffffe4f7 ffffffff 0000307b 00000000     ........{0......
 100ce58:	00001274 00000000 ffffb781 ffffffff     t...............
 100ce68:	000001cc 00000000 000062ea 00000000     .........b......
 100ce78:	ffffd852 ffffffff ffff815a ffffffff     R.......Z.......
 100ce88:	00006a8e 00000000 00009da6 00000000     .j..............
 100ce98:	ffff0fbb ffffffff ffff2119 ffffffff     .........!......
 100cea8:	0002a58a 00000000 00050f02 00000000     ................
 100ceb8:	0002a58a 00000000 ffff2119 ffffffff     .........!......
 100cec8:	ffff0fbb ffffffff 00009da6 00000000     ................
 100ced8:	00006a8e 00000000 ffff815a ffffffff     .j......Z.......
 100cee8:	ffffd852 ffffffff 000062ea 00000000     R........b......
 100cef8:	000001cc 00000000 ffffb781 ffffffff     ................
 100cf08:	00001274 00000000 0000307b 00000000     t.......{0......
 100cf18:	ffffe4f7 ffffffff ffffe361 ffffffff     ........a.......
 100cf28:	00001bb9 00000000 00000d8e 00000000     ................
 100cf38:	ffffe803 ffffffff fffffc69 ffffffff     ........i.......
 100cf48:	00001228 00000000 fffffddd ffffffff     (...............
 100cf58:	fffff3b0 ffffffff 0000046e 00000000     ........n.......
 100cf68:	00000751 00000000 fffffb4a ffffffff     Q.......J.......
 100cf78:	fffffc28 ffffffff 000003cb 00000000     (...............
 100cf88:	0000019c 00000000 fffffd46 ffffffff     ........F.......
 100cf98:	ffffff82 ffffffff 00000234 00000000     ........4.......
 100cfa8:	00000142 00000000                       B.......

0100cfb0 <g_adc_halfbandcoeftablel>:
 100cfb0:	fffffe52 ffffffff 00000000 00000000     R...............
 100cfc0:	00000283 00000000 00000000 00000000     ................
 100cfd0:	fffffbb4 ffffffff 00000000 00000000     ................
 100cfe0:	000006d4 00000000 00000000 00000000     ................
 100cff0:	fffff5b0 ffffffff 00000000 00000000     ................
 100d000:	00000f01 00000000 00000000 00000000     ................
 100d010:	ffffeac1 ffffffff 00000000 00000000     ................
 100d020:	00001d8f 00000000 00000000 00000000     ................
 100d030:	ffffd732 ffffffff 00000000 00000000     2...............
 100d040:	00003894 00000000 00000000 00000000     .8..............
 100d050:	ffffafb3 ffffffff 00000000 00000000     ................
 100d060:	000078f2 00000000 00000000 00000000     .x..............
 100d070:	ffff2c7a ffffffff 00000000 00000000     z,..............
 100d080:	000289f4 00000000 00040000 00000000     ................
 100d090:	000289f4 00000000 00000000 00000000     ................
 100d0a0:	ffff2c7a ffffffff 00000000 00000000     z,..............
 100d0b0:	000078f2 00000000 00000000 00000000     .x..............
 100d0c0:	ffffafb3 ffffffff 00000000 00000000     ................
 100d0d0:	00003894 00000000 00000000 00000000     .8..............
 100d0e0:	ffffd732 ffffffff 00000000 00000000     2...............
 100d0f0:	00001d8f 00000000 00000000 00000000     ................
 100d100:	ffffeac1 ffffffff 00000000 00000000     ................
 100d110:	00000f01 00000000 00000000 00000000     ................
 100d120:	fffff5b0 ffffffff 00000000 00000000     ................
 100d130:	000006d4 00000000 00000000 00000000     ................
 100d140:	fffffbb4 ffffffff 00000000 00000000     ................
 100d150:	00000283 00000000 00000000 00000000     ................
 100d160:	fffffe52 ffffffff 2e2e2f2e 2f2e2e2f     R......../../../
 100d170:	502f2e2e 6674616c 2f6d726f 2f6b6473     ../Platform/sdk/
 100d180:	31316379 675f7878 2e6f6970 00000063     yc11xx_gpio.c...

0100d190 <__FUNCTION__.2294>:
 100d190:	4f495047 696e495f 00000074              GPIO_Init...

0100d19c <__FUNCTION__.2298>:
 100d19c:	4f495047 6165525f 74614464 74694261     GPIO_ReadDataBit
 100d1ac:	00000000 2e2e2f2e 2f2e2e2f 502f2e2e     ...../../../../P
 100d1bc:	6674616c 2f6d726f 2f6b6473 31316379     latform/sdk/yc11
 100d1cc:	695f7878 2e676477 00000063              xx_iwdg.c...

0100d1d8 <__FUNCTION__.2182>:
 100d1d8:	47445749 7369445f 656c6261 00000000     IWDG_Disable....

0100d1e8 <CSWTCH.10>:
 100d1e8:	c0609930 2e2e2f2e 2f2e2e2f 502f2e2e     0.`../../../../P
 100d1f8:	6674616c 2f6d726f 2f6b6473 31316379     latform/sdk/yc11
 100d208:	745f7878 72656d69 0000632e              xx_timer.c..

0100d214 <__FUNCTION__.3483>:
 100d214:	5f4d4954 74696e49 00000000              TIM_Init....

0100d220 <__FUNCTION__.3490>:
 100d220:	5f4d4954 00646d43                       TIM_Cmd.

0100d228 <aap_rsp>:
 100d228:	00040001 00010000 00070002 000784e1     ................
 100d238:	0000863d                                =...

0100d23c <AAP_manufac1>:
 100d23c:	00040004 8d01001d 41000400 6f507269     ...........AirPo
 100d24c:	50207364 41006f72 34383032 70704100     ds Pro.A2084.App
 100d25c:	4920656c 002e636e 5a585747 39345647     le Inc..GWXZGV49
 100d26c:	544b4b4c 2e303100 32323033 34313030     LKKT.10.30220014
 100d27c:	30303036 2e303030 31003335 30332e30     6000000.53.10.30
 100d28c:	30303232 30363431 30303030 33352e30     2200146000000.53
 100d29c:	302e3100 6300302e 612e6d6f 656c7070     .1.0.0.com.apple
 100d2ac:	6363612e 6f737365 752e7972 74616470     .accessory.updat
 100d2bc:	612e7265 362e7070 00300031 30310030     er.app.61.0.0.10
 100d2cc:	34333935 00000034                       59344...

0100d2d4 <AAP_manufac2>:
 100d2d4:	00040004 00000006                       ........

0100d2dc <AAP_manufac3>:
 100d2dc:	00040004 01020031 1e001000 da3a87a3     ....1.........:.
 100d2ec:	6e87a6c8 9f4c58ee 04bf5dd3 15001000     ...n.XL..]......
 100d2fc:	64660bb7 1fb55183 c9ab17b4 00fe2222     ..fd.Q......""..

0100d30c <AAP_manufac4>:
 100d30c:	00040004 02030004 01025e01 025e0104     .........^....^.
 100d31c:	7f010801 00000104                       ........

0100d324 <AAP_AcpAnc1>:
 100d324:	00040004 02010021 00000002              ....!.......

0100d330 <AAP_StartAnc2>:
 100d330:	00040004 fa25000e 005b9411 00000002     ......%...[.....

0100d340 <AAP_AncRst3>:
 100d340:	00040004 03010021 000000b2 40bd2d93     ....!........-.@
 100d350:	3dde3545 3d9ef443 3db35442 3d918207     E5.=C..=BT.=...=
 100d360:	3e8371c8 3e802726 3eb14e3e 3eb00c14     .q.>&'.>>N.>...>
 100d370:	3f043e9e 3f676d81 3f595ae4 3fc900fc     .>.?.mg?.ZY?...?
 100d380:	3f7b8216 3fb77e21 3f80ad6b 3f8114de     ..{?!~.?k..?...?
 100d390:	3f34c7dc 3eec80a2 3eda88b2 3f11658f     ..4?...>...>.e.?
 100d3a0:	3f5843bc 419cdc8b 3e170bd6 3b385900     .CX?...A...>.Y8;
 100d3b0:	3e1b3970 3e0b065c 3f1cfb26 3e114f90     p9.>\..>&..?.O.>
 100d3c0:	3e891bc4 3eb4e8bc 3eab5514 3f01b2a1     ...>...>.U.>...?
 100d3d0:	3ee8a640 3f1972be 3eb9d450 3f524da4     @..>.r.?P..>.MR?
 100d3e0:	3ec7c6e1 3f2505fb 3f60fcbd 3f089e2e     ...>..%?..`?...?
 100d3f0:	3f7d6ed0 3f6cc129 3f2e3283              .n}?).l?.2.?

0100d3fc <AAP_StopAnc4>:
 100d3fc:	00040004 fa25000e 005b9411 00000000     ......%...[.....
 100d40c:	20494348 55455551 53492045 4c554620     HCI QUEUE IS FUL
 100d41c:	0a0d204c 00000000 01004892 010047f8     L .......H...G..
 100d42c:	0100481a 01004838 01004856 01004874     .H..8H..VH..tH..
 100d43c:	425f7442 6553656c 6144646e 45206174     Bt_BleSendData E
 100d44c:	524f5252 000a0d20 01004b50 01004a5e     RROR ...PK..^J..
 100d45c:	01004a9e 01004acc 01004afe 01004b2a     .J...J...J..*K..
 100d46c:	4c5f5442 0000474f 203a7325 6f636572     BT_LOG..%s: reco
 100d47c:	63656e6e 6e692074 69206f66 6f6e2073     nnect info is no
 100d48c:	656e2074 74206465 6173206f 0d206576     t need to save .
 100d49c:	0000000a 203a7325 6f636572 63656e6e     ....%s: reconnec
 100d4ac:	6e692074 69206f66 6e202073 20646565     t info is  need 
 100d4bc:	73206f74 20657661 00000a0d 203a7325     to save ....%s: 
 100d4cc:	20656c62 78257825 78257825 78257825     ble %x%x%x%x%x%x
 100d4dc:	00000a0d 203a7325 6c5f6461 20206e65     ....%s: ad_len  
 100d4ec:	7265766f 657a6973 72726520 2020726f     oversize error  
 100d4fc:	00000a0d 203a7325 5f564441 45505954     ....%s: ADV_TYPE
 100d50c:	4d4f4e5f 20204c41 2d2d2020 2d2d2d2d     _NOMAL    ------
 100d51c:	2d2d2d2d 2d2d2d2d 00000a0d 203a7325     --------....%s: 
 100d52c:	5f564441 45505954 5249445f 20544345     ADV_TYPE_DIRECT 
 100d53c:	2d202020 2d2d2d2d 2d2d2d2d 2d2d2d2d        -------------
 100d54c:	000a0d2d 203a7325 5f564441 45505954     -...%s: ADV_TYPE
 100d55c:	434f4e5f 454e4e4f 20205443 2d2d2020     _NOCONNECT    --
 100d56c:	2d2d2d2d 2d2d2d2d 2d2d2d2d 00000a0d     ------------....
 100d57c:	01005306 01005364 01005392 010052b4     .S..dS...S...R..
 100d58c:	0100526a 203a7325 455f5442 4c5f5456     jR..%s: BT_EVT_L
 100d59c:	4e455f45 4e495f43 0d204f46 0000000a     E_ENC_INFO .....
 100d5ac:	203a7325 455f5442 4c5f5456 4e495f45     %s: BT_EVT_LE_IN
 100d5bc:	544e4544 49595449 204f464e 00000a0d     DENTITYINFO ....
 100d5cc:	203a7325 455f5442 495f5456 4e45444e     %s: BT_EVT_INDEN
 100d5dc:	59544954 52444441 20535345 00000a0d     TITYADDRESS ....
 100d5ec:	203a7325 455f5442 4d5f5456 45545341     %s: BT_EVT_MASTE
 100d5fc:	44495f52 49544e45 41434946 4e4f4954     R_IDENTIFICATION
 100d60c:	000a0d20 61656c43 65522072 65746f6d      ...Clear Remote
 100d61c:	76654420 6f666e49 000a0d20 695f766e      DevInfo ...nv_i
 100d62c:	5f6d6574 206d756e 65207369 726f7272     tem_num is error
 100d63c:	20202021 00000a0d 2041544f 41544144     !   ....OTA DATA
 100d64c:	5b4e454c 5d783425 000a0d20 2041544f     LEN[%4x] ...OTA 
 100d65c:	41544144 5b4d5553 5d783425 000a0d20     DATASUM[%4x] ...
 100d66c:	5f41544f 5f545645 45534552 0a0d2054     OTA_EVT_RESET ..
 100d67c:	00000000 5f545441 00474f4c 203a7325     ....ATT_LOG.%s: 
 100d68c:	20545441 41445055 4d204154 202c5455     ATT UPDATA MUT, 
 100d69c:	68637865 65676e61 3a75746d 20642520     exchangemtu: %d 
 100d6ac:	636f6c20 746d6c61 25203a75 0a0d2064      localmtu: %d ..
 100d6bc:	00000000 203a7325 4f545441 4f4e2050     ....%s: ATTOP NO
 100d6cc:	444d4320 7830203a 0d207825 0000000a      CMD: 0x%x .....
 100d6dc:	20505041 55455551 53492045 4c554620     APP QUEUE IS FUL
 100d6ec:	0a0d204c 00000000 50455250 20455241     L ......PREPARE 
 100d6fc:	4f464542 53204552 5045454c 000a0d20     BEFORE SLEEP ...
 100d70c:	45544e45 45442052 53205045 5045454c     ENTER DEEP SLEEP
 100d71c:	000a0d20 01006b22 01006b46 01006b70      ..."k..Fk..pk..
 100d72c:	01006b8e 01006ba8 01006bc0 01006bd8     .k...k...k...k..
 100d73c:	01006bf2 44898000 42c80000 01006e84     .k.....D...B.n..
 100d74c:	01006e94 01006eb6 01006eba 01006ebe     .n...n...n...n..
 100d75c:	01006ec2 01006ec6 01006ecc 01006ed6     .n...n...n...n..
 100d76c:	01006eda 01006ede 01006ee2 01006ee6     .n...n...n...n..
 100d77c:	01006e8e 9999999a 3fd99999 33333333     .n.........?3333
 100d78c:	3fe33333 010082ce 010082c0 010082fc     33.?............
 100d79c:	010082ce 010081a6 01008336 010083bc     ........6.......
 100d7ac:	0100864a 010084a8 010084ec 010084ce     J...............
 100d7bc:	01008464 01008524 0100844e 01008482     d...$...N.......
 100d7cc:	01008512 010087e6 01008822 010087e6     ........".......
 100d7dc:	010087e6 010087e6 010087e6 010087e6     ................
 100d7ec:	010087e6 010087e6 010087e6 01008880     ................
 100d7fc:	01008842 01008804 01008872 01008856     B.......r...V...
 100d80c:	01008856 01008848 01008848 01008848     V...H...H...H...
 100d81c:	01008848 01008864 0100888e              H...d.......

0100d828 <rpt_TC9012LIAN_9700_BUF>:
 100d828:	067c0258 ea600258 000084d0              X.|.X.`.....

0100d834 <rpt_lc7461_9000_4500_BUF>:
 100d834:	11942328 ea600230 000084d0              (#..0.`.....

0100d840 <rpt_udp6121_9000_BUF>:
 100d840:	08ca2328 ea600230 000084d0              (#..0.`.....

0100d84c <rpt_udp6121_8550_BUF>:
 100d84c:	085c2166 ea600214 000084d0              f!\...`.....

0100d858 <rpt_GEMINI_8500_BUF>:
 100d858:	00000000 ea600000 00007530              ......`.0u..

0100d864 <rpt_SINGH2150_8170_BUF>:
 100d864:	00000000 ea600000 000054c4              ......`..T..

0100d870 <rpt_DVB_40BIT_BUF>:
 100d870:	0e100e10 ea600230 00008ca0              ....0.`.....

0100d87c <CUSTOM_00_00_BUF>:
 100d87c:	00000000                                ....

0100d880 <CUSTOM_00_1F_BUF>:
 100d880:	001f0000                                ....

0100d884 <CUSTOM_00_02_BUF>:
 100d884:	00020000                                ....

0100d888 <CUSTOM_00_2B_BUF>:
 100d888:	002b0000                                ..+.

0100d88c <CUSTOM_00_30_BUF>:
 100d88c:	00300000                                ..0.

0100d890 <CUSTOM_00_57_BUF>:
 100d890:	00570000                                ..W.

0100d894 <CUSTOM_00_7F_BUF>:
 100d894:	007f0000                                ....

0100d898 <CUSTOM_00_80_BUF>:
 100d898:	00800000                                ....

0100d89c <CUSTOM_00_99_BUF>:
 100d89c:	00990000                                ....

0100d8a0 <CUSTOM_00_AF_BUF>:
 100d8a0:	00af0000                                ....

0100d8a4 <CUSTOM_00_BA_BUF>:
 100d8a4:	00ba0000                                ....

0100d8a8 <CUSTOM_00_BD_BUF>:
 100d8a8:	00bd0000                                ....

0100d8ac <CUSTOM_00_BE_BUF>:
 100d8ac:	00be0000                                ....

0100d8b0 <CUSTOM_00_BF_BUF>:
 100d8b0:	00bf0000                                ....

0100d8b4 <CUSTOM_00_DF_BUF>:
 100d8b4:	00df0000                                ....

0100d8b8 <CUSTOM_00_D9_BUF>:
 100d8b8:	00d90000                                ....

0100d8bc <CUSTOM_00_EF_BUF>:
 100d8bc:	00ef0000                                ....

0100d8c0 <CUSTOM_00_F6_BUF>:
 100d8c0:	00f60000                                ....

0100d8c4 <CUSTOM_00_F7_BUF>:
 100d8c4:	00f70000                                ....

0100d8c8 <CUSTOM_00_FB_BUF>:
 100d8c8:	00fb0000                                ....

0100d8cc <CUSTOM_00_FD_BUF>:
 100d8cc:	00fd0000                                ....

0100d8d0 <CUSTOM_00_FF_BUF>:
 100d8d0:	00ff0000                                ....

0100d8d4 <CUSTOM_01_00_BUF>:
 100d8d4:	00000001                                ....

0100d8d8 <CUSTOM_01_01_BUF>:
 100d8d8:	00010001                                ....

0100d8dc <CUSTOM_01_FE_BUF>:
 100d8dc:	00fe0001                                ....

0100d8e0 <CUSTOM_02_00_BUF>:
 100d8e0:	00000002                                ....

0100d8e4 <CUSTOM_02_BD_BUF>:
 100d8e4:	00bd0002                                ....

0100d8e8 <CUSTOM_02_FD_BUF>:
 100d8e8:	00fd0002                                ....

0100d8ec <CUSTOM_02_7D_BUF>:
 100d8ec:	007d0002                                ..}.

0100d8f0 <CUSTOM_02_7F_BUF>:
 100d8f0:	007f0002                                ....

0100d8f4 <CUSTOM_02_FF_BUF>:
 100d8f4:	00ff0002                                ....

0100d8f8 <CUSTOM_02_F5_BUF>:
 100d8f8:	00f50002                                ....

0100d8fc <CUSTOM_03_00_BUF>:
 100d8fc:	00000003                                ....

0100d900 <CUSTOM_03_AC_BUF>:
 100d900:	00ac0003                                ....

0100d904 <CUSTOM_03_FC_BUF>:
 100d904:	00fc0003                                ....

0100d908 <CUSTOM_04_00_BUF>:
 100d908:	00000004                                ....

0100d90c <CUSTOM_04_10_BUF>:
 100d90c:	00100004                                ....

0100d910 <CUSTOM_04_B9_BUF>:
 100d910:	00b90004                                ....

0100d914 <CUSTOM_04_FB_BUF>:
 100d914:	00fb0004                                ....

0100d918 <CUSTOM_05_00_BUF>:
 100d918:	00000005                                ....

0100d91c <CUSTOM_05_05_BUF>:
 100d91c:	00050005                                ....

0100d920 <CUSTOM_06_06_BUF>:
 100d920:	00060006                                ....

0100d924 <CUSTOM_06_FB_BUF>:
 100d924:	00fb0006                                ....

0100d928 <CUSTOM_06_FE_BUF>:
 100d928:	00fe0006                                ....

0100d92c <CUSTOM_07_07_BUF>:
 100d92c:	00070007                                ....

0100d930 <CUSTOM_08_00_BUF>:
 100d930:	00000008                                ....

0100d934 <CUSTOM_08_08_BUF>:
 100d934:	00080008                                ....

0100d938 <CUSTOM_08_0B_BUF>:
 100d938:	000b0008                                ....

0100d93c <CUSTOM_08_13_BUF>:
 100d93c:	00130008                                ....

0100d940 <CUSTOM_08_F7_BUF>:
 100d940:	00f70008                                ....

0100d944 <CUSTOM_09_F6_BUF>:
 100d944:	00f60009                                ....

0100d948 <CUSTOM_0A_35_BUF>:
 100d948:	0035000a                                ..5.

0100d94c <CUSTOM_0A_00_BUF>:
 100d94c:	0000000a                                ....

0100d950 <CUSTOM_0A_0A_BUF>:
 100d950:	000a000a                                ....

0100d954 <CUSTOM_0B_0B_BUF>:
 100d954:	000b000b                                ....

0100d958 <CUSTOM_0D_0D_BUF>:
 100d958:	000d000d                                ....

0100d95c <CUSTOM_0E_09_BUF>:
 100d95c:	0009000e                                ....

0100d960 <CUSTOM_0E_0E_BUF>:
 100d960:	000e000e                                ....

0100d964 <CUSTOM_0F_00_BUF>:
 100d964:	0000000f                                ....

0100d968 <CUSTOM_10_ED_BUF>:
 100d968:	00ed0010                                ....

0100d96c <CUSTOM_10_EF_BUF>:
 100d96c:	00ef0010                                ....

0100d970 <CUSTOM_10_2D_BUF>:
 100d970:	002d0010                                ..-.

0100d974 <CUSTOM_12_12_BUF>:
 100d974:	00120012                                ....

0100d978 <CUSTOM_12_ED_BUF>:
 100d978:	00ed0012                                ....

0100d97c <CUSTOM_13_14_BUF>:
 100d97c:	00140013                                ....

0100d980 <CUSTOM_14_00_BUF>:
 100d980:	00000014                                ....

0100d984 <CUSTOM_16_29_BUF>:
 100d984:	00290016                                ..).

0100d988 <CUSTOM_16_E9_BUF>:
 100d988:	ffe90016                                ....

0100d98c <CUSTOM_18_18_BUF>:
 100d98c:	00180018                                ....

0100d990 <CUSTOM_18_E7_BUF>:
 100d990:	00e70018                                ....

0100d994 <CUSTOM_18_E9_BUF>:
 100d994:	00e90018                                ....

0100d998 <CUSTOM_1A_00_BUF>:
 100d998:	0000001a                                ....

0100d99c <CUSTOM_1B_00_BUF>:
 100d99c:	0000001b                                ....

0100d9a0 <CUSTOM_1C_E3_BUF>:
 100d9a0:	00e3001c                                ....

0100d9a4 <CUSTOM_1E_1E_BUF>:
 100d9a4:	001e001e                                ....

0100d9a8 <CUSTOM_1E_E1_BUF>:
 100d9a8:	00e1001e                                ....

0100d9ac <CUSTOM_1F_00_BUF>:
 100d9ac:	0000001f                                ....

0100d9b0 <CUSTOM_20_40_BUF>:
 100d9b0:	00400020                                 .@.

0100d9b4 <CUSTOM_20_DF_BUF>:
 100d9b4:	00df0020                                 ...

0100d9b8 <CUSTOM_20_FD_BUF>:
 100d9b8:	00fd0020                                 ...

0100d9bc <CUSTOM_21_DE_BUF>:
 100d9bc:	00de0021                                !...

0100d9c0 <CUSTOM_22_11_BUF>:
 100d9c0:	00110022                                "...

0100d9c4 <CUSTOM_24_DB_BUF>:
 100d9c4:	00db0024                                $...

0100d9c8 <CUSTOM_29_D6_BUF>:
 100d9c8:	00d60029                                )...

0100d9cc <CUSTOM_2B_D4_BUF>:
 100d9cc:	00d4002b                                +...

0100d9d0 <CUSTOM_33_00_BUF>:
 100d9d0:	00000033                                3...

0100d9d4 <CUSTOM_33_CC_BUF>:
 100d9d4:	00cc0033                                3...

0100d9d8 <CUSTOM_35_50_BUF>:
 100d9d8:	00500035                                5.P.

0100d9dc <CUSTOM_38_C7_BUF>:
 100d9dc:	00c70038                                8...

0100d9e0 <CUSTOM_3F_C0_BUF>:
 100d9e0:	00c0003f                                ?...

0100d9e4 <CUSTOM_3F_3F_BUF>:
 100d9e4:	003f003f                                ?.?.

0100d9e8 <CUSTOM_40_02_BUF>:
 100d9e8:	00020040                                @...

0100d9ec <CUSTOM_40_20_BUF>:
 100d9ec:	00200040                                @. .

0100d9f0 <CUSTOM_40_40_BUF>:
 100d9f0:	00400040                                @.@.

0100d9f4 <CUSTOM_40_BF_BUF>:
 100d9f4:	00bf0040                                @...

0100d9f8 <CUSTOM_42_BD_BUF>:
 100d9f8:	00bd0042                                B...

0100d9fc <CUSTOM_42_FD_BUF>:
 100d9fc:	00fd0042                                B...

0100da00 <CUSTOM_43_00_BUF>:
 100da00:	00000043                                C...

0100da04 <CUSTOM_45_16_BUF>:
 100da04:	00160045                                E...

0100da08 <CUSTOM_23_45_BUF>:
 100da08:	00450023                                #.E.

0100da0c <CUSTOM_45_BC_BUF>:
 100da0c:	00bc0045                                E...

0100da10 <CUSTOM_46_00_BUF>:
 100da10:	00000046                                F...

0100da14 <CUSTOM_47_00_BUF>:
 100da14:	00000047                                G...

0100da18 <CUSTOM_4B_B4_BUF>:
 100da18:	00b4004b                                K...

0100da1c <CUSTOM_4F_50_BUF>:
 100da1c:	0050004f                                O.P.

0100da20 <CUSTOM_50_AD_BUF>:
 100da20:	00ad0050                                P...

0100da24 <CUSTOM_50_AF_BUF>:
 100da24:	00af0050                                P...

0100da28 <CUSTOM_54_00_BUF>:
 100da28:	00000054                                T...

0100da2c <CUSTOM_58_A7_BUF>:
 100da2c:	00a70058                                X...

0100da30 <CUSTOM_5A_49_BUF>:
 100da30:	0049005a                                Z.I.

0100da34 <CUSTOM_60_9F_BUF>:
 100da34:	009f0060                                `...

0100da38 <CUSTOM_60_9D_BUF>:
 100da38:	009d0060                                `...

0100da3c <CUSTOM_61_63_BUF>:
 100da3c:	00630061                                a.c.

0100da40 <CUSTOM_6A_00_BUF>:
 100da40:	0000006a                                j...

0100da44 <CUSTOM_69_F1_BUF>:
 100da44:	00f10069                                i...

0100da48 <CUSTOM_71_8E_BUF>:
 100da48:	008e0071                                q...

0100da4c <CUSTOM_73_00_BUF>:
 100da4c:	00000073                                s...

0100da50 <CUSTOM_76_7B_BUF>:
 100da50:	007b0076                                v.{.

0100da54 <CUSTOM_77_00_BUF>:
 100da54:	00000077                                w...

0100da58 <CUSTOM_77_88_BUF>:
 100da58:	00880077                                w...

0100da5c <CUSTOM_7D_00_BUF>:
 100da5c:	0000007d                                }...

0100da60 <CUSTOM_7F_00_BUF>:
 100da60:	0000007f                                ....

0100da64 <CUSTOM_80_23_BUF>:
 100da64:	00230080                                ..#.

0100da68 <CUSTOM_80_80_BUF>:
 100da68:	00800080                                ....

0100da6c <CUSTOM_80_57_BUF>:
 100da6c:	00570080                                ..W.

0100da70 <CUSTOM_80_63_BUF>:
 100da70:	00630080                                ..c.

0100da74 <CUSTOM_80_64_BUF>:
 100da74:	00640080                                ..d.

0100da78 <CUSTOM_80_6F_BUF>:
 100da78:	006f0080                                ..o.

0100da7c <CUSTOM_80_7F_BUF>:
 100da7c:	007f0080                                ....

0100da80 <CUSTOM_80_8F_BUF>:
 100da80:	008f0080                                ....

0100da84 <CUSTOM_82_F3_BUF>:
 100da84:	00f30082                                ....

0100da88 <CUSTOM_83_55_BUF>:
 100da88:	00550083                                ..U.

0100da8c <CUSTOM_83_F1_BUF>:
 100da8c:	00f10083                                ....

0100da90 <CUSTOM_83_F7_BUF>:
 100da90:	00f70083                                ....

0100da94 <CUSTOM_84_E0_BUF>:
 100da94:	00e00084                                ....

0100da98 <CUSTOM_85_46_BUF>:
 100da98:	00460085                                ..F.

0100da9c <CUSTOM_86_02_BUF>:
 100da9c:	00020086                                ....

0100daa0 <CUSTOM_86_05_BUF>:
 100daa0:	00050086                                ....

0100daa4 <CUSTOM_86_6B_BUF>:
 100daa4:	006b0086                                ..k.

0100daa8 <CUSTOM_87_22_BUF>:
 100daa8:	00220087                                ..".

0100daac <CUSTOM_87_4E_BUF>:
 100daac:	004e0087                                ..N.

0100dab0 <CUSTOM_88_45_BUF>:
 100dab0:	00450088                                ..E.

0100dab4 <CUSTOM_95_6A_BUF>:
 100dab4:	006a0095                                ..j.

0100dab8 <CUSTOM_96_69_BUF>:
 100dab8:	00690096                                ..i.

0100dabc <CUSTOM_97_00_BUF>:
 100dabc:	00000097                                ....

0100dac0 <CUSTOM_A0_5F_BUF>:
 100dac0:	005f00a0                                .._.

0100dac4 <CUSTOM_A0_87_BUF>:
 100dac4:	008700a0                                ....

0100dac8 <CUSTOM_A4_00_BUF>:
 100dac8:	000000a4                                ....

0100dacc <CUSTOM_AA_03_BUF>:
 100dacc:	000300aa                                ....

0100dad0 <CUSTOM_AA_55_BUF>:
 100dad0:	005500aa                                ..U.

0100dad4 <CUSTOM_C4_00_BUF>:
 100dad4:	000000c4                                ....

0100dad8 <CUSTOM_E5_70_BUF>:
 100dad8:	007000e5                                ..p.

0100dadc <CUSTOM_E6_00_BUF>:
 100dadc:	000000e6                                ....

0100dae0 <CUSTOM_E7_0A_BUF>:
 100dae0:	000a00e7                                ....

0100dae4 <CUSTOM_EA_C7_BUF>:
 100dae4:	00c700ea                                ....

0100dae8 <CUSTOM_EA_C8_BUF>:
 100dae8:	00c800ea                                ....

0100daec <CUSTOM_EE_00_BUF>:
 100daec:	000000ee                                ....

0100daf0 <CUSTOM_DC_00_BUF>:
 100daf0:	000000dc                                ....

0100daf4 <CUSTOM_DE_D6_BUF>:
 100daf4:	00d600de                                ....

0100daf8 <CUSTOM_F4_00_BUF>:
 100daf8:	000000f4                                ....

0100dafc <CUSTOM_FE_01_BUF>:
 100dafc:	000100fe                                ....

0100db00 <CUSTOM_0000_B000_BUF>:
 100db00:	b0000000                                ....

0100db04 <CUSTOM_0000_FFFF_BUF>:
 100db04:	ffff0000                                ....

0100db08 <CUSTOM_055A_0000_BUF>:
 100db08:	0000055a                                Z...

0100db0c <CUSTOM_0057_0000_BUF>:
 100db0c:	00000057                                W...

0100db10 <CUSTOM_007B_1F84_BUF>:
 100db10:	1f84007b                                {...

0100db14 <CUSTOM_081F_0000_BUF>:
 100db14:	0000081f                                ....

0100db18 <CUSTOM_0119_1EE6_BUF>:
 100db18:	1ee60119                                ....

0100db1c <CUSTOM_011A_FEE5_BUF>:
 100db1c:	fee5011a                                ....

0100db20 <CUSTOM_011C_1EE3_BUF>:
 100db20:	1ee3011c                                ....

0100db24 <CUSTOM_013C_1EC3_BUF>:
 100db24:	1ec3013c                                <...

0100db28 <CUSTOM_0114_FEEB_BUF>:
 100db28:	feeb0114                                ....

0100db2c <CUSTOM_0200_0000_BUF>:
 100db2c:	00000200                                ....

0100db30 <CUSTOM_1463_0084_BUF>:
 100db30:	84006314                                .c..

0100db34 <CUSTOM_2002_4880_BUF>:
 100db34:	48802002                                . .H

0100db38 <CUSTOM_29C0_2600_BUF>:
 100db38:	260029c0                                .).&

0100db3c <CUSTOM_5AAA_162F_BUF>:
 100db3c:	162f5aaa                                .Z/.

0100db40 <CUSTOM_8000_FFFF_BUF>:
 100db40:	ffff8000                                ....

0100db44 <CUSTOM_87E1_F000_BUF>:
 100db44:	000f87e1                                ....

0100db48 <CUSTOM_2002_0090_BUF>:
 100db48:	00902002                                . ..

0100db4c <CUSTOM_434F_004E_BUF>:
 100db4c:	004e434f                                OCN.

0100db50 <CUSTOM_BFFF_FFFF_BUF>:
 100db50:	ffffbfff                                ....

0100db54 <CUSTOM_FFFD_0000_BUF>:
 100db54:	0000fffd                                ....

0100db58 <CUSTOM_FFFE_00A4_BUF>:
 100db58:	004afffe                                ..J.

0100db5c <CUSTOM_FFFE_00A5_BUF>:
 100db5c:	00a5fffe                                ....

0100db60 <CUSTOM_FFFE_006A_BUF>:
 100db60:	006afffe                                ..j.

0100db64 <CUSTOM_FFFD_0001_BUF>:
 100db64:	0001fffd                                ....

0100db68 <CUSTOM_FFFD_FFFF_BUF>:
 100db68:	fffffffd                                ....

0100db6c <CUSTOM_FFFF_FFFF_BUF>:
 100db6c:	ffffffff                                ....

0100db70 <HIGH_CUSTOM_2002_0080_BUF>:
 100db70:	00802002                                . ..

0100db74 <CUSTOM_2002_0280_BUF>:
 100db74:	02802002                                . ..

0100db78 <CUSTOM_2002_0480_BUF>:
 100db78:	04802002                                . ..

0100db7c <HIGH_CUSTOM_0000_1800_BUF>:
 100db7c:	18000000                                ....

0100db80 <HIGH_CUSTOM_3000_0000_BUF>:
 100db80:	00803000                                .0..

0100db84 <HIGH_CUSTOM_4000_0000_BUF>:
 100db84:	00004000                                .@..

0100db88 <HIGH_CUSTOM_8000_0000_BUF>:
 100db88:	00008000                                ....

0100db8c <HIGH_CUSTOM_8000_2800_BUF>:
 100db8c:	28008000                                ...(

0100db90 <HIGH_CUSTOM_8100_7E00_BUF>:
 100db90:	7e008100                                ...~

0100db94 <HIGH_CUSTOM_A000_0000_BUF>:
 100db94:	0000a000                                ....

0100db98 <HIGH_CUSTOM_B000_6000_BUF>:
 100db98:	6000b000                                ...`

0100db9c <HIGH_CUSTOM_B000_A000_BUF>:
 100db9c:	a000b000                                ....

0100dba0 <HIGH_CUSTOM_B000_F000_BUF>:
 100dba0:	f000b000                                ....

0100dba4 <HIGH_CUSTOM_C000_0000_BUF>:
 100dba4:	0000c000                                ....

0100dba8 <HIGH_CUSTOM_C000_0800_BUF>:
 100dba8:	0800c000                                ....

0100dbac <HIGH_CUSTOM_C000_6000_BUF>:
 100dbac:	6000c000                                ...`

0100dbb0 <HIGH_CUSTOM_FFFD_6000_BUF>:
 100dbb0:	6000fffd                                ...`

0100dbb4 <HIGH_CUSTOM_FFFD_E000_BUF>:
 100dbb4:	e000fffd                                ....

0100dbb8 <HIGH_CUSTOM_FFFD_8800_BUF>:
 100dbb8:	8800fffd                                ....

0100dbbc <CUSTOM_6BIT_02_BUF>:
 100dbbc:	60000000 00000000 05be01ef 0d8e01ef     ...`............
 100dbcc:	7148024e 00000000 94700000 00000001     N.Hq......p.....

0100dbdc <CUSTOM_C1D6_03_BUF>:
 100dbdc:	61000007 00000000 138800a0 1b5800a0     ...a..........X.
 100dbec:	7148024e 00000000 94700000 00000000     N.Hq......p.....

0100dbfc <DVB_PAN_7051_SAMSUN_05_BUF>:
 100dbfc:	fff00005 06860d48 01a001aa 050801aa     ....H...........
 100dc0c:	add401aa 00000000 94700000 00000000     ..........p.....

0100dc1c <FB739A_06_BUF>:
 100dc1c:	85000001 00000000 00000159 000100e6     ........Y.......
 100dc2c:	afc80000 0000ea60 94700000 00000000     ....`.....p.....

0100dc3c <GEMINI_C16_38_08_BUF>:
 100dc3c:	f1e1000c 09c401f4 000001f4 000101f4     ................
 100dc4c:	38a40000 00010000 7aa80003 00000001     ...8.......z....

0100dc5c <GEMINI_C10_32_08_BUF>:
 100dc5c:	a190000c 09c401f4 000001f4 000101f4     ................
 100dc6c:	58480000 00010000 7aa80003 00000001     ..HX.......z....

0100dc7c <GEMINI_C10_38_09_BUF>:
 100dc7c:	a190000c 086601fe 000001fe 000101fe     ......f.........
 100dc8c:	58480000 00010000 94700003 00000000     ..HX......p.....

0100dc9c <GEMINI_C10_32_10_BUF>:
 100dc9c:	a170000c 09f601fe 000001fe 000101fe     ..p.............
 100dcac:	58480000 00010000 7aa80003 00000000     ..HX.......z....

0100dcbc <IRT1250C5D6_12_BUF>:
 100dcbc:	50600002 0122000a 0050000a 00b4000a     ..`P.."...P.....
 100dccc:	f618000a 00000000 00000000 00000000     ................

0100dcdc <IRT1250C5D7_13_BUF>:
 100dcdc:	5070000a 017c0005 00500005 01180005     ..pP..|...P.....
 100dcec:	abe00005 00000000 00000000 00000000     ................

0100dcfc <KK_Y261_14_BUF>:
 100dcfc:	80800012 0b9a0bae 05be01ea 09a601ea     ................
 100dd0c:	4e2001ea 00000000 94700000 00000000     .. N......p.....

0100dd1c <LBNSAMSUNG_15_BUF>:
 100dd1c:	84800005 11761194 021c0226 06720226     ......v.&...&.r.
 100dd2c:	57a80208 00000000 84d00000 00000002     ...W............

0100dd3c <LC7461M_C13S_16_BUF>:
 100dd3c:	dd880002 11762328 021c0226 06720226     ....(#v.&...&.r.
 100dd4c:	00000230 00015b54 94700000 00000000     0...T[....p.....

0100dd5c <LC7461M_C13S_17_BUF>:
 100dd5c:	dd880002 11942328 021c0226 06720226     ....(#..&...&.r.
 100dd6c:	00000230 00005b54 94700000 00000000     0...T[....p.....

0100dd7c <LC7464M_PANASONIC_18_BUF>:
 100dd7c:	ff880003 06a40d20 019001a9 0514019f     .... ...........
 100dd8c:	ea6001a9 000036b0 94700000 00000000     ..`..6....p.....

0100dd9c <LG3004_33K_19_TOGGLE_ONE_BUF>:
 100dd9c:	11360011 00000000 15b800a5 20e400a5     ..6............ 
 100ddac:	7e0e00a5 00000000 80e80000 00000000     ...~............

0100ddbc <LG3004_33K_19_TOGGLE_TWO_BUF>:
 100ddbc:	20360010 00000000 15b800a5 20e400a5     ..6 ........... 
 100ddcc:	7e0e00a5 00000000 80e80000 00000000     ...~............

0100dddc <LG3004_33K_19_TOGGLE_TWO_Freq_0_BUF>:
 100dddc:	20360010 00000000 15b8001e 20e4001e     ..6 ........... 
 100ddec:	7e0e001e 00000000 00000000 00000000     ...~............

0100ddfc <LG3004_33K_19_TOGGLE_ZERO_BUF>:
 100ddfc:	20360011 00000000 15b800a5 20e400a5     ..6 ........... 
 100de0c:	7e0e00a5 00000000 80e80000 00000000     ...~............

0100de1c <M3004_38K_20_BUF>:
 100de1c:	11360011 00000000 13060082 1cfc0082     ..6.............
 100de2c:	b1f80082 00000000 94700000 00000000     ..........p.....

0100de3c <M3004_38K_20_toggle_zero_BUF>:
 100de3c:	20360011 00000000 13060082 1cfc0082     ..6 ............
 100de4c:	b1f80082 00000000 94700000 00000000     ..........p.....

0100de5c <M3004_38K_21_400_BUF>:
 100de5c:	11360011 00000000 13060190 1cfc0190     ..6.............
 100de6c:	b1f80190 00000000 94700000 00000000     ..........p.....

0100de7c <M50119P_23_BUF>:
 100de7c:	30700005 00000000 01d601f4 05be01f4     ..p0............
 100de8c:	34bc01f4 00000000 94700000 00000003     ...4......p.....

0100de9c <M50462_24_BUF>:
 100de9c:	80800005 00000000 029e0154 06860154     ........T...T...
 100deac:	90880154 00000000 94700000 00000003     T.........p.....

0100debc <M50560_25_BUF>:
 100debc:	80800005 104a20d0 01e001f4 05dc01f4     ..... J.........
 100decc:	00000212 00005faa 94700000 00000001     ....._....p.....

0100dedc <MITC8D8_28_BUF>:
 100dedc:	80800005 00000000 0398013b 087a013b     ........;...;.z.
 100deec:	0000013b 000069f0 84d00000 00000002     ;....i..........

0100defc <MN6014C6D6_29_BUF>:
 100defc:	66660004 0d020d20 032a0348 09c40348     ..ff ...H.*.H...
 100df0c:	00000349 00007c1f 94700000 00000001     I....|....p.....

0100df1c <MN6014C5D638_30_BUF>:
 100df1c:	56560004 0d2a0d48 035c0366 0a0a0366     ..VVH.*.f.\.f...
 100df2c:	00000366 00008408 94700000 00000000     f.........p.....

0100df3c <MN6014C5D656_31_BUF>:
 100df3c:	56560004 0d260d26 03490349 09db0349     ..VV&.&.I.I.I...
 100df4c:	00000349 00008197 dac00000 00000000     I...............

0100df5c <N3201_32_BUF>:
 100df5c:	88880002 11122198 046a022b 0b68022b     .....!..+.j.+.h.
 100df6c:	0000022b 0000ea60 94700000 00000001     +...`.....p.....

0100df7c <PANPROJECTOR_37_BUF>:
 100df7c:	ff880003 069a0d20 018b01a9 050a01a5     .... ...........
 100df8c:	ea6001a9 000036b0 94700000 00000002     ..`..6....p.....

0100df9c <PHILIPS_20_38_BUF>:
 100df9c:	4188000e 03650a6e 000001bc 000101bc     ...An.e.........
 100dfac:	3aca0000 0000ea60 8ca00000 00000000     ...:`...........

0100dfbc <PHILIPS_RC_MM_39_BUF>:
 100dfbc:	8440000d 01040204 01bc00a6 030a0263     ..@.........c...
 100dfcc:	7f5800a6 0000ea60 8ca00000 00000000     ..X.`...........

0100dfdc <PILOT370_40_BUF>:
 100dfdc:	7160000c 09c401fe 000001fe 000101fe     ..`q............
 100dfec:	5fb40000 00010000 7aa80003 00000000     ..._.......z....

0100dffc <PIONEER_41_BUF>:
 100dffc:	88880002 10ae2166 01f40212 06220212     ....f!........".
 100e00c:	00000212 00009088 9c400000 00000001     ..........@.....

0100e01c <RCA_56_42_BUF>:
 100e01c:	48480013 0f820fa0 03ca01f4 07b201f4     ..HH............
 100e02c:	24fe01f4 00000000 dde00000 00000002     ...$............

0100e03c <RCA_38_43_BUF>:
 100e03c:	48480013 0f820fa0 03ca01f4 07b201f4     ..HH............
 100e04c:	24fe01f4 00000000 94700000 00000000     ...$......p.....

0100e05c <RCA_56_44_BUF>:
 100e05c:	48480013 0fa04e20 03e801f4 07d001f4     ..HH N..........
 100e06c:	1f4001f4 00000000 dde00000 00000000     ..@.............

0100e07c <SAA3010_38_45_BUF>:
 100e07c:	1156000f 00000000 0001033e 0000033e     ..V.....>...>...
 100e08c:	ea600000 00005faa 94700000 00000000     ..`.._....p.....

0100e09c <SAA3010_36_46_BUF>:
 100e09c:	1156000f 00000000 00010366 00000378     ..V.....f...x...
 100e0ac:	00000000 00005cc1 8ca00000 00000001     .....\..........

0100e0bc <SAMSUNG_38_49_BUF>:
 100e0bc:	888c0002 11941194 021c0230 067c0230     ........0...0.|.
 100e0cc:	00000230 0000a5a0 94700000 00000000     0.........p.....

0100e0dc <LX0773CE_50_BUF>:
 100e0dc:	58580004 00000000 02f400ff 070e00ff     ..XX............
 100e0ec:	b46e00ff 00000000 94700000 00000000     ..n.......p.....

0100e0fc <SINGH2150_51_BUF>:
 100e0fc:	f188000c 09c401ea 000001ea 000101ea     ................
 100e10c:	4e200000 00010000 94700004 00000000     .. N......p.....

0100e11c <TC901_54_BUF>:
 100e11c:	88880002 11761194 021c0226 067c0226     ......v.&...&.|.
 100e12c:	0000021c 0001b1bc 94700005 00000000     ..........p.....

0100e13c <TC901_55_BUF>:
 100e13c:	88880002 11761194 021c0226 067c0226     ......v.&...&.|.
 100e14c:	0000021c 0000b1bc 94700000 00000000     ..........p.....

0100e15c <RCT311_56_BUF>:
 100e15c:	41070011 00000000 07b201f4 117601f4     ...A..........v.
 100e16c:	000001f4 000086c4 80e80000 00000001     ................

0100e17c <UPD6121G2_64_BUF>:
 100e17c:	88880002 11762328 021c022b 067c022b     ....(#v.+...+.|.
 100e18c:	00000230 00019c40 94700002 00000000     0...@.....p.....

0100e19c <UPD6121G2_40K_65_BUF>:
 100e19c:	88880002 11942328 01f6020f 061e020f     ....(#..........
 100e1ac:	00000230 00019c40 9c400002 00000000     0...@.....@.....

0100e1bc <UPD6121G_LIAN_66_BUF>:
 100e1bc:	88880002 11762328 021c022b 067c022b     ....(#v.+...+.|.
 100e1cc:	00000230 00009c40 94700000 00000000     0...@.....p.....

0100e1dc <UPD6121G_001_67_BUF>:
 100e1dc:	88880008 11762328 021c022b 067c022b     ....(#v.+...+.|.
 100e1ec:	00000230 00019c40 94700002 00000000     0...@.....p.....

0100e1fc <UPD6121G2_D8_68_BUF>:
 100e1fc:	88880002 11762328 021c022b 067c022b     ....(#v.+...+.|.
 100e20c:	00000230 00019c40 94700002 00000000     0...@.....p.....

0100e21c <UPD6124_D7C5_69_BUF>:
 100e21c:	75000007 023a0960 023a0258 023a04b0     ...u`.:.X.:...:.
 100e22c:	00000000 00006978 9c400000 00000002     ....xi....@.....

0100e23c <UPD6124_D7C8_70_BUF>:
 100e23c:	78000007 02580960 02580258 025804b0     ...x`.X.X.X...X.
 100e24c:	00000000 00006978 9c400000 00000002     ....xi....@.....

0100e25c <UPD6124_D7C13_71_BUF>:
 100e25c:	7d000007 023a0960 023a0258 023a04b0     ...}`.:.X.:...:.
 100e26c:	00000000 00003a98 9c400000 00000002     .....:....@.....

0100e27c <VICTOR_C8D8_72_BUF>:
 100e27c:	80800005 104a20e4 01ea0208 05fa0208     ..... J.........
 100e28c:	0000020e 00005442 94700000 00000001     ....BT....p.....

0100e29c <XY_2106_75_BUF>:
 100e29c:	80880002 0fd22134 02180218 05dc0218     ....4!..........
 100e2ac:	00000218 0000639c 9c400000 00000000     .....c....@.....

0100e2bc <ZENITH_S10_77_BUF>:
 100e2bc:	80200014 02260226 02260172 02260226     .. .&.&.r.&.&.&.
 100e2cc:	00000230 00000226 94700000 00000000     0...&.....p.....

0100e2dc <ZENITH_S10_77_Zero_BUF>:
 100e2dc:	80200014 02260226 02260172 02260226     .. .&.&.r.&.&.&.
 100e2ec:	00000230 00000226 94700000 00000000     0...&.....p.....

0100e2fc <ZENITH_D5_78_BUF>:
 100e2fc:	00500015 01f401f4 01f401f4 13ec1004     ..P.............
 100e30c:	ea600000 0000ee48 9c400000 00000000     ..`.H.....@.....

0100e31c <ZENITH_D7_79_BUF>:
 100e31c:	00700015 01f401f4 01f401f4 13ec1004     ..p.............
 100e32c:	ea600000 0000ee48 9c400000 00000000     ..`.H.....@.....

0100e33c <ZENITHSIM_C2D8_82_BUF>:
 100e33c:	01180011 0e880014 13560014 1d1a0014     ..........V.....
 100e34c:	c3b40014 00000000 00000000 00000000     ................

0100e35c <Unknow_C8D5_83_BUF>:
 100e35c:	85850013 02d000fd 02d000fd 00dc00fd     ................
 100e36c:	4e2000fd 00000000 94700000 00000001     .. N......p.....

0100e37c <UPD6121G_001_APPLE_90_BUF>:
 100e37c:	f8800005 11762328 0212022b 067c022b     ....(#v.+...+.|.
 100e38c:	00000230 00019c40 94700002 00000000     0...@.....p.....

0100e39c <Pioneer_91_BUF>:
 100e39c:	88880002 104a2134 01f40217 060e0217     ....4!J.........
 100e3ac:	00000217 000061a8 94700000 00000001     .....a....p.....

0100e3bc <STM708LB1_92_BUF>:
 100e3bc:	5061000a 177000c8 05dc00c8 0bb800c8     ..aP..p.........
 100e3cc:	0000012c 00007148 94700000 00000000     ,...Hq....p.....

0100e3dc <JX_9070_93_BUF>:
 100e3dc:	80f00002 11622328 0212022b 067c022b     ....(#b.+...+.|.
 100e3ec:	00000230 00006ef0 94700000 00000000     0....n....p.....

0100e3fc <GD_2000_94_BUF>:
 100e3fc:	84400006 11762328 09c401f4 119401f4     ..@.(#v.........
 100e40c:	00000230 00017530 94700002 00000001     0...0u....p.....

0100e41c <XY_JAECS_95_BUF>:
 100e41c:	80800009 0a000a8c 04b004b0 0b5404b0     ..............T.
 100e42c:	000004b0 0000e1a0 94700000 00000000     ..........p.....

0100e43c <DVB_40BIT_100_BUF>:
 100e43c:	f8f00005 07080e10 02300230 04600230     ........0.0.0.`.
 100e44c:	00000230 0001d228 94700006 00000000     0...(.....p.....

0100e45c <CSWTCH.0>:
 100e45c:	0100d834 0100d84c 0100d840 0100d858     4...L...@...X...
 100e46c:	0100d864 0100d828 0100d870              d...(...p...

0100e478 <CSWTCH.1>:
 100e478:	0100d87c 0100d880 0100d884 0100d888     |...............
 100e488:	0100d88c 0100d890 0100d894 0100d898     ................
 100e498:	0100d89c 0100d8a0 0100d8a4 0100d8a8     ................
 100e4a8:	0100d8ac 0100d8b0 0100d8b4 0100d8b8     ................
 100e4b8:	0100d8bc 0100d8c0 0100d8c4 0100d8c8     ................
 100e4c8:	0100d8cc 0100d8d0 0100d8d4 0100d8d8     ................
 100e4d8:	0100d8dc 0100d8e0 0100d8e4 0100d8f8     ................
 100e4e8:	0100d8e8 0100d8ec 0100d8f0 0100d8f4     ................
 100e4f8:	0100d8fc 0100d900 0100d904 0100d908     ................
 100e508:	0100d90c 0100d910 0100d914 0100d918     ................
 100e518:	0100d91c 0100d920 0100d924 0100d928     .... ...$...(...
 100e528:	0100d92c 0100d930 0100d934 0100d938     ,...0...4...8...
 100e538:	0100d93c 0100d940 0100d944 0100d948     <...@...D...H...
 100e548:	0100d94c 0100d950 0100d954 0100d958     L...P...T...X...
 100e558:	0100d95c 0100d960 0100d964 0100d96c     \...`...d...l...
 100e568:	0100d968 0100d970 0100d974 0100d978     h...p...t...x...
 100e578:	0100d97c 0100d980 0100d984 0100d988     |...............
 100e588:	0100d98c 0100d990 0100d994 0100d998     ................
 100e598:	0100d99c 0100d9a0 0100d9a4 0100d9a8     ................
 100e5a8:	0100d9ac 0100d9b0 0100d9b4 0100d9b8     ................
 100e5b8:	0100d9bc 0100d9c0 0100da08 0100d9c4     ................
 100e5c8:	0100d9c8 0100d9cc 0100d9d0 0100d9d4     ................
 100e5d8:	0100d9d8 0100d9dc 0100d9e0 0100d9e4     ................
 100e5e8:	0100d9e8 0100d9ec 0100d9f0 0100d9f4     ................
 100e5f8:	0100d9f8 0100d9fc 0100da00 0100da04     ................
 100e608:	0100da0c 0100da10 0100da14 0100da18     ................
 100e618:	0100da1c 0100da20 0100da24 0100da28     .... ...$...(...
 100e628:	0100da2c 0100da30 0100da34 0100da38     ,...0...4...8...
 100e638:	0100da3c 0100da40 0100da44 0100da48     <...@...D...H...
 100e648:	0100da4c 0100da50 0100da54 0100da58     L...P...T...X...
 100e658:	0100da5c 0100da60 0100da64 0100da68     \...`...d...h...
 100e668:	0100da6c 0100da70 0100da74 0100da78     l...p...t...x...
 100e678:	0100da7c 0100da80 0100da84 0100da88     |...............
 100e688:	0100da8c 0100da90 0100da94 0100da98     ................
 100e698:	0100da9c 0100daa0 0100daa4 0100daa8     ................
 100e6a8:	0100daac 0100dab0 0100dab4 0100dab8     ................
 100e6b8:	0100dabc 0100dac0 0100dac4 0100dac8     ................
 100e6c8:	0100dacc 0100dad0 0100dad4 0100dad8     ................
 100e6d8:	0100dadc 0100dae0 0100dae4 0100dae8     ................
 100e6e8:	0100daec 0100daf0 0100daf4 0100daf8     ................
 100e6f8:	0100dafc 0100db00 0100db04 0100db08     ................
 100e708:	0100db0c 0100db10 0100db14 0100db18     ................
 100e718:	0100db1c 0100db20 0100db24 0100db28     .... ...$...(...
 100e728:	0100db2c 0100db30 0100db70 0100db74     ,...0...p...t...
 100e738:	0100db78 0100db48 0100db34 0100db38     x...H...4...8...
 100e748:	0100db3c 0100db40 0100db44 0100db50     <...@...D...P...
 100e758:	0100db4c 0100db58 0100db5c 0100db60     L...X...\...`...
 100e768:	0100db54 0100db64 0100db68 0100db6c     T...d...h...l...
 100e778:	0100db7c 0100db80 0100db84 0100db88     |...............
 100e788:	0100db8c 0100db90 0100db94 0100db98     ................
 100e798:	0100db9c 0100dba0 0100dba4 0100dba8     ................
 100e7a8:	0100dbac 0100dbb0 0100dbb4 0100dbb8     ................

0100e7b8 <CSWTCH.2>:
 100e7b8:	0100dbbc 0100dbdc 0100dbfc 0100dc1c     ................
 100e7c8:	0100dc5c 0100dc3c 0100dc7c 0100dc9c     \...<...|.......
 100e7d8:	0100dcbc 0100dcdc 0100dcfc 0100dd1c     ................
 100e7e8:	0100dd3c 0100dd5c 0100dd7c 0100ddfc     <...\...|.......
 100e7f8:	0100dd9c 0100ddbc 0100dddc 0100de1c     ................
 100e808:	0100de3c 0100de5c 0100de7c 0100de9c     <...\...|.......
 100e818:	0100debc 0100dedc 0100defc 0100df1c     ................
 100e828:	0100df3c 0100df5c 0100df7c 0100df9c     <...\...|.......
 100e838:	0100dfbc 0100dfdc 0100dffc 0100e01c     ................
 100e848:	0100e03c 0100e05c 0100e07c 0100e09c     <...\...|.......
 100e858:	0100e0bc 0100e0dc 0100e0fc 0100e11c     ................
 100e868:	0100e13c 0100e15c 0100e17c 0100e19c     <...\...|.......
 100e878:	0100e1bc 0100e1dc 0100e1fc 0100e21c     ................
 100e888:	0100e23c 0100e25c 0100e27c 0100e29c     <...\...|.......
 100e898:	0100e2bc 0100e2dc 0100e2fc 0100e31c     ................
 100e8a8:	0100e33c 0100e35c 0100e37c 0100e39c     <...\...|.......
 100e8b8:	0100e3bc 0100e3dc 0100e3fc 0100e41c     ................
 100e8c8:	0100e43c 454d4954 2054554f 00000a0d     <...TIMEOUT ....
 100e8d8:	43494f56 544e2045 49542046 2052454d     VOICE NTF TIMER 
 100e8e8:	20444441 4c494146 6425203a 000a0d20     ADD FAIL: %d ...
 100e8f8:	43494f56 49542045 554f454d 49542054     VOICE TIMEOUT TI
 100e908:	2052454d 20444441 4c494146 6425203a     MER ADD FAIL: %d
 100e918:	000a0d20 2063696d 736f6c63 0a0d2065      ...mic close ..
 100e928:	00000000 2063696d 6e65706f 000a0d20     ....mic open ...

0100e938 <sbc_enc_as16Offset8>:
 100e938:	0000fffe 00000000 00000000 00010000     ................
 100e948:	0000fffd 00000000 00000000 00020001     ................
 100e958:	0000fffc 00000000 00000000 00020001     ................
 100e968:	0000fffc 00000000 00000000 00020001     ................
 100e978:	73756f6d 706c5f65 6e695f6d 6f6d5f74     mouse_lpm_int_mo
 100e988:	0d206564 0000000a 6f727967 20642520     de .....gyro %d 
 100e998:	25206425 63612064 64252063 20642520     %d %d acc %d %d 
 100e9a8:	0d206425 0000000a 20434949 43454843     %d .....IIC CHEC
 100e9b8:	4f4d204b 20455355 4c494146 000a0d20     K MOUSE FAIL ...
 100e9c8:	20696863 6f206469 64253a6b 000a0d20     chi id ok:%d ...
 100e9d8:	73756f6d 6e692065 64207469 20656e6f     mouse init done 
 100e9e8:	00000a0d 64616552 696d5120 38353638     ....Read Qmi8658
 100e9f8:	69686320 64692070 69616620 30203a6c      chip id fail: 0
 100ea08:	20782578 00000a0d 53554f4d 55542045     x%x ....MOUSE TU
 100ea18:	4f204e52 0d204646 0000000a 53554f4d     RN OFF .....MOUS
 100ea28:	55542045 4f204e52 0a0d204e 00000000     E TURN ON ......
 100ea38:	6f6d6e75 676e6976 0d2e2e2e 0000000a     unmoving........
 100ea48:	3f000000 3fc00000 3f800000 3c03126f     ...?...?...?o..<
 100ea58:	41200000 3b83126f 42653333 c0000000     .. Ao..;33eB....

0100ea68 <KeyBuf>:
	...
 100ea70:	00220001 00010011 00120022 00220001     ..".....".....".
 100ea80:	00010013 00140022 00220001 00010015     ....".....".....
 100ea90:	00160022 00220001 00010017 00180022     "....."....."...
 100eaa0:	00220001 00010019 004c0022 00220001     ..".....".L...".
 100eab0:	00010010 00450022 00220001 00010002     ....".E...".....
 100eac0:	00000022 00220001 00010009 00030022     "....."....."...
 100ead0:	00220001 00010001 008b0022 00220001     ..".....".....".
 100eae0:	0001007c 00400022 00220001 0001000b     |...".@...".....
 100eaf0:	00070022 00220001 00010006 00440022     ".....".....".D.
 100eb00:	00220001 00010041 00280022 00220001     ..".A...".(...".
 100eb10:	00010043 00720022 00220001 00010071     C...".r...".q...
 100eb20:	00630022 00220001 00010061 00560022     ".c...".a...".V.
 100eb30:	00220001 0001005c 00310022 00220001     ..".\...".1...".
 100eb40:	00010081 00050022 00220001 0001000c     ....".....".....
 100eb50:	00000022                                "...

0100eb54 <IRKeyBuf>:
 100eb54:	12110800 16151413 4c191817 0002de10     ...........L....
 100eb64:	de010309 070b407c 28414406 63717243     ....|@...DA(Crqc
 100eb74:	315c5661 00dede81                       aV\1....

0100eb7c <cmd_test>:
 100eb7c:	72617473 61662074 726f7463 65742079     start factory te
 100eb8c:	00007473                                st..

0100eb90 <cmd_mic_close>:
 100eb90:	2063696d 736f6c63 00000065 74636166     mic close...fact
 100eba0:	2079726f 20747461 646e6573 255b2020     ory att send  [%
 100ebb0:	20205d64 00000a0d                       d]  ....

0100ebb8 <adv_data_buf>:
 100ebb8:	17050102 5300c4ff 31204443 2c312e39     .......SCD 19.1,
 100ebc8:	33204142 65772c35 00534f62              BA 35,webOS.

0100ebd4 <scan_rsp_data_buf>:
 100ebd4:	474c0909 524d2045 00003232              ..LGE MR22..

0100ebe0 <head_freq_buf>:
 100ebe0:	0a0a0a0a 0a0a0a0a 0a0a0a0a 0a0a0a0a     ................
 100ebf0:	0a0a0a0a 0a0a0a0a 0a0a0a0a 0a0a0a0a     ................
 100ec00:	0a0a0a0a 0a0a0a0a 0a0a0a0a 0a0a0a0a     ................
 100ec10:	0a0a0a0a 0a0a0a0a 0a14140a 0a0a0a0a     ................
 100ec20:	0a0a0a0a 0a0a0a0a 140a0a0a 14141414     ................
 100ec30:	0a0a0a1e 0a0a0a0a 0a0a0a0a 0a0a0a0a     ................
 100ec40:	0a0a0a0a 0a0a0a0a 0a0a0a0a 0a0a0a0a     ................
 100ec50:	1414140a 14141414 0a32281e 0a0a0a0a     .........(2.....
 100ec60:	0a0a0a0a 0a0a0a0a 0a0a0a0a 0a0a0a0a     ................
 100ec70:	0a0a0a0a 0a0a0a0a 14141414 1e141414     ................
 100ec80:	0a0a2828 0a0a0a0a 0a0a0a0a 0a0a0a0a     ((..............
 100ec90:	0a0a0a0a 140a0a0a 14141414 281e1414     ...............(
 100eca0:	0a0a0a0a 0a0a0a0a 0a0a0a0a 0a0a0a0a     ................
 100ecb0:	0a0a0a0a 0a0a0a0a 0a0a0a0a 1414140a     ................
 100ecc0:	14141414 1e141414 0a1e1e1e 0a0a0a0a     ................
 100ecd0:	0a0a0a0a 0a0a0a0a 0a0a0a0a 0a0a0a0a     ................
 100ece0:	140a0a0a 14141414 1e1e1414 0a0a2828     ............((..
 100ecf0:	0a0a0a0a 0a0a0a0a 32141414 0a0a0a0a     ...........2....
 100ed00:	0a0a0a0a 0a0a0a14 0a0a140a 0000000a     ................

0100ed10 <head_value_buf>:
 100ed10:	acaaa8a6 b4b2b0ae bcbab8b6 c4c2c0be     ................
 100ed20:	0000c8c6 72636573 656b7465 4e535f79     ....secretkey_SN
 100ed30:	7825203a 000a0d20                       : %x ...

0100ed38 <msbc_flag_buf>:
 100ed38:	000008c8                                ....

0100ed3c <msbc_flag_buf1>:
 100ed3c:	000038f8 73697861 6c616320 61726269     .8..axis calibra
 100ed4c:	6e6f6974 0964253a 25096425 00000a64     tion:%d.%d.%d...
 100ed5c:	7473726b 00000a0d 3a31656b 0a0d6425     krst....ke1:%d..
 100ed6c:	00000000 72617473 6f762074 0d656369     ....start voice.
 100ed7c:	0000000a 3230766b 000a0d31 3179656b     ....kv021...key1
 100ed8c:	00000a0d 72617473 78612074 2e2e7369     ....start axis..
 100ed9c:	6425202e 00000a0d 72617473 78612074     . %d....start ax
 100edac:	2e2e7369 000a0d2e 454d4f48 43414220     is......HOME BAC
 100edbc:	4944204b 4e4f4353 00000a0d 6e79656b     K DISCON....keyn
 100edcc:	255b6d75 0a0d5d64 00000000 72696170     um[%d]......pair
 100eddc:	72692065 00000a0d 696c6e6f 6b20656e     e ir....online k
 100edec:	63207965 6f206b68 64253a6b 00000a0d     ey chk ok:%d....
 100edfc:	4e59454b 5b204d55 205d6425 5d64255b     KEYNUM [%d] [%d]
 100ee0c:	64255b20 255b205d 5b205d64 205d6425      [%d] [%d] [%d] 
 100ee1c:	5d64255b 64255b20 000a0d5d 203a7325     [%d] [%d]...%s: 
 100ee2c:	455f5442 4c5f5456 544c5f45 4f4c5f4b     BT_EVT_LE_LTK_LO
 100ee3c:	0d205453 0000000a 735f7369 7065656c     ST .....is_sleep
 100ee4c:	20642520 00000a0d 44414552 4e414820      %d ....READ HAN
 100ee5c:	3a454c44 20642520 00000a0d              DLE: %d ....

0100ee68 <handle_44_6d_rsp_buf>:
 100ee68:	0000006d                                m...

0100ee6c <handle_44_6c_buf>:
 100ee6c:	0000016c                                l...

0100ee70 <handle_44_6c_rsp_buf>:
 100ee70:	0000006c                                l...

0100ee74 <handle_44_kv11_rsp_buf>:
 100ee74:	02611512 23342802 ffffffff ffffffff     ..a..(4#........
 100ee84:	000000ff                                ....

0100ee88 <handle_44_kv13_rsp_buf>:
 100ee88:	02611514 01802240 11600340              ..a.@"..@.`.

0100ee94 <handle_44_kv19_rsp_buf>:
 100ee94:	ff233419 ffffffff ffffffff              .4#.........

0100eea0 <unknow_1byte_17_rsp>:
 100eea0:	00960117 00050104 e7e1fafb 3c23d70a     ..............#<
 100eeb0:	3ca3d70a 289ccccd c29ccccd 00000000     ...<...(........
 100eec0:	429ccccd 289ccccd 00000000 00000000     ...B...(........
 100eed0:	00000000 429ccccd 80000000 80000000     .......B........
 100eee0:	80000000 80000000 80000000 80000000     ................
 100eef0:	80000000 80000000 80000000 41102de0     .............-.A
 100ef00:	41102de0 41102de0 bf800000 208ba16f     .-.A.-.A....o.. 
 100ef10:	ba8ba16f 00000000 3a8ba16f 208ba16f     o.......o..:o.. 
	...
 100ef2c:	3a8ba16f 80000000 80000000 00000000     o..:............

0100ef3c <unknow_1byte_17_2_rsp>:
 100ef3c:	006e0017 00008000 00000000 00000000     ..n.............
	...
 100ef70:	a16f0000 00003a8b 00000000 a16f0000     ..o..:........o.
 100ef80:	00003a8b a16f3f80 1c0a3a8b b8c24001     .:...?o..:...@..
 100ef90:	c45d3eb2 c45d4027 c45d4027 48004027     .>].'@].'@].'@.H
 100efa0:	4364c146 58a93dc4 bae439d1 ba8babac     F.dC.=.X.9......
 100efb0:	00000000 3a8ba16f 208ba16f 00000000     ....o..:o.. ....
	...
 100efc8:	3a8ba16f 80000000 80000000 00000000     o..:............
 100efd8:	54495257 41482045 454c444e 6425203a     WRITE HANDLE: %d
 100efe8:	454c2020 25203a4e 000a0d64 3020766b       LEN: %d...kv 0
 100eff8:	000a0d33 3020766b 000a0d34 3120766b     3...kv 04...kv 1
 100f008:	64252031 00000a0d 3120766b 64252037     1 %d....kv 17 %d
 100f018:	00000a0d 20545441 54495257 41442045     ....ATT WRITE DA
 100f028:	45204154 524f5252 4148202c 454c444e     TA ERROR, HANDLE
 100f038:	6425203a 5257202c 20455449 3a4e454c     : %d, WRITE LEN:
 100f048:	20642520 00000a0d 56414c53 414c2045      %d ....SLAVE LA
 100f058:	434e4554 203a2059 0d206425 0000000a     TENCY : %d .....
 100f068:	52434e45 20545059 454e4f44 000a0d20     ENCRYPT DONE ...
 100f078:	52434e45 20545059 72617473 78612074     ENCRYPT start ax
 100f088:	2e2e7369 0a0d202e 00000000 52494150     is... ......PAIR
 100f098:	49414620 5220214c 4f534145 203a204e      FAIL! REASON : 
 100f0a8:	0d207825 0000000a 52494150 4e4f4420     %x .....PAIR DON
 100f0b8:	0a0d2045 00000000 4420454c 4f435349     E ......LE DISCO
 100f0c8:	43454e4e 21444554 41455220 204e4f53     NNECTED! REASON 
 100f0d8:	7825203a 000a0d20 6e6e6f63 65746365     : %x ...connecte
 100f0e8:	0d202164 0000000a 49564544 50204543     d! .....DEVICE P
 100f0f8:	5245574f 204e4f20 00000a0d 72636553     OWER ON ....Secr
 100f108:	654b7465 68435f79 206b6365 6c696166     etKey_Check fail
 100f118:	000a0d20 20505041 54494e49 4e4f4420      ...APP INIT DON
 100f128:	0a0d2045 00000000 454b4157 20505520     E ......WAKE UP 
 100f138:	00000a0d 3e99999a 42340000 3ee66666     .......>..4Bff.>
 100f148:	40600000 411ce80a 40900000              ..`@...A...@

0100f154 <PRIMARY_SERVICE>:
 100f154:	00002800                                .(..

0100f158 <GATT_INCLUDE>:
 100f158:	00002802                                .(..

0100f15c <GATT_CHARACTERISTIC>:
 100f15c:	00002803                                .(..

0100f160 <SERVICE_CHANGED>:
 100f160:	00002a05                                .*..

0100f164 <READ_PREMITTED_ONLY>:
 100f164:	00000002                                ....

0100f168 <WRITE_PREMITTED_ONLY>:
 100f168:	00000008                                ....

0100f16c <WRITE_WITHOUT_RESPONSE_PREMITTED_ONLY>:
 100f16c:	00000004                                ....

0100f170 <NOTIFY_PREMITTED_ONLY>:
 100f170:	00000010                                ....

0100f174 <READ_NOTIFY_PREMITTED>:
 100f174:	00000012                                ....

0100f178 <WRITE_WITHOUT_RESPONSE_NOTIFY_PREMITTED>:
 100f178:	00000014                                ....

0100f17c <READ_WRITE_NOTIFY_PREMITTED>:
 100f17c:	0000001a                                ....

0100f180 <READ_WRITE_WITHOUT_RESPONSE_PREMITTED_ONLY>:
 100f180:	00000006                                ....

0100f184 <READ_WRITE_WRITE_WITHOUT_RESPONSE_PREMITTED_ONLY>:
 100f184:	0000000e                                ....

0100f188 <PRO_INDICATE_PREMITTED>:
 100f188:	00000020                                 ...

0100f18c <CHARACTERTIC_CONFIGURATION>:
 100f18c:	00002902                                .)..

0100f190 <EXTERNAL_REPORT>:
 100f190:	00002907                                .)..

0100f194 <REPORT_REFERENCE>:
 100f194:	00002908                                .)..

0100f198 <CHARACTERISTIC_USER_DESC>:
 100f198:	00002901                                .)..

0100f19c <SERVICE_GENERIC_ATT>:
 100f19c:	00001801                                ....

0100f1a0 <SERVICE_GENERIC_ACC>:
 100f1a0:	00001800                                ....

0100f1a4 <CHRCTR_DEVICE_NAME>:
 100f1a4:	00002a00                                .*..

0100f1a8 <device_name>:
 100f1a8:	2045474c 3232524d 00000000              LGE MR22....

0100f1b4 <CHRCTR_APPEARANCE>:
 100f1b4:	00002a01                                .*..

0100f1b8 <appearance_value>:
 100f1b8:	000003c0                                ....

0100f1bc <CHRCTR_PPCP>:
 100f1bc:	00002a04                                .*..

0100f1c0 <ppcp_value>:
 100f1c0:	00080008 012c0004                       ......,.

0100f1c8 <CHRCTR_CARN>:
 100f1c8:	00002aa6                                .*..

0100f1cc <carn_value>:
 100f1cc:	00000000                                ....

0100f1d0 <SERVICE_DEVICE_INFO>:
 100f1d0:	0000180a                                ....

0100f1d4 <CHRCTR_PNP_ID>:
 100f1d4:	00002a50                                P*..

0100f1d8 <pnp_id_value>:
 100f1d8:	12000f01 00000134                       ....4...

0100f1e0 <CHRCTR_MANUFACTURE_NAME>:
 100f1e0:	00002a29                                )*..

0100f1e4 <manufacture_name_value>:
 100f1e4:	6c616552 206b6574 00005442              Realtek BT..

0100f1f0 <CHRCTR_SOFTWARE>:
 100f1f0:	00002a28                                (*..

0100f1f4 <software_value>:
 100f1f4:	424b5452 6f536565 61777466 65526572     RTKBeeSoftwareRe
 100f204:	00000076                                v...

0100f208 <CHRCTR_HARDWARE>:
 100f208:	00002a27                                '*..

0100f20c <hardware_value>:
 100f20c:	424b5452 61486565 61776472 65526572     RTKBeeHardwareRe
 100f21c:	00000076                                v...

0100f220 <CHRCTR_FIRMWARE>:
 100f220:	00002a26                                &*..

0100f224 <firmware_value>:
 100f224:	424b5452 69466565 61776d72 65526572     RTKBeeFirmwareRe
 100f234:	00000076                                v...

0100f238 <CHRCTR_SERIAL_NUMBER>:
 100f238:	00002a25                                %*..

0100f23c <serial_number_value>:
 100f23c:	424b5452 65536565 6c616972 006d754e     RTKBeeSerialNum.

0100f24c <CHRCTR_MODEL_NUMBER>:
 100f24c:	00002a24                                $*..

0100f250 <model_number_value>:
 100f250:	65646f4d 624e206c 2e302072 00000039     Model Nbr 0.9...

0100f260 <CHRCTR_SYSTEM_ID>:
 100f260:	00002a23                                #*..

0100f264 <system_id_value>:
 100f264:	00020100 05040300                       ........

0100f26c <CHRCTR_IEEE>:
 100f26c:	00002a2a                                **..

0100f270 <system_ieee_value>:
 100f270:	424b5452 45496565 61444545 696c6174     RTKBeeIEEEDatali
 100f280:	00007473                                st..

0100f284 <SERVICE_BATTERY>:
 100f284:	0000180f                                ....

0100f288 <CHRCTR_BATTERY_LEVEL>:
 100f288:	00002a19                                .*..

0100f28c <CHRCTR_BATTERY_value>:
 100f28c:	00001919                                ....

0100f290 <SERVICE_SCAN_PARAM>:
 100f290:	00001813                                ....

0100f294 <CHRCTR_SCAN_INTERVAL_WINDOW>:
 100f294:	00002a4f                                O*..

0100f298 <CHRCTR_SCAN_REFRESH>:
 100f298:	00002a31                                1*..

0100f29c <scan_refresh_val>:
 100f29c:	00000000                                ....

0100f2a0 <scan_refresh_ccc>:
 100f2a0:	00000000                                ....

0100f2a4 <SERVICE_HIDS>:
 100f2a4:	00001812                                ....

0100f2a8 <CHRCTR_HID_CTRL_POINT>:
 100f2a8:	00002a4c                                L*..

0100f2ac <CHRCTR_HID_PROTOCOL_MODE>:
 100f2ac:	00002a4e                                N*..

0100f2b0 <hid_protocol_mode>:
 100f2b0:	00000069                                i...

0100f2b4 <CHRCTR_HID_INFO>:
 100f2b4:	00002a4a                                J*..

0100f2b8 <hid_info_value>:
 100f2b8:	01000000                                ....

0100f2bc <CHRCTR_REPORT_MAP>:
 100f2bc:	00002a4b                                K*..

0100f2c0 <report_map_value>:
 100f2c0:	01090c05 fd8501a1 08751e95 ff260015     ..........u...&.
 100f2d0:	c0008100 01090c05 f98501a1 08751e95     ..............u.
 100f2e0:	ff260015 95008100 150875c8 00ff2600     ..&......u...&..
 100f2f0:	05c000b1 a101090c 95fe8501 1508757c     ............|u..
 100f300:	00ff2600 00c00081                       .&......

0100f308 <CHRCTR_REPORT>:
 100f308:	00002a4d                                M*..

0100f30c <report1_rr>:
 100f30c:	000001f9                                ....

0100f310 <report2_rr>:
 100f310:	000003f9                                ....

0100f314 <report3_rr>:
 100f314:	000001fd                                ....

0100f318 <report4_rr>:
 100f318:	000001fe                                ....

0100f31c <report5_rr>:
 100f31c:	000002f9                                ....

0100f320 <Unknown_Service_D1FF>:
 100f320:	2e4da212 8e4814fe 3c17d293 0000d1ff     ..M...H....<....

0100f330 <CHRCTR_A001>:
 100f330:	0000a001                                ....

0100f334 <chrctr_a0_01_value>:
 100f334:	00000000                                ....

0100f338 <Unknown_Service_D0FF>:
 100f338:	2e4da212 8e4814fe 3c17d293 0000d0ff     ..M...H....<....

0100f348 <CHRCTR_FF_D1>:
 100f348:	0000ffd1                                ....

0100f34c <CHRCTR_FF_D2>:
 100f34c:	0000ffd2                                ....

0100f350 <CHRCTR_FF_D3>:
 100f350:	0000ffd3                                ....

0100f354 <CHRCTR_FF_D4>:
 100f354:	0000ffd4                                ....

0100f358 <CHRCTR_FF_D5>:
 100f358:	0000ffd5                                ....

0100f35c <CHRCTR_FF_D8>:
 100f35c:	0000ffd8                                ....

0100f360 <CHRCTR_FF_F1>:
 100f360:	0000fff1                                ....

0100f364 <CHRCTR_FF_F2>:
 100f364:	0000fff2                                ....

0100f368 <CHRCTR_FF_E0>:
 100f368:	0000ffe0                                ....

0100f36c <READ_WRITE_WITHOUT_RESPONSE_NOTIFY_PREMITTED>:
 100f36c:	00000016                                ....

0100f370 <OTA_SERVICE>:
 100f370:	0000fff0                                ....

0100f374 <CHRCTR_OTA_NOTIFY>:
 100f374:	0000fff4                                ....

0100f378 <CHRCTR_OTA_WRITE>:
 100f378:	0000fff5                                ....

0100f37c <NOTIFY_READ_WRITE_WITHOUT_RESPONSE_PREMITTED>:
 100f37c:	00000016                                ....

0100f380 <factory_primary_uuid>:
 100f380:	bd11163a a1fb220c 90374f23 d07c0000     :...."..#O7...|.

0100f390 <factory_characteristic_uuid>:
 100f390:	bd11163a a1fb220c 90374f23 d07c0001     :...."..#O7...|.

0100f3a0 <product_id_s>:
 100f3a0:	00303136                                610.

0100f3a4 <Att_List>:
 100f3a4:	00020001 0100f154 00000002 0100f19c     ....T...........
 100f3b4:	00020002 0100f15c 00000001 0100f188     ....\...........
 100f3c4:	00020003 0100f160 00000001 10010ca4     ....`...........
 100f3d4:	00020004 0100f18c 00000002 10010ca8     ................
 100f3e4:	00020005 0100f154 00000002 0100f1a0     ....T...........
 100f3f4:	00020006 0100f15c 00000001 0100f164     ....\.......d...
 100f404:	00020007 0100f1a4 00000008 0100f1a8     ................
 100f414:	00020008 0100f15c 00000001 0100f164     ....\.......d...
 100f424:	00020009 0100f1b4 00000002 0100f1b8     ................
 100f434:	0002000a 0100f15c 00000001 0100f164     ....\.......d...
 100f444:	0002000b 0100f1bc 00000008 0100f1c0     ................
 100f454:	0002000c 0100f15c 00000001 0100f164     ....\.......d...
 100f464:	0002000d 0100f1c8 00000001 0100f1cc     ................
 100f474:	0002000e 0100f154 00000002 0100f2a4     ....T...........
 100f484:	0002000f 0100f15c 00000001 0100f164     ....\.......d...
 100f494:	00020010 0100f2b4 00000004 0100f2b8     ................
 100f4a4:	00020011 0100f15c 00000001 0100f16c     ....\.......l...
 100f4b4:	00020012 0100f2a8 00000001 10010cb4     ................
 100f4c4:	00020013 0100f15c 00000001 0100f180     ....\...........
 100f4d4:	00020014 0100f2ac 00000001 0100f2b0     ................
 100f4e4:	00020015 0100f15c 00000001 0100f164     ....\.......d...
 100f4f4:	00020016 0100f2bc 00000047 0100f2c0     ........G.......
 100f504:	00020017 0100f190 00000002 0100f28c     ................
 100f514:	00020018 0100f15c 00000001 0100f174     ....\.......t...
 100f524:	00020019 0100f308 00000002 10010cc4     ................
 100f534:	0002001a 0100f18c 00000002 10010cb8     ................
 100f544:	0002001b 0100f194 00000002 0100f30c     ................
 100f554:	0002001c 0100f198 00000002 10010cc8     ................
 100f564:	0002001d 0100f15c 00000001 0100f184     ....\...........
 100f574:	0002001e 0100f308 00000002 10010cc4     ................
 100f584:	0002001f 0100f194 00000002 0100f310     ................
 100f594:	00020020 0100f198 00000002 10010ccc      ...............
 100f5a4:	00020021 0100f15c 00000001 0100f17c     !...\.......|...
 100f5b4:	00020022 0100f308 00000002 10010cc4     "...............
 100f5c4:	00020023 0100f18c 00000002 10010cbc     #...............
 100f5d4:	00020024 0100f194 00000002 0100f314     $...............
 100f5e4:	00020025 0100f198 00000002 10010cd0     %...............
 100f5f4:	00020026 0100f15c 00000001 0100f174     &...\.......t...
 100f604:	00020027 0100f308 00000002 10010cc4     '...............
 100f614:	00020028 0100f18c 00000002 10010cc0     (...............
 100f624:	00020029 0100f194 00000002 0100f318     )...............
 100f634:	0002002a 0100f198 00000002 10010cd4     *...............
 100f644:	0002002b 0100f15c 00000001 0100f184     +...\...........
 100f654:	0002002c 0100f308 00000002 10010cc4     ,...............
 100f664:	0002002d 0100f194 00000002 0100f31c     -...............
 100f674:	0002002e 0100f198 00000002 10010cd8     ................
 100f684:	0002002f 0100f154 00000002 0100f284     /...T...........
 100f694:	00020030 0100f15c 00000001 0100f174     0...\.......t...
 100f6a4:	00020031 0100f288 00000001 10010190     1...............
 100f6b4:	00020032 0100f18c 00000002 10010cac     2...............
 100f6c4:	00020033 0100f154 00000002 0100f1d0     3...T...........
 100f6d4:	00020034 0100f15c 00000001 0100f164     4...\.......d...
 100f6e4:	00020035 0100f1e0 0000000a 0100f1e4     5...............
 100f6f4:	00020036 0100f15c 00000001 0100f164     6...\.......d...
 100f704:	00020037 0100f24c 0000000a 0100f250     7...L.......P...
 100f714:	00020038 0100f15c 00000001 0100f164     8...\.......d...
 100f724:	00020039 0100f238 0000000f 0100f23c     9...8.......<...
 100f734:	0002003a 0100f15c 00000001 0100f164     :...\.......d...
 100f744:	0002003b 0100f208 00000011 0100f20c     ;...............
 100f754:	0002003c 0100f15c 00000001 0100f164     <...\.......d...
 100f764:	0002003d 0100f220 00000011 0100f224     =... .......$...
 100f774:	0002003e 0100f15c 00000001 0100f164     >...\.......d...
 100f784:	0002003f 0100f1f0 00000011 0100f1f4     ?...............
 100f794:	00020040 0100f15c 00000001 0100f164     @...\.......d...
 100f7a4:	00020041 0100f260 00000008 0100f264     A...`.......d...
 100f7b4:	00020042 0100f15c 00000001 0100f164     B...\.......d...
 100f7c4:	00020043 0100f26c 00000012 0100f270     C...l.......p...
 100f7d4:	00020044 0100f15c 00000001 0100f164     D...\.......d...
 100f7e4:	00020045 0100f1d4 00000007 0100f1d8     E...............
 100f7f4:	00020046 0100f154 00000002 0100f290     F...T...........
 100f804:	00020047 0100f15c 00000001 0100f16c     G...\.......l...
 100f814:	00020048 0100f294 00000002 10010cb0     H...............
 100f824:	00020049 0100f15c 00000001 0100f170     I...\.......p...
 100f834:	0002004a 0100f298 00000002 0100f29c     J...............
 100f844:	0002004b 0100f18c 00000002 0100f2a0     K...............
 100f854:	0002004c 0100f154 00000010 0100f320     L...T....... ...
 100f864:	0002004d 0100f15c 00000001 0100f178     M...\.......x...
 100f874:	0002004e 0100f330 00000001 0100f334     N...0.......4...
 100f884:	0002004f 0100f18c 00000002 10010cdc     O...............
 100f894:	00020050 0100f154 00000010 0100f338     P...T.......8...
 100f8a4:	00020051 0100f15c 00000001 0100f16c     Q...\.......l...
 100f8b4:	00020052 0100f348 00000002 10010d5c     R...H.......\...
 100f8c4:	00020053 0100f15c 00000001 0100f164     S...\.......d...
 100f8d4:	00020054 0100f34c 00000002 10010d60     T...L.......`...
 100f8e4:	00020055 0100f15c 00000001 0100f164     U...\.......d...
 100f8f4:	00020056 0100f350 00000002 10010d7c     V...P.......|...
 100f904:	00020057 0100f15c 00000001 0100f164     W...\.......d...
 100f914:	00020058 0100f354 00000002 10010d74     X...T.......t...
 100f924:	00020059 0100f15c 00000001 0100f164     Y...\.......d...
 100f934:	0002005a 0100f358 00000002 10010d78     Z...X.......x...
 100f944:	0002005b 0100f15c 00000001 0100f16c     [...\.......l...
 100f954:	0002005c 0100f35c 00000002 10010d70     \...\.......p...
 100f964:	0002005d 0100f15c 00000001 0100f164     ]...\.......d...
 100f974:	0002005e 0100f360 00000002 10010d84     ^...`...........
 100f984:	0002005f 0100f15c 00000001 0100f168     _...\.......h...
 100f994:	00020060 0100f364 00000002 10010d64     `...d.......d...
 100f9a4:	00020061 0100f15c 00000001 0100f164     a...\.......d...
 100f9b4:	00020062 0100f368 00000002 10010d6c     b...h.......l...
 100f9c4:	0002ffdc 0100f154 00000002 0100f370     ....T.......p...
 100f9d4:	0002ffdd 0100f15c 00000001 0100f36c     ....\.......l...
 100f9e4:	0002ffde 0100f374 00000000 00000000     ....t...........
 100f9f4:	0002ffdf 0100f18c 00000002 10010ce0     ................
 100fa04:	0002ffe0 0100f15c 00000001 0100f16c     ....\.......l...
 100fa14:	0002ffe1 0100f378 00000000 00000000     ....x...........
 100fa24:	0002fffa 0100f154 00000010 0100f380     ....T...........
 100fa34:	0002fffb 0100f15c 00000001 0100f37c     ....\.......|...
 100fa44:	0010fffc 0100f390 00000004 0100f3a0     ................

0100fa54 <s_crcInfoTab>:
 100fa54:	00000000 00000010 00001021 00000000     ........!.......
	...

0100fa6c <PublicKey_1228>:
 100fa6c:	32314448 4b503832 35307965 33323831     HD1228PKey051823

0100fa7c <PublicKey_3527>:
 100fa7c:	35334448 4b503732 35307965 33323831     HD3527PKey051823

0100fa8c <PublicKey_5815>:
 100fa8c:	38354448 4b503531 35307965 33323831     HD5815PKey051823
 100fa9c:	0100c740 0100c740 0100c758 0100c73a     @...@...X...:...
 100faac:	0100c73a 0100c550 0100c758 0100c73a     :...P...X...:...
 100fabc:	0100c550 0100c73a 0100c758 0100c738     P...:...X...8...
 100facc:	0100c738 0100c738 0100c932              8...8...2...

0100fad8 <__clz_tab>:
 100fad8:	02020100 03030303 04040404 04040404     ................
 100fae8:	05050505 05050505 05050505 05050505     ................
 100faf8:	06060606 06060606 06060606 06060606     ................
 100fb08:	06060606 06060606 06060606 06060606     ................
 100fb18:	07070707 07070707 07070707 07070707     ................
 100fb28:	07070707 07070707 07070707 07070707     ................
 100fb38:	07070707 07070707 07070707 07070707     ................
 100fb48:	07070707 07070707 07070707 07070707     ................
 100fb58:	08080808 08080808 08080808 08080808     ................
 100fb68:	08080808 08080808 08080808 08080808     ................
 100fb78:	08080808 08080808 08080808 08080808     ................
 100fb88:	08080808 08080808 08080808 08080808     ................
 100fb98:	08080808 08080808 08080808 08080808     ................
 100fba8:	08080808 08080808 08080808 08080808     ................
 100fbb8:	08080808 08080808 08080808 08080808     ................
 100fbc8:	08080808 08080808 08080808 08080808     ................
