
./output/out.elf:     file format elf32-littleriscv
./output/out.elf
architecture: riscv:rv32, flags 0x00000112:
EXEC_P, HAS_SYMS, D_PAGED
start address 0x01000000

Program Header:
    LOAD off    0x00001000 vaddr 0x01000000 paddr 0x01000000 align 2**12
         filesz 0x000047c4 memsz 0x000047c4 flags r-x
    LOAD off    0x00006000 vaddr 0x10010000 paddr 0x010047c4 align 2**12
         filesz 0x00000038 memsz 0x00003260 flags rw-

Sections:
Idx Name           Size      VMA       LMA       File off  Algn  Flags
  0 .text          00000680  01000000  01000000  00001000  2**6  CONTENTS, ALLOC, LOAD, READONLY, CODE
  1 .text1         000037c4  01001000  01001000  00002000  2**2  CONTENTS, ALLOC, LOAD, READONLY, CODE
  2 .debug         00012685  10010000  10010000  00006038  2**0  CONTENTS, READONLY, DEBUGGING
  3 .data          00000038  10010000  010047c4  00006000  2**2  CONTENTS, ALLOC, LOAD, DATA
  4 .bss           000000b7  10010038  010047fc  00006038  2**2  ALLOC
  5 .noretention0  00002260  10011000  010057c4  00006038  2**2  ALLOC
  6 .debug_abbrev  0000377b  00000000  00000000  000186bd  2**0  CONTENTS, READONLY, DEBUGGING
  7 .debug_aranges 00000a28  00000000  00000000  0001be38  2**3  CONTENTS, READONLY, DEBUGGING
  8 .debug_ranges  00000ff0  00000000  00000000  0001c860  2**0  CONTENTS, READONLY, DEBUGGING
  9 .debug_line    0000ccba  00000000  00000000  0001d850  2**0  CONTENTS, READONLY, DEBUGGING
 10 .debug_str     0000379d  00000000  00000000  0002a50a  2**0  CONTENTS, READONLY, DEBUGGING
 11 .comment       00000011  00000000  00000000  0002dca7  2**0  CONTENTS, READONLY
 12 .debug_frame   00001dc8  00000000  00000000  0002dcb8  2**2  CONTENTS, READONLY, DEBUGGING
 13 .debug_loc     00005b17  00000000  00000000  0002fa80  2**0  CONTENTS, READONLY, DEBUGGING
SYMBOL TABLE:
01000000 l    d  .text	00000000 .text
01001000 l    d  .text1	00000000 .text1
10010000 l    d  .debug	00000000 .debug
10010000 l    d  .data	00000000 .data
10010038 l    d  .bss	00000000 .bss
10011000 l    d  .noretention0	00000000 .noretention0
00000000 l    d  .debug_abbrev	00000000 .debug_abbrev
00000000 l    d  .debug_aranges	00000000 .debug_aranges
00000000 l    d  .debug_ranges	00000000 .debug_ranges
00000000 l    d  .debug_line	00000000 .debug_line
00000000 l    d  .debug_str	00000000 .debug_str
00000000 l    d  .comment	00000000 .comment
00000000 l    d  .debug_frame	00000000 .debug_frame
00000000 l    d  .debug_loc	00000000 .debug_loc
00000000 l    df *ABS*	00000000 output/obj/startup_rv32.o
0100007e l       .text	00000000 __EN_MIE
01000094 l       .text	00000000 __exit
01000210 l       .text	00000000 isr_table
010001d0 l       .text	00000000 .Interrupt
00000000 l    df *ABS*	00000000 main.c
10011000 l     O .noretention0	00002000 gHeapBuffer
10010000 l     O .data	00000034 IPCHandleCb
01001000 l     F .text1	0000005e bt_init
0100105e l     F .text1	0000000e chip_task_run
0100106c l     F .text1	00000036 chip_init
00000000 l    df *ABS*	00000000 yc_debug.c
10010038 l     O .bss	0000001c g_yc_debug_manager
00000000 l    df *ABS*	00000000 yc11xx.c
00000000 l    df *ABS*	00000000 malloc.c
10010054 l     O .bss	00000004 xFreeBytesRemaining
10010058 l     O .bss	00000004 xMinimumEverFreeBytesRemaining
1001005c l     O .bss	00000004 xNumberOfSuccessfulAllocations
10010060 l     O .bss	00000004 xNumberOfSuccessfulFrees
10010064 l     O .bss	00000008 xStart
1001006c l     O .bss	00000004 pxEnd
01001918 l     F .text1	0000004c prvInsertBlockIntoFreeList
010042e0 l     O .text1	0000000e __FUNCTION__.2818
00000000 l    df *ABS*	00000000 yc11xx_ipc.c
10013038 l     O .noretention0	000000fe ipcReadBuff
10013138 l     O .noretention0	00000028 ipcSendBuff
10010070 l     O .bss	00000004 ipc_handle_cb_array
01001aae l     F .text1	00000162 ipcRx
01001c10 l     F .text1	00000162 ipcTx
01004330 l     O .text1	0000000d __FUNCTION__.2884
01004340 l     O .text1	00000013 __FUNCTION__.2899
00000000 l    df *ABS*	00000000 yc11xx_iwdg.c
0100437c l     O .text1	0000000d __FUNCTION__.2182
00000000 l    df *ABS*	00000000 yc11xx_qspi0.c
010023a8 l     F .text1	00000054 qspi0_dma_start
010023fc l     F .text1	0000001e qspi0_dma_wait
0100241a l     F .text1	0000003c qspi0_write
01002456 l     F .text1	00000038 qspi0_read_write
0100248e l     F .text1	00000016 qspi0_flash_cmd
010024a4 l     F .text1	0000001c qspi0_flash_readstatus1
010024c0 l     F .text1	0000001e qspi0_flash_readstatus2
010024de l     F .text1	00000034 qspi0_flash_waitfinish
01002512 l     F .text1	00000032 qspi0_flash_writestatus
01002544 l     F .text1	0000000c qspi0_flash_writeenable
01002550 l     F .text1	000000a2 _qspi0_flash_write
010025f2 l     F .text1	00000046 _qspi0_flash_erase
00000000 l    df *ABS*	00000000 yc11xx_systick.c
10010074 l     O .bss	00000004 g_systickIrqCallback
00000000 l    df *ABS*	00000000 yc11xx_lpm.c
00000000 l    df *ABS*	00000000 yc11xx_dev_bt_aap.c
0100438c l     O .text1	00000012 aap_rsp
010043a0 l     O .text1	00000096 AAP_manufac1
01004438 l     O .text1	00000008 AAP_manufac2
01004440 l     O .text1	0000002f AAP_manufac3
01004470 l     O .text1	00000016 AAP_manufac4
01004488 l     O .text1	0000000c AAP_AcpAnc1
010044a4 l     O .text1	000000bc AAP_AncRst3
01004560 l     O .text1	0000000d AAP_StopAnc4
00000000 l    df *ABS*	00000000 yc11xx_dev_bt_data_trans.c
00000000 l    df *ABS*	00000000 yc11xx_dev_qspi.c
00000000 l    df *ABS*	00000000 yc_dev_bt.c
1001007c l     O .bss	00000002 gBLEState
00000000 l    df *ABS*	00000000 hci_dtm_test.c
00000000 l    df *ABS*	00000000 att.c
01003692 l     F .text1	00000026 ATT_SendErrorRsp
010036b8 l     F .text1	0000001e ATT_WriteCmd
010036d6 l     F .text1	00000044 ATT_ExecuteWriteReq
0100371a l     F .text1	0000009c ATT_PrepareWriteReq
010037b6 l     F .text1	00000046 ATT_WriteReq
010037fc l     F .text1	0000017c ATT_ReadReq_ByGroupType
01003978 l     F .text1	00000054 ATT_ReadBlobReq
010039cc l     F .text1	00000036 ATT_ReadReq
01003a02 l     F .text1	00000234 ATT_ReadReq_ByType
01003c36 l     F .text1	000000b0 ATT_Find_ByType_Value
01003ce6 l     F .text1	000000e8 ATT_FindInformationReq
01003dce l     F .text1	0000004c ATT_UpdateMtu
01003e1a l     F .text1	0000005a ATT_ExchangeMtuReq
00000000 l    df *ABS*	00000000 remote_control.c
00000000 l    df *ABS*	00000000 att_list.c
00000000 l    df *ABS*	00000000 memcmp.c
00000000 l    df *ABS*	00000000 memcpy.c
01000200  w    F .text	00000004 GPIO_IRQHandler
01003690  w    F .text1	00000002 Read_Blob_Parse
10010080 g     O .bss	00000002 gHaltLogFlag
01002394 g     F .text1	00000014 prefetch
01001152 g     F .text1	000000c6 init_debugUart
10013160 g     O .noretention0	00000100 prepareRcv
01002b24 g     F .text1	00000126 Bt_SndToBtData
010032d4 g     F .text1	0000005a Flash_UpdateFlashRecordInfo
100100ef g       .bss	00000000 _retention_end
0100409c g     F .text1	00000028 .hidden __riscv_save_8
01000200  w    F .text	00000004 PWM5_IRQHandler
01002688 g     F .text1	0000005c qspi0_flash_arealock
01002fe6 g     F .text1	00000044 QSPI_FlashWriteLock
10010078 g     O .bss	00000004 gpHciDataFifo
0100303e  w    F .text1	00000002 ENCRYPT_DONE
010040e8 g     F .text1	0000000c .hidden __riscv_restore_3
10013000 g     O .noretention0	00000032 uarttxbuf
01000200  w    F .text	00000004 PWM1_IRQHandler
010018b4 g     F .text1	00000010 CoreReg_LpmWrite2
010040d4 g     F .text1	00000020 .hidden __riscv_restore_10
0100302a  w    F .text1	00000002 Dev_PowerOn
010047c4 g       .text1	00000000 _sidata
010010d6 g     F .text1	0000007c uart_txChar
0100302c  w    F .text1	0000000a Dev_WakeUp
01000200  w    F .text	00000004 NMI_Handler
01000200  w    F .text	00000004 UART_IRQHandler
01003ff4 g     F .text1	00000014 Find_AttTable_ByHandle
01000200  w    F .text	00000004 SBC_ERR1_IRQHandl
0100409c g     F .text1	00000028 .hidden __riscv_save_11
0100277e  w    F .text1	00000004 app_sleep_check
01002784 g     F .text1	00000018 Lpm_SleepWork
10010038 g       .bss	00000000 _sbss
010027ca g     F .text1	00000090 Lpm_PollingWork
0100368e  w    F .text1	00000002 Read_Parse
01001758 g     F .text1	00000030 print_string_log
01004008 g     F .text1	00000040 Find_AttTable_ByHandleRange_Type
010040e8 g     F .text1	0000000c .hidden __riscv_restore_2
01000200  w    F .text	00000004 SBC_ERR0_IRQHandl
0100285a g     F .text1	0000002e Lpm_unLockLpm
01000200  w    F .text	00000004 UARTB_IRQHandler
01004048 g     F .text1	0000004c Find_AttTable_ByHandleRange_Type_Data
01003e92 g     F .text1	00000130 ATT_Parse
0100411a g     F .text1	000000ba memcpy
01000200  w    F .text	00000004 PWM3_IRQHandler
01002766 g     F .text1	00000018 RV_TM_IRQHandler
01000200  w    F .text	00000004 IIS_IRQHandler
01001218 g     F .text1	0000000a debugUart_pollTx
01003fc2 g     F .text1	00000002 app_task_run
01004094 g     F .text1	00000030 .hidden __riscv_save_12
010040d4 g     F .text1	00000020 .hidden __riscv_restore_11
10010000 g       .data	00000000 _sdata
01002708 g     F .text1	0000005e System_WorkClockGet
010040c4 g     F .text1	0000000c .hidden __riscv_save_1
010040e8 g     F .text1	0000000c .hidden __riscv_restore_0
01001396 g     F .text1	000000fa print_log_to_uart
010040aa g     F .text1	0000001a .hidden __riscv_save_7
0100279c g     F .text1	0000000a Lpm_GetWakeFlag
010017b4 g     F .text1	00000040 hexchar2hex
010028fa g     F .text1	00000116 App_EvtAAPCallBack
010030f6 g     F .text1	00000010 bt_check_le_connected
01001826 g     F .text1	0000000a SetReleaseLpmWriteReg
01000200  w    F .text	00000004 BT_IRQHandler
0100332e g     F .text1	0000016a Bt_EvtCallBack
100100a4 g     O .bss	0000000a gFacStoreinfo
010040de g     F .text1	00000016 .hidden __riscv_restore_5
01002c9e g     F .text1	0000002c Bt_BleSendData
010027a6 g     F .text1	00000024 Lpm_CheckLpmFlag
01001ed2 g     F .text1	00000160 IPC_IsRxBuffEmpty
0100312a g     F .text1	00000180 Bt_SaveBleDeviceInfoToFlash
010047b0 g     O .text1	00000002 GATT_CHARACTERISTIC
01002f96 g     F .text1	00000050 QSPI_SectorEraseFlash
0100233e g     F .text1	00000012 IpcDefaultCallBack
01003036  w    F .text1	00000002 LE_CONNECTED
010040de g     F .text1	00000016 .hidden __riscv_restore_6
01002c4a g     F .text1	00000054 Bt_SndDataToRespin
10013260 g       .noretention0	00000000 _ebss
010001d8 g       .text	00000000 lpo_delay
01002782  w    F .text1	00000002 prepare_before_sleep
01000200  w    F .text	00000004 SPI_IRQHandler
01000200  w    F .text	00000004 DEB_IRQHandler
01002a98 g     F .text1	00000044 Bt_HciFifoOut
01002638 g     F .text1	00000024 qspi0_flash_sectorerase
100100ed g     O .bss	00000001 prepareLen
0100303a  w    F .text1	00000002 PAIR_DONE
0100409c g     F .text1	00000028 .hidden __riscv_save_9
0100303c  w    F .text1	00000002 PAIR_FAIL
010040aa g     F .text1	0000001a .hidden __riscv_save_4
01001a2c g     F .text1	00000046 Memory_Free
01002f3a g     F .text1	0000005c QSPI_WriteFlashData
010026e4 g     F .text1	00000024 qspi0_flashwrite_lock
01001964 g     F .text1	000000c8 Memory_Malloc
0100349a g     F .text1	000001ce Bt_UpdateDeviceNvdataInfo
01002a52 g     F .text1	00000046 Bt_HciFifoIn
01000200  w    F .text	00000004 PWM2_IRQHandler
0100368c  w    F .text1	00000002 Write_DataParse
01001222 g     F .text1	00000032 yichip_debug_uart_protocol
010028bc g     F .text1	0000003e App_AAPSwichModeRsp
010040c4 g     F .text1	0000000c .hidden __riscv_save_3
010010ba g     F .text1	0000001c uart_txBuffer
010018c4 g     F .text1	0000000e CoreReg_LpmWrite2IceWdtLongRst
10010034 g     O .data	00000004 gpRecinfo
0100265c g     F .text1	0000002c qspi0_flash_write
0100150c g     F .text1	0000024c print_string_log_raw
01002adc g     F .text1	0000003a Bt_HciCheckBufferFull
01000200  w    F .text	00000004 Default_Handler
010047ac g     O .text1	00000002 GATT_INCLUDE
01000200  w    F .text	00000004 QSPI1_IRQHandler
01004494 g     O .text1	0000000d AAP_StartAnc2
01000200  w    F .text	00000004 ADC_IRQHandler
01002b16 g     F .text1	0000000e Bt_HciWaitBufferElement
01002032 g     F .text1	000001ee IPC_TxBufferIsEnough
010022b6 g     F .text1	00000088 IPC_HandleRxPacket
01001490 g     F .text1	00000048 print_string_to_uart
01003120 g     F .text1	0000000a bt_set_tx_power
01001254 g     F .text1	00000142 init_print_log
01000200  w    F .text	00000004 PWM4_IRQHandler
01003044 g     F .text1	0000000a bt_state_init
010040f4 g     F .text1	00000026 memcmp
01000200  w    F .text	00000004 USB_IRQHandler
010018d2 g     F .text1	00000024 CoreReg_LpmGetIceWdtLongRst
01000200  w    F .text	00000004 IIC_IRQHandler
010017f4 g     F .text1	00000002 _assert_handler
01000200  w    F .text	00000004 IICD1_IRQHandler
0100409c g     F .text1	00000028 .hidden __riscv_save_10
010040de g     F .text1	00000016 .hidden __riscv_restore_4
01000200  w    F .text	00000004 PWM7_IRQHandler
010040d4 g     F .text1	00000020 .hidden __riscv_restore_8
010030b8 g     F .text1	0000003e bt_set_local_dle
010040aa g     F .text1	0000001a .hidden __riscv_save_6
01003038  w    F .text1	00000002 LE_DISCONNECTED
010017f6 g     F .text1	00000030 SetLockLpmWriteReg
01003fc4 g     F .text1	00000030 app_init
010041d4 g     F .text1	000000a8 memset
010040d4 g     F .text1	00000020 .hidden __riscv_restore_9
01003106 g     F .text1	0000001a bt_set_adv_random
01002cca g     F .text1	00000056 Bt_ParseRcvBLEPacket
010040de g     F .text1	00000016 .hidden __riscv_restore_7
010010a2 g     F .text1	00000018 main
01000200  w    F .text	00000004 SDMA_IRQHandler
01003498 g     F .text1	00000002 Bt_BleCallBack
10010082 g     O .bss	00000002 gHaltLogValue
01000200  w    F .text	00000004 WDT_IRQHandler
01002d38 g     F .text1	0000007a Bt_ParseRcvSPPPacket
10010088 g     O .bss	00000002 gOsEnterCriticalCnt
100100ee g     O .bss	00000001 prepareHandle
01002db2 g     F .text1	0000014e Bt_DataBufferCallBack
010018f6 g     F .text1	00000022 wait_lpodelay
01000180  w    F .text	00000000 trap
01002d20 g     F .text1	00000018 Bt_ParseBLEL2capPacket
01000200  w    F .text	00000004 QSPI2_IRQHandler
01002888 g     F .text1	0000002a Lpm_LockLpm
01000200  w    F .text	00000004 PWM0_IRQHandler
01003668 g     F .text1	00000024 hci_freq_tx_test
01002a10 g     F .text1	00000042 Bt_HciFifo_Init
01001d72 g     F .text1	00000160 IPC_IsTxBuffEmpty
010000a8  w    F .text	00000000 Default_IRQHandler
0100009e g       .text	00000000 enable_mie
01002350 g     F .text1	0000000a IPC_Init
010040c4 g     F .text1	0000000c .hidden __riscv_save_2
01000200  w    F .text	00000004 HOST_IRQHandler
010040aa g     F .text1	0000001a .hidden __riscv_save_5
10010038 g       .data	00000000 _edata
01002220 g     F .text1	00000096 IPC_TxCommon
010014d8 g     F .text1	00000034 print_string
010047b4 g     O .text1	00000010 Att_List
10010084 g     O .bss	00000004 txptr
010028b2 g     F .text1	0000000a Lpm_EnableSet
01003040  w    F .text1	00000002 CONN_PARAM_ACCEPTED
01002f30 g     F .text1	0000000a SetReleaseQSPI
01000200  w    F .text	00000004 DMA_IRQHandler
10013034 g     O .noretention0	00000002 uartrxbuf
010040d0 g     F .text1	00000024 .hidden __riscv_restore_12
01000200  w    F .text	00000004 SD_IRQHandler
0100235a g     F .text1	0000003a IWDG_Disable
01001830 g     F .text1	00000084 CoreReg_LpmWriteCommon
01001788 g     F .text1	0000002c xmemcpy
010040c4 g     F .text1	0000000c .hidden __riscv_save_0
01000200  w    F .text	00000004 WDT2_IRQHandler
01003e74 g     F .text1	0000001e ATT_Send
010047a8 g     O .text1	00000002 PRIMARY_SERVICE
1001d800 g       .noretention0	00000000 _stack
01000200  w    F .text	00000004 QSPI_IRQHandler
01000200  w    F .text	00000004 PWM6_IRQHandler
01000200  w    F .text	00000004 FFT_IRQHandler
010040e8 g     F .text1	0000000c .hidden __riscv_restore_1
01001a72 g     F .text1	0000003c Memory_InitHeap
1001008c g     O .bss	00000018 gHciDataDebug
100100b0 g     O .bss	0000003d gRecinfo
010001de  w    F .text	00000000 trap_c
01000096 g       .text	00000000 disable_mie
010032aa g     F .text1	0000002a Flash_CalFlashRecordCRC
01003042  w    F .text1	00000002 LE_LTK_LOST
01002f00 g     F .text1	00000030 SetLockQSPI
0100304e g     F .text1	0000006a bt_set_le_addr



Disassembly of section .text:

01000000 <__EN_MIE-0x7e>:
 1000000:	0f01e117          	auipc	sp,0xf01e
 1000004:	80010113          	addi	sp,sp,-2048 # 1001d800 <_stack>
 1000008:	00000517          	auipc	a0,0x0
 100000c:	17850513          	addi	a0,a0,376 # 1000180 <trap>
 1000010:	00156513          	ori	a0,a0,1
 1000014:	30551073          	csrw	mtvec,a0
 1000018:	6299                	lui	t0,0x6
 100001a:	3002a073          	csrs	mstatus,t0
 100001e:	00301073          	fssr	zero
 1000022:	100042b7          	lui	t0,0x10004
 1000026:	4d228293          	addi	t0,t0,1234 # 100044d2 <_sidata+0xefffd0e>
 100002a:	4305                	li	t1,1
 100002c:	00028283          	lb	t0,0(t0)
 1000030:	04628763          	beq	t0,t1,100007e <__EN_MIE>
 1000034:	00004517          	auipc	a0,0x4
 1000038:	79050513          	addi	a0,a0,1936 # 10047c4 <_sidata>
 100003c:	0f010597          	auipc	a1,0xf010
 1000040:	fc458593          	addi	a1,a1,-60 # 10010000 <_sdata>
 1000044:	0f010617          	auipc	a2,0xf010
 1000048:	ff460613          	addi	a2,a2,-12 # 10010038 <_edata>
 100004c:	00c5fa63          	bgeu	a1,a2,1000060 <__EN_MIE-0x1e>
 1000050:	00052283          	lw	t0,0(a0)
 1000054:	0055a023          	sw	t0,0(a1)
 1000058:	0511                	addi	a0,a0,4
 100005a:	0591                	addi	a1,a1,4
 100005c:	fec5eae3          	bltu	a1,a2,1000050 <__EN_MIE-0x2e>
 1000060:	0f010517          	auipc	a0,0xf010
 1000064:	fd850513          	addi	a0,a0,-40 # 10010038 <_edata>
 1000068:	0f013597          	auipc	a1,0xf013
 100006c:	1f858593          	addi	a1,a1,504 # 10013260 <_ebss>
 1000070:	00b57763          	bgeu	a0,a1,100007e <__EN_MIE>
 1000074:	00052023          	sw	zero,0(a0)
 1000078:	0511                	addi	a0,a0,4
 100007a:	feb56de3          	bltu	a0,a1,1000074 <__EN_MIE-0xa>

0100007e <__EN_MIE>:
__EN_MIE():
 100007e:	000012b7          	lui	t0,0x1
 1000082:	80028293          	addi	t0,t0,-2048 # 800 <__EN_MIE-0xfff87e>
 1000086:	3042a073          	csrs	mie,t0
 100008a:	42a1                	li	t0,8
 100008c:	3002a073          	csrs	mstatus,t0
 1000090:	012010ef          	jal	ra,10010a2 <main>

01000094 <__exit>:
__exit():
 1000094:	a001                	j	1000094 <__exit>

01000096 <disable_mie>:
disable_mie():
 1000096:	30047073          	csrci	mstatus,8
 100009a:	30200073          	mret

0100009e <enable_mie>:
enable_mie():
 100009e:	30046073          	csrsi	mstatus,8
 10000a2:	30200073          	mret
 10000a6:	0001                	nop

010000a8 <Default_IRQHandler>:
Default_IRQHandler():
 10000a8:	715d                	addi	sp,sp,-80
 10000aa:	c006                	sw	ra,0(sp)
 10000ac:	c212                	sw	tp,4(sp)
 10000ae:	c416                	sw	t0,8(sp)
 10000b0:	c61a                	sw	t1,12(sp)
 10000b2:	c81e                	sw	t2,16(sp)
 10000b4:	ca2a                	sw	a0,20(sp)
 10000b6:	cc2e                	sw	a1,24(sp)
 10000b8:	ce32                	sw	a2,28(sp)
 10000ba:	d036                	sw	a3,32(sp)
 10000bc:	d23a                	sw	a4,36(sp)
 10000be:	d43e                	sw	a5,40(sp)
 10000c0:	d642                	sw	a6,44(sp)
 10000c2:	d846                	sw	a7,48(sp)
 10000c4:	da72                	sw	t3,52(sp)
 10000c6:	dc76                	sw	t4,56(sp)
 10000c8:	de7a                	sw	t5,60(sp)
 10000ca:	c0fe                	sw	t6,64(sp)
 10000cc:	341022f3          	csrr	t0,mepc
 10000d0:	34202373          	csrr	t1,mcause
 10000d4:	c296                	sw	t0,68(sp)
 10000d6:	c49a                	sw	t1,72(sp)
 10000d8:	00000297          	auipc	t0,0x0
 10000dc:	13828293          	addi	t0,t0,312 # 1000210 <isr_table>
 10000e0:	00020337          	lui	t1,0x20
 10000e4:	c0430313          	addi	t1,t1,-1020 # 1fc04 <__EN_MIE-0xfe047a>
 10000e8:	00032303          	lw	t1,0(t1)
 10000ec:	00231393          	slli	t2,t1,0x2
 10000f0:	929e                	add	t0,t0,t2
 10000f2:	0002a383          	lw	t2,0(t0)
 10000f6:	c69a                	sw	t1,76(sp)
 10000f8:	9382                	jalr	t2
 10000fa:	30047073          	csrci	mstatus,8
 10000fe:	4336                	lw	t1,76(sp)
 1000100:	000202b7          	lui	t0,0x20
 1000104:	c0428293          	addi	t0,t0,-1020 # 1fc04 <__EN_MIE-0xfe047a>
 1000108:	0062a023          	sw	t1,0(t0)
 100010c:	000022b7          	lui	t0,0x2
 1000110:	88028293          	addi	t0,t0,-1920 # 1880 <__EN_MIE-0xffe7fe>
 1000114:	3002a073          	csrs	mstatus,t0
 1000118:	4296                	lw	t0,68(sp)
 100011a:	4326                	lw	t1,72(sp)
 100011c:	34231073          	csrw	mcause,t1
 1000120:	34129073          	csrw	mepc,t0
 1000124:	4082                	lw	ra,0(sp)
 1000126:	4212                	lw	tp,4(sp)
 1000128:	42a2                	lw	t0,8(sp)
 100012a:	4332                	lw	t1,12(sp)
 100012c:	43c2                	lw	t2,16(sp)
 100012e:	4552                	lw	a0,20(sp)
 1000130:	45e2                	lw	a1,24(sp)
 1000132:	4672                	lw	a2,28(sp)
 1000134:	5682                	lw	a3,32(sp)
 1000136:	5712                	lw	a4,36(sp)
 1000138:	57a2                	lw	a5,40(sp)
 100013a:	5832                	lw	a6,44(sp)
 100013c:	58c2                	lw	a7,48(sp)
 100013e:	5e52                	lw	t3,52(sp)
 1000140:	5ee2                	lw	t4,56(sp)
 1000142:	5f72                	lw	t5,60(sp)
 1000144:	4f86                	lw	t6,64(sp)
 1000146:	6161                	addi	sp,sp,80
 1000148:	30200073          	mret
	...

01000180 <trap>:
trap():
 1000180:	1171                	addi	sp,sp,-4
 1000182:	c016                	sw	t0,0(sp)
 1000184:	342022f3          	csrr	t0,mcause
 1000188:	0402c463          	bltz	t0,10001d0 <.Interrupt>
 100018c:	0111                	addi	sp,sp,4
 100018e:	fa410113          	addi	sp,sp,-92
 1000192:	c006                	sw	ra,0(sp)
 1000194:	c20a                	sw	sp,4(sp)
 1000196:	c40e                	sw	gp,8(sp)
 1000198:	c612                	sw	tp,12(sp)
 100019a:	c816                	sw	t0,16(sp)
 100019c:	ca1a                	sw	t1,20(sp)
 100019e:	cc1e                	sw	t2,24(sp)
 10001a0:	ce22                	sw	s0,28(sp)
 10001a2:	d026                	sw	s1,32(sp)
 10001a4:	d22a                	sw	a0,36(sp)
 10001a6:	d42e                	sw	a1,40(sp)
 10001a8:	d632                	sw	a2,44(sp)
 10001aa:	d836                	sw	a3,48(sp)
 10001ac:	da3a                	sw	a4,52(sp)
 10001ae:	dc3e                	sw	a5,56(sp)
 10001b0:	de42                	sw	a6,60(sp)
 10001b2:	c0c6                	sw	a7,64(sp)
 10001b4:	c2f2                	sw	t3,68(sp)
 10001b6:	c4f6                	sw	t4,72(sp)
 10001b8:	c6fa                	sw	t5,76(sp)
 10001ba:	c8fe                	sw	t6,80(sp)
 10001bc:	34102573          	csrr	a0,mepc
 10001c0:	caaa                	sw	a0,84(sp)
 10001c2:	30002573          	csrr	a0,mstatus
 10001c6:	ccaa                	sw	a0,88(sp)
 10001c8:	850a                	mv	a0,sp
 10001ca:	014000ef          	jal	ra,10001de <trap_c>
 10001ce:	a001                	j	10001ce <trap+0x4e>

010001d0 <.Interrupt>:
.Interrupt():
 10001d0:	4282                	lw	t0,0(sp)
 10001d2:	0111                	addi	sp,sp,4
 10001d4:	ed5ff06f          	j	10000a8 <Default_IRQHandler>

010001d8 <lpo_delay>:
lpo_delay():
 10001d8:	157d                	addi	a0,a0,-1
 10001da:	fd7d                	bnez	a0,10001d8 <lpo_delay>
 10001dc:	8082                	ret

010001de <trap_c>:
trap_c():
 10001de:	0000006f          	j	10001de <trap_c>
 10001e2:	00000013          	nop
 10001e6:	00000013          	nop
 10001ea:	00000013          	nop
 10001ee:	00000013          	nop
 10001f2:	00000013          	nop
 10001f6:	00000013          	nop
 10001fa:	00000013          	nop
 10001fe:	0001                	nop

01000200 <ADC_IRQHandler>:
GPIO_IRQHandler():
 1000200:	0000006f          	j	1000200 <ADC_IRQHandler>
 1000204:	00000013          	nop
 1000208:	00000013          	nop
 100020c:	00000013          	nop

01000210 <isr_table>:
	...
isr_table():
 1000250:	0200                	addi	s0,sp,256
 1000252:	0100                	addi	s0,sp,128
 1000254:	0200                	addi	s0,sp,256
 1000256:	0100                	addi	s0,sp,128
 1000258:	0200                	addi	s0,sp,256
 100025a:	0100                	addi	s0,sp,128
 100025c:	0200                	addi	s0,sp,256
 100025e:	0100                	addi	s0,sp,128
 1000260:	0200                	addi	s0,sp,256
 1000262:	0100                	addi	s0,sp,128
 1000264:	0200                	addi	s0,sp,256
 1000266:	0100                	addi	s0,sp,128
 1000268:	0200                	addi	s0,sp,256
 100026a:	0100                	addi	s0,sp,128
 100026c:	0200                	addi	s0,sp,256
 100026e:	0100                	addi	s0,sp,128
 1000270:	0200                	addi	s0,sp,256
 1000272:	0100                	addi	s0,sp,128
 1000274:	0200                	addi	s0,sp,256
 1000276:	0100                	addi	s0,sp,128
 1000278:	0200                	addi	s0,sp,256
 100027a:	0100                	addi	s0,sp,128
 100027c:	0200                	addi	s0,sp,256
 100027e:	0100                	addi	s0,sp,128
 1000280:	0200                	addi	s0,sp,256
 1000282:	0100                	addi	s0,sp,128
 1000284:	0200                	addi	s0,sp,256
 1000286:	0100                	addi	s0,sp,128
 1000288:	0200                	addi	s0,sp,256
 100028a:	0100                	addi	s0,sp,128
 100028c:	0200                	addi	s0,sp,256
 100028e:	0100                	addi	s0,sp,128
 1000290:	0200                	addi	s0,sp,256
 1000292:	0100                	addi	s0,sp,128
 1000294:	0200                	addi	s0,sp,256
 1000296:	0100                	addi	s0,sp,128
 1000298:	0200                	addi	s0,sp,256
 100029a:	0100                	addi	s0,sp,128
 100029c:	0200                	addi	s0,sp,256
 100029e:	0100                	addi	s0,sp,128
 10002a0:	0200                	addi	s0,sp,256
 10002a2:	0100                	addi	s0,sp,128
 10002a4:	0200                	addi	s0,sp,256
 10002a6:	0100                	addi	s0,sp,128
 10002a8:	0200                	addi	s0,sp,256
 10002aa:	0100                	addi	s0,sp,128
 10002ac:	0200                	addi	s0,sp,256
 10002ae:	0100                	addi	s0,sp,128
 10002b0:	0200                	addi	s0,sp,256
 10002b2:	0100                	addi	s0,sp,128
 10002b4:	0200                	addi	s0,sp,256
 10002b6:	0100                	addi	s0,sp,128
 10002b8:	0200                	addi	s0,sp,256
 10002ba:	0100                	addi	s0,sp,128
 10002bc:	0200                	addi	s0,sp,256
 10002be:	0100                	addi	s0,sp,128
 10002c0:	0200                	addi	s0,sp,256
 10002c2:	0100                	addi	s0,sp,128
	...
 10002d0:	2766                	fld	fa4,88(sp)
 10002d2:	0100                	addi	s0,sp,128
 10002d4:	0200                	addi	s0,sp,256
 10002d6:	0100                	addi	s0,sp,128
 10002d8:	0200                	addi	s0,sp,256
 10002da:	0100                	addi	s0,sp,128
 10002dc:	0000                	unimp
 10002de:	0000                	unimp
 10002e0:	000002a3          	sb	zero,5(zero) # 5 <__EN_MIE-0x1000079>
 10002e4:	0002                	c.slli64	zero
 10002e6:	0041                	c.nop	16
 10002e8:	0000                	unimp
 10002ea:	0101                	addi	sp,sp,0
 10002ec:	000d0efb          	0xd0efb
 10002f0:	0101                	addi	sp,sp,0
 10002f2:	0101                	addi	sp,sp,0
 10002f4:	0000                	unimp
 10002f6:	0100                	addi	s0,sp,128
 10002f8:	0000                	unimp
 10002fa:	2e01                	jal	100060a <isr_table+0x3fa>
 10002fc:	2f2e2e2f          	0x2f2e2e2f
 1000300:	2e2e                	fld	ft8,200(sp)
 1000302:	2f2e2e2f          	0x2f2e2e2f
 1000306:	6c50                	flw	fa2,28(s0)
 1000308:	7461                	lui	s0,0xffff8
 100030a:	6f66                	flw	ft10,88(sp)
 100030c:	6d72                	flw	fs10,28(sp)
 100030e:	6174732f          	0x6174732f
 1000312:	7472                	flw	fs0,60(sp)
 1000314:	7075                	c.lui	zero,0xffffd
 1000316:	0000                	unimp
 1000318:	72617473          	csrrci	s0,0x726,2
 100031c:	7574                	flw	fa3,108(a0)
 100031e:	5f70                	lw	a2,124(a4)
 1000320:	7672                	flw	fa2,60(sp)
 1000322:	732e3233          	0x732e3233
 1000326:	0100                	addi	s0,sp,128
 1000328:	0000                	unimp
 100032a:	0000                	unimp
 100032c:	0205                	addi	tp,tp,1
 100032e:	0000                	unimp
 1000330:	0100                	addi	s0,sp,128
 1000332:	03011603          	lh	a2,48(sp)
 1000336:	00080903          	lb	s2,0(a6)
 100033a:	0301                	addi	t1,t1,0
 100033c:	0901                	addi	s2,s2,0
 100033e:	0008                	0x8
 1000340:	0301                	addi	t1,t1,0
 1000342:	0901                	addi	s2,s2,0
 1000344:	0004                	0x4
 1000346:	0301                	addi	t1,t1,0
 1000348:	00040903          	lb	s2,0(s0) # ffff8000 <_stack+0xeffda800>
 100034c:	0301                	addi	t1,t1,0
 100034e:	0901                	addi	s2,s2,0
 1000350:	0002                	c.slli64	zero
 1000352:	0301                	addi	t1,t1,0
 1000354:	0901                	addi	s2,s2,0
 1000356:	0004                	0x4
 1000358:	0301                	addi	t1,t1,0
 100035a:	00040903          	lb	s2,0(s0)
 100035e:	0301                	addi	t1,t1,0
 1000360:	0901                	addi	s2,s2,0
 1000362:	0008                	0x8
 1000364:	0301                	addi	t1,t1,0
 1000366:	0901                	addi	s2,s2,0
 1000368:	0002                	c.slli64	zero
 100036a:	0301                	addi	t1,t1,0
 100036c:	0901                	addi	s2,s2,0
 100036e:	0004                	0x4
 1000370:	0301                	addi	t1,t1,0
 1000372:	00040903          	lb	s2,0(s0)
 1000376:	0301                	addi	t1,t1,0
 1000378:	0901                	addi	s2,s2,0
 100037a:	0008                	0x8
 100037c:	0301                	addi	t1,t1,0
 100037e:	0901                	addi	s2,s2,0
 1000380:	0008                	0x8
 1000382:	0301                	addi	t1,t1,0
 1000384:	0901                	addi	s2,s2,0
 1000386:	0008                	0x8
 1000388:	0301                	addi	t1,t1,0
 100038a:	0902                	c.slli64	s2
 100038c:	0004                	0x4
 100038e:	0301                	addi	t1,t1,0
 1000390:	0901                	addi	s2,s2,0
 1000392:	0004                	0x4
 1000394:	0301                	addi	t1,t1,0
 1000396:	0901                	addi	s2,s2,0
 1000398:	0004                	0x4
 100039a:	0301                	addi	t1,t1,0
 100039c:	0901                	addi	s2,s2,0
 100039e:	0002                	c.slli64	zero
 10003a0:	0301                	addi	t1,t1,0
 10003a2:	0901                	addi	s2,s2,0
 10003a4:	0002                	c.slli64	zero
 10003a6:	0301                	addi	t1,t1,0
 10003a8:	00040903          	lb	s2,0(s0)
 10003ac:	0301                	addi	t1,t1,0
 10003ae:	0901                	addi	s2,s2,0
 10003b0:	0008                	0x8
 10003b2:	0301                	addi	t1,t1,0
 10003b4:	0901                	addi	s2,s2,0
 10003b6:	0008                	0x8
 10003b8:	0301                	addi	t1,t1,0
 10003ba:	0902                	c.slli64	s2
 10003bc:	0004                	0x4
 10003be:	0301                	addi	t1,t1,0
 10003c0:	0901                	addi	s2,s2,0
 10003c2:	0004                	0x4
 10003c4:	0301                	addi	t1,t1,0
 10003c6:	0901                	addi	s2,s2,0
 10003c8:	0002                	c.slli64	zero
 10003ca:	0301                	addi	t1,t1,0
 10003cc:	0004090b          	0x4090b
 10003d0:	0301                	addi	t1,t1,0
 10003d2:	0901                	addi	s2,s2,0
 10003d4:	0008                	0x8
 10003d6:	0301                	addi	t1,t1,0
 10003d8:	0902                	c.slli64	s2
 10003da:	0004                	0x4
 10003dc:	0301                	addi	t1,t1,0
 10003de:	0901                	addi	s2,s2,0
 10003e0:	0002                	c.slli64	zero
 10003e2:	0301                	addi	t1,t1,0
 10003e4:	0902                	c.slli64	s2
 10003e6:	0004                	0x4
 10003e8:	0301                	addi	t1,t1,0
 10003ea:	0904                	addi	s1,sp,144
 10003ec:	0004                	0x4
 10003ee:	0301                	addi	t1,t1,0
 10003f0:	0911                	addi	s2,s2,4
 10003f2:	0002                	c.slli64	zero
 10003f4:	0301                	addi	t1,t1,0
 10003f6:	0901                	addi	s2,s2,0
 10003f8:	0004                	0x4
 10003fa:	0301                	addi	t1,t1,0
 10003fc:	0904                	addi	s1,sp,144
 10003fe:	0004                	0x4
 1000400:	0301                	addi	t1,t1,0
 1000402:	0901                	addi	s2,s2,0
 1000404:	0004                	0x4
 1000406:	0301                	addi	t1,t1,0
 1000408:	060900d3          	fadd.q	ft1,fs2,ft0,rne
 100040c:	0100                	addi	s0,sp,128
 100040e:	24090203          	lb	tp,576(s2)
 1000412:	0100                	addi	s0,sp,128
 1000414:	0c090303          	lb	t1,192(s2)
 1000418:	0100                	addi	s0,sp,128
 100041a:	08090203          	lb	tp,128(s2)
 100041e:	0100                	addi	s0,sp,128
 1000420:	08090103          	lb	sp,128(s2)
 1000424:	0100                	addi	s0,sp,128
 1000426:	04090103          	lb	sp,64(s2)
 100042a:	0100                	addi	s0,sp,128
 100042c:	04090103          	lb	sp,64(s2)
 1000430:	0100                	addi	s0,sp,128
 1000432:	02090103          	lb	sp,32(s2)
 1000436:	0100                	addi	s0,sp,128
 1000438:	04090103          	lb	sp,64(s2)
 100043c:	0100                	addi	s0,sp,128
 100043e:	02090503          	lb	a0,32(s2)
 1000442:	0100                	addi	s0,sp,128
 1000444:	02090203          	lb	tp,32(s2)
 1000448:	0100                	addi	s0,sp,128
 100044a:	04090303          	lb	t1,64(s2)
 100044e:	0100                	addi	s0,sp,128
 1000450:	02090103          	lb	sp,32(s2)
 1000454:	0100                	addi	s0,sp,128
 1000456:	08090103          	lb	sp,128(s2)
 100045a:	0100                	addi	s0,sp,128
 100045c:	04090403          	lb	s0,64(s2)
 1000460:	0100                	addi	s0,sp,128
 1000462:	08090103          	lb	sp,128(s2)
 1000466:	0100                	addi	s0,sp,128
 1000468:	04090203          	lb	tp,64(s2)
 100046c:	0100                	addi	s0,sp,128
 100046e:	0c090203          	lb	tp,192(s2)
 1000472:	0100                	addi	s0,sp,128
 1000474:	24090203          	lb	tp,576(s2)
 1000478:	0100                	addi	s0,sp,128
 100047a:	0409                	addi	s0,s0,2
 100047c:	0000                	unimp
 100047e:	0101                	addi	sp,sp,0
 1000480:	0500                	addi	s0,sp,640
 1000482:	8002                	0x8002
 1000484:	0001                	nop
 1000486:	0301                	addi	t1,t1,0
 1000488:	01e9                	addi	gp,gp,26
 100048a:	0301                	addi	t1,t1,0
 100048c:	0901                	addi	s2,s2,0
 100048e:	0002                	c.slli64	zero
 1000490:	0301                	addi	t1,t1,0
 1000492:	0901                	addi	s2,s2,0
 1000494:	0002                	c.slli64	zero
 1000496:	0301                	addi	t1,t1,0
 1000498:	0901                	addi	s2,s2,0
 100049a:	0004                	0x4
 100049c:	0301                	addi	t1,t1,0
 100049e:	0901                	addi	s2,s2,0
 10004a0:	0004                	0x4
 10004a2:	0301                	addi	t1,t1,0
 10004a4:	00020903          	lb	s2,0(tp) # 0 <__EN_MIE-0x100007e>
 10004a8:	0301                	addi	t1,t1,0
 10004aa:	0901                	addi	s2,s2,0
 10004ac:	0004                	0x4
 10004ae:	0301                	addi	t1,t1,0
 10004b0:	0901                	addi	s2,s2,0
 10004b2:	0002                	c.slli64	zero
 10004b4:	0301                	addi	t1,t1,0
 10004b6:	0901                	addi	s2,s2,0
 10004b8:	0002                	c.slli64	zero
 10004ba:	0301                	addi	t1,t1,0
 10004bc:	0901                	addi	s2,s2,0
 10004be:	0002                	c.slli64	zero
 10004c0:	0301                	addi	t1,t1,0
 10004c2:	0901                	addi	s2,s2,0
 10004c4:	0002                	c.slli64	zero
 10004c6:	0301                	addi	t1,t1,0
 10004c8:	0901                	addi	s2,s2,0
 10004ca:	0002                	c.slli64	zero
 10004cc:	0301                	addi	t1,t1,0
 10004ce:	0901                	addi	s2,s2,0
 10004d0:	0002                	c.slli64	zero
 10004d2:	0301                	addi	t1,t1,0
 10004d4:	0901                	addi	s2,s2,0
 10004d6:	0002                	c.slli64	zero
 10004d8:	0301                	addi	t1,t1,0
 10004da:	0901                	addi	s2,s2,0
 10004dc:	0002                	c.slli64	zero
 10004de:	0301                	addi	t1,t1,0
 10004e0:	0901                	addi	s2,s2,0
 10004e2:	0002                	c.slli64	zero
 10004e4:	0301                	addi	t1,t1,0
 10004e6:	0901                	addi	s2,s2,0
 10004e8:	0002                	c.slli64	zero
 10004ea:	0301                	addi	t1,t1,0
 10004ec:	0901                	addi	s2,s2,0
 10004ee:	0002                	c.slli64	zero
 10004f0:	0301                	addi	t1,t1,0
 10004f2:	0901                	addi	s2,s2,0
 10004f4:	0002                	c.slli64	zero
 10004f6:	0301                	addi	t1,t1,0
 10004f8:	0901                	addi	s2,s2,0
 10004fa:	0002                	c.slli64	zero
 10004fc:	0301                	addi	t1,t1,0
 10004fe:	0901                	addi	s2,s2,0
 1000500:	0002                	c.slli64	zero
 1000502:	0301                	addi	t1,t1,0
 1000504:	0901                	addi	s2,s2,0
 1000506:	0002                	c.slli64	zero
 1000508:	0301                	addi	t1,t1,0
 100050a:	0901                	addi	s2,s2,0
 100050c:	0002                	c.slli64	zero
 100050e:	0301                	addi	t1,t1,0
 1000510:	0901                	addi	s2,s2,0
 1000512:	0002                	c.slli64	zero
 1000514:	0301                	addi	t1,t1,0
 1000516:	0901                	addi	s2,s2,0
 1000518:	0002                	c.slli64	zero
 100051a:	0301                	addi	t1,t1,0
 100051c:	0901                	addi	s2,s2,0
 100051e:	0002                	c.slli64	zero
 1000520:	0301                	addi	t1,t1,0
 1000522:	0901                	addi	s2,s2,0
 1000524:	0002                	c.slli64	zero
 1000526:	0301                	addi	t1,t1,0
 1000528:	0902                	c.slli64	s2
 100052a:	0002                	c.slli64	zero
 100052c:	0301                	addi	t1,t1,0
 100052e:	0901                	addi	s2,s2,0
 1000530:	0004                	0x4
 1000532:	0301                	addi	t1,t1,0
 1000534:	0901                	addi	s2,s2,0
 1000536:	0002                	c.slli64	zero
 1000538:	0301                	addi	t1,t1,0
 100053a:	0901                	addi	s2,s2,0
 100053c:	0004                	0x4
 100053e:	0301                	addi	t1,t1,0
 1000540:	0901                	addi	s2,s2,0
 1000542:	0002                	c.slli64	zero
 1000544:	0301                	addi	t1,t1,0
 1000546:	00020903          	lb	s2,0(tp) # 0 <__EN_MIE-0x100007e>
 100054a:	0301                	addi	t1,t1,0
 100054c:	00040903          	lb	s2,0(s0)
 1000550:	0301                	addi	t1,t1,0
 1000552:	00020903          	lb	s2,0(tp) # 0 <__EN_MIE-0x100007e>
 1000556:	0301                	addi	t1,t1,0
 1000558:	0901                	addi	s2,s2,0
 100055a:	0002                	c.slli64	zero
 100055c:	0301                	addi	t1,t1,0
 100055e:	0902                	c.slli64	s2
 1000560:	0002                	c.slli64	zero
 1000562:	0301                	addi	t1,t1,0
 1000564:	00040907          	0x40907
 1000568:	0301                	addi	t1,t1,0
 100056a:	0901                	addi	s2,s2,0
 100056c:	0002                	c.slli64	zero
 100056e:	0301                	addi	t1,t1,0
 1000570:	0901                	addi	s2,s2,0
 1000572:	0002                	c.slli64	zero
 1000574:	0301                	addi	t1,t1,0
 1000576:	0906                	slli	s2,s2,0x1
 1000578:	0002                	c.slli64	zero
 100057a:	0301                	addi	t1,t1,0
 100057c:	0908                	addi	a0,sp,144
 100057e:	0022                	c.slli	zero,0x8
 1000580:	0901                	addi	s2,s2,0
 1000582:	00dc                	addi	a5,sp,68
 1000584:	0100                	addi	s0,sp,128
 1000586:	1e01                	addi	t3,t3,-32
 1000588:	0000                	unimp
 100058a:	0200                	addi	s0,sp,256
 100058c:	a900                	fsd	fs0,16(a0)
 100058e:	0005                	c.nop	1
 1000590:	0401                	addi	s0,s0,0
 1000592:	e001                	bnez	s0,1000592 <isr_table+0x382>
 1000594:	0002                	c.slli64	zero
 1000596:	6001                	0x6001
 1000598:	0006                	c.slli	zero,0x1
 100059a:	e801                	bnez	s0,10005aa <isr_table+0x39a>
 100059c:	0005                	c.nop	1
 100059e:	1301                	addi	t1,t1,-32
 10005a0:	0006                	c.slli	zero,0x1
 10005a2:	5001                	c.li	zero,-32
 10005a4:	0006                	c.slli	zero,0x1
 10005a6:	0101                	addi	sp,sp,0
 10005a8:	0180                	addi	s0,sp,192
 10005aa:	0011                	c.nop	4
 10005ac:	0610                	addi	a2,sp,768
 10005ae:	0655                	addi	a2,a2,21
 10005b0:	0e1b0e03          	lb	t3,225(s6)
 10005b4:	0e25                	addi	t3,t3,9
 10005b6:	00000513          	li	a0,0
 10005ba:	0000                	unimp
 10005bc:	0000                	unimp
 10005be:	0000                	unimp
 10005c0:	0024                	addi	s1,sp,8
 10005c2:	0000                	unimp
 10005c4:	0002                	c.slli64	zero
 10005c6:	01000587          	0x1000587
 10005ca:	0004                	0x4
 10005cc:	0000                	unimp
 10005ce:	0000                	unimp
 10005d0:	0000                	unimp
 10005d2:	0100                	addi	s0,sp,128
 10005d4:	014c                	addi	a1,sp,132
 10005d6:	0000                	unimp
 10005d8:	0180                	addi	s0,sp,192
 10005da:	0100                	addi	s0,sp,128
 10005dc:	015c                	addi	a5,sp,132
	...
 10005e6:	0000                	unimp
 10005e8:	2f2e                	fld	ft10,200(sp)
 10005ea:	2e2e                	fld	ft8,200(sp)
 10005ec:	2f2e2e2f          	0x2f2e2e2f
 10005f0:	2e2e                	fld	ft8,200(sp)
 10005f2:	616c502f          	0x616c502f
 10005f6:	6674                	flw	fa3,76(a2)
 10005f8:	2f6d726f          	jal	tp,10d78ee <_sidata+0xd312a>
 10005fc:	72617473          	csrrci	s0,0x726,2
 1000600:	7574                	flw	fa3,108(a0)
 1000602:	2f70                	fld	fa2,216(a4)
 1000604:	72617473          	csrrci	s0,0x726,2
 1000608:	7574                	flw	fa3,108(a0)
 100060a:	5f70                	lw	a2,124(a4)
 100060c:	7672                	flw	fa2,60(sp)
 100060e:	732e3233          	0x732e3233
 1000612:	4400                	lw	s0,8(s0)
 1000614:	5c3a                	lw	s8,172(sp)
 1000616:	45444f43          	0x45444f43
 100061a:	485c                	lw	a5,20(s0)
 100061c:	6165                	addi	sp,sp,112
 100061e:	7472                	flw	fs0,60(sp)
 1000620:	6e65                	lui	t3,0x19
 1000622:	535f 4b44 485c      	0x485c4b44535f
 1000628:	6165                	addi	sp,sp,112
 100062a:	7472                	flw	fs0,60(sp)
 100062c:	6e65                	lui	t3,0x19
 100062e:	535f 4b44 595f      	0x595f4b44535f
 1000634:	52505c43          	fmadd.d	fs8,ft0,ft5,fa0,unknown
 1000638:	5f4a                	lw	t5,176(sp)
 100063a:	5054554f          	fnmadd.s	fa0,fs0,ft5,fa0,unknown
 100063e:	5455                	li	s0,-11
 1000640:	485c                	lw	a5,20(s0)
 1000642:	5f44                	lw	s1,60(a4)
 1000644:	4348                	lw	a0,4(a4)
 1000646:	5f49                	li	t5,-14
 1000648:	5444                	lw	s1,44(s0)
 100064a:	5c4d                	li	s8,-13
 100064c:	00434347          	fmsub.s	ft6,ft6,ft4,ft0,rmm
 1000650:	20554e47          	fmsub.s	ft8,fa0,ft5,ft4,rmm
 1000654:	5341                	li	t1,-16
 1000656:	3220                	fld	fs0,96(a2)
 1000658:	332e                	fld	ft6,232(sp)
 100065a:	2e31                	jal	1000976 <isr_table+0x766>
 100065c:	0031                	c.nop	12
 100065e:	0000                	unimp
 1000660:	ffff                	0xffff
 1000662:	ffff                	0xffff
 1000664:	0000                	unimp
 1000666:	0000                	unimp
 1000668:	0000                	unimp
 100066a:	0100                	addi	s0,sp,128
 100066c:	014c                	addi	a1,sp,132
 100066e:	0100                	addi	s0,sp,128
 1000670:	0180                	addi	s0,sp,192
 1000672:	0100                	addi	s0,sp,128
 1000674:	02dc                	addi	a5,sp,324
 1000676:	0100                	addi	s0,sp,128
	...

Disassembly of section .text1:

01001000 <bt_init>:
bt_init():
 1001000:	0c4032ef          	jal	t0,10040c4 <__riscv_save_0>
 1001004:	10011537          	lui	a0,0x10011
 1001008:	6589                	lui	a1,0x2
 100100a:	00050513          	mv	a0,a0
 100100e:	265000ef          	jal	ra,1001a72 <Memory_InitHeap>
 1001012:	1ff010ef          	jal	ra,1002a10 <Bt_HciFifo_Init>
 1001016:	786010ef          	jal	ra,100279c <Lpm_GetWakeFlag>
 100101a:	04051063          	bnez	a0,100105a <bt_init+0x5a>
 100101e:	10010537          	lui	a0,0x10010
 1001022:	00050513          	mv	a0,a0
 1001026:	32a010ef          	jal	ra,1002350 <IPC_Init>
 100102a:	450d                	li	a0,3
 100102c:	0da020ef          	jal	ra,1003106 <bt_set_adv_random>
 1001030:	4515                	li	a0,5
 1001032:	0ee020ef          	jal	ra,1003120 <bt_set_tx_power>
 1001036:	00e020ef          	jal	ra,1003044 <bt_state_init>
 100103a:	01004537          	lui	a0,0x1004
 100103e:	27c50513          	addi	a0,a0,636 # 100427c <memset+0xa8>
 1001042:	00c020ef          	jal	ra,100304e <bt_set_le_addr>
 1001046:	6685                	lui	a3,0x1
 1001048:	84868693          	addi	a3,a3,-1976 # 848 <__EN_MIE-0xfff836>
 100104c:	0fb00613          	li	a2,251
 1001050:	85b6                	mv	a1,a3
 1001052:	0fb00513          	li	a0,251
 1001056:	062020ef          	jal	ra,10030b8 <bt_set_local_dle>
 100105a:	08e0306f          	j	10040e8 <__riscv_restore_0>

0100105e <chip_task_run>:
chip_task_run():
 100105e:	066032ef          	jal	t0,10040c4 <__riscv_save_0>
 1001062:	2a5d                	jal	1001218 <debugUart_pollTx>
 1001064:	766010ef          	jal	ra,10027ca <Lpm_PollingWork>
 1001068:	0800306f          	j	10040e8 <__riscv_restore_0>

0100106c <chip_init>:
chip_init():
 100106c:	058032ef          	jal	t0,10040c4 <__riscv_save_0>
 1001070:	4501                	li	a0,0
 1001072:	2e8010ef          	jal	ra,100235a <IWDG_Disable>
 1001076:	4505                	li	a0,1
 1001078:	2e2010ef          	jal	ra,100235a <IWDG_Disable>
 100107c:	4505                	li	a0,1
 100107e:	035010ef          	jal	ra,10028b2 <Lpm_EnableSet>
 1001082:	28c1                	jal	1001152 <init_debugUart>
 1001084:	100107b7          	lui	a5,0x10010
 1001088:	08079423          	sh	zero,136(a5) # 10010088 <gOsEnterCriticalCnt>
 100108c:	710010ef          	jal	ra,100279c <Lpm_GetWakeFlag>
 1001090:	00051763          	bnez	a0,100109e <chip_init+0x32>
 1001094:	03e00593          	li	a1,62
 1001098:	4505                	li	a0,1
 100109a:	74d010ef          	jal	ra,1002fe6 <QSPI_FlashWriteLock>
 100109e:	04a0306f          	j	10040e8 <__riscv_restore_0>

010010a2 <main>:
main():
 10010a2:	022032ef          	jal	t0,10040c4 <__riscv_save_0>
 10010a6:	37d9                	jal	100106c <chip_init>
 10010a8:	3fa1                	jal	1001000 <bt_init>
 10010aa:	71b020ef          	jal	ra,1003fc4 <app_init>
 10010ae:	715020ef          	jal	ra,1003fc2 <app_task_run>
 10010b2:	204010ef          	jal	ra,10022b6 <IPC_HandleRxPacket>
 10010b6:	3765                	jal	100105e <chip_task_run>
 10010b8:	bfdd                	j	10010ae <main+0xc>

010010ba <uart_txBuffer>:
uart_txBuffer():
 10010ba:	00a032ef          	jal	t0,10040c4 <__riscv_save_0>
 10010be:	842a                	mv	s0,a0
 10010c0:	00b504b3          	add	s1,a0,a1
 10010c4:	00941463          	bne	s0,s1,10010cc <uart_txBuffer+0x12>
 10010c8:	0200306f          	j	10040e8 <__riscv_restore_0>
 10010cc:	00044503          	lbu	a0,0(s0)
 10010d0:	0405                	addi	s0,s0,1
 10010d2:	2011                	jal	10010d6 <uart_txChar>
 10010d4:	bfc5                	j	10010c4 <uart_txBuffer+0xa>

010010d6 <uart_txChar>:
uart_txChar():
 10010d6:	30047073          	csrci	mstatus,8
 10010da:	100107b7          	lui	a5,0x10010
 10010de:	0887d703          	lhu	a4,136(a5) # 10010088 <gOsEnterCriticalCnt>
 10010e2:	10008637          	lui	a2,0x10008
 10010e6:	02700693          	li	a3,39
 10010ea:	0705                	addi	a4,a4,1
 10010ec:	08e79423          	sh	a4,136(a5)
 10010f0:	873e                	mv	a4,a5
 10010f2:	35664783          	lbu	a5,854(a2) # 10008356 <_sidata+0xf003b92>
 10010f6:	fef6eee3          	bltu	a3,a5,10010f2 <uart_txChar+0x1c>
 10010fa:	100107b7          	lui	a5,0x10010
 10010fe:	0847a683          	lw	a3,132(a5) # 10010084 <txptr>
 1001102:	10013637          	lui	a2,0x10013
 1001106:	03160613          	addi	a2,a2,49 # 10013031 <uarttxbuf+0x31>
 100110a:	00a68023          	sb	a0,0(a3)
 100110e:	0847a683          	lw	a3,132(a5)
 1001112:	0685                	addi	a3,a3,1
 1001114:	02d66a63          	bltu	a2,a3,1001148 <uart_txChar+0x72>
 1001118:	08d7a223          	sw	a3,132(a5)
 100111c:	0847c603          	lbu	a2,132(a5)
 1001120:	100086b7          	lui	a3,0x10008
 1001124:	06c68f23          	sb	a2,126(a3) # 1000807e <_sidata+0xf0038ba>
 1001128:	0857c783          	lbu	a5,133(a5)
 100112c:	06f68fa3          	sb	a5,127(a3)
 1001130:	08875783          	lhu	a5,136(a4)
 1001134:	17fd                	addi	a5,a5,-1
 1001136:	07c2                	slli	a5,a5,0x10
 1001138:	83c1                	srli	a5,a5,0x10
 100113a:	08f71423          	sh	a5,136(a4)
 100113e:	00079463          	bnez	a5,1001146 <uart_txChar+0x70>
 1001142:	30046073          	csrsi	mstatus,8
 1001146:	8082                	ret
 1001148:	100136b7          	lui	a3,0x10013
 100114c:	00068693          	mv	a3,a3
 1001150:	b7e1                	j	1001118 <uart_txChar+0x42>

01001152 <init_debugUart>:
init_debugUart():
 1001152:	773022ef          	jal	t0,10040c4 <__riscv_save_0>
 1001156:	100087b7          	lui	a5,0x10008
 100115a:	0437c703          	lbu	a4,67(a5) # 10008043 <_sidata+0xf00387f>
 100115e:	10013637          	lui	a2,0x10013
 1001162:	00060613          	mv	a2,a2
 1001166:	00176713          	ori	a4,a4,1
 100116a:	04e781a3          	sb	a4,67(a5)
 100116e:	0517c703          	lbu	a4,81(a5)
 1001172:	0ff67693          	andi	a3,a2,255
 1001176:	07f77713          	andi	a4,a4,127
 100117a:	04e788a3          	sb	a4,81(a5)
 100117e:	4731                	li	a4,12
 1001180:	08e784a3          	sb	a4,137(a5)
 1001184:	03400713          	li	a4,52
 1001188:	06e78923          	sb	a4,114(a5)
 100118c:	f8000713          	li	a4,-128
 1001190:	06e789a3          	sb	a4,115(a5)
 1001194:	01061713          	slli	a4,a2,0x10
 1001198:	8341                	srli	a4,a4,0x10
 100119a:	06d78d23          	sb	a3,122(a5)
 100119e:	00875593          	srli	a1,a4,0x8
 10011a2:	06b78da3          	sb	a1,123(a5)
 10011a6:	03170713          	addi	a4,a4,49
 10011aa:	06d78f23          	sb	a3,126(a5)
 10011ae:	0742                	slli	a4,a4,0x10
 10011b0:	03168693          	addi	a3,a3,49 # 10013031 <uarttxbuf+0x31>
 10011b4:	06b78fa3          	sb	a1,127(a5)
 10011b8:	0ff6f693          	andi	a3,a3,255
 10011bc:	8341                	srli	a4,a4,0x10
 10011be:	06d78e23          	sb	a3,124(a5)
 10011c2:	8321                	srli	a4,a4,0x8
 10011c4:	06e78ea3          	sb	a4,125(a5)
 10011c8:	10013737          	lui	a4,0x10013
 10011cc:	03470713          	addi	a4,a4,52 # 10013034 <uartrxbuf>
 10011d0:	0ff77693          	andi	a3,a4,255
 10011d4:	0742                	slli	a4,a4,0x10
 10011d6:	8341                	srli	a4,a4,0x10
 10011d8:	06d78a23          	sb	a3,116(a5)
 10011dc:	00875593          	srli	a1,a4,0x8
 10011e0:	06b78aa3          	sb	a1,117(a5)
 10011e4:	0705                	addi	a4,a4,1
 10011e6:	06d78c23          	sb	a3,120(a5)
 10011ea:	0742                	slli	a4,a4,0x10
 10011ec:	0685                	addi	a3,a3,1
 10011ee:	06b78ca3          	sb	a1,121(a5)
 10011f2:	0ff6f693          	andi	a3,a3,255
 10011f6:	8341                	srli	a4,a4,0x10
 10011f8:	06d78b23          	sb	a3,118(a5)
 10011fc:	8321                	srli	a4,a4,0x8
 10011fe:	06e78ba3          	sb	a4,119(a5)
 1001202:	f8100713          	li	a4,-127
 1001206:	06e788a3          	sb	a4,113(a5)
 100120a:	100107b7          	lui	a5,0x10010
 100120e:	08c7a223          	sw	a2,132(a5) # 10010084 <txptr>
 1001212:	2089                	jal	1001254 <init_print_log>
 1001214:	6d50206f          	j	10040e8 <__riscv_restore_0>

01001218 <debugUart_pollTx>:
debugUart_pollTx():
 1001218:	6ad022ef          	jal	t0,10040c4 <__riscv_save_0>
 100121c:	2aad                	jal	1001396 <print_log_to_uart>
 100121e:	6cb0206f          	j	10040e8 <__riscv_restore_0>

01001222 <yichip_debug_uart_protocol>:
yichip_debug_uart_protocol():
 1001222:	faa00793          	li	a5,-86
 1001226:	00f60023          	sb	a5,0(a2) # 10013000 <uarttxbuf>
 100122a:	00a600a3          	sb	a0,1(a2)
 100122e:	00b60123          	sb	a1,2(a2)
 1001232:	02e00713          	li	a4,46
 1001236:	0ff5f793          	andi	a5,a1,255
 100123a:	00b77463          	bgeu	a4,a1,1001242 <yichip_debug_uart_protocol+0x20>
 100123e:	02e00793          	li	a5,46
 1001242:	963e                	add	a2,a2,a5
 1001244:	fbb00713          	li	a4,-69
 1001248:	00e601a3          	sb	a4,3(a2)
 100124c:	0791                	addi	a5,a5,4
 100124e:	00f68023          	sb	a5,0(a3)
 1001252:	8082                	ret

01001254 <init_print_log>:
init_print_log():
 1001254:	657022ef          	jal	t0,10040aa <__riscv_save_4>
 1001258:	100047b7          	lui	a5,0x10004
 100125c:	4cc7c683          	lbu	a3,1228(a5) # 100044cc <_sidata+0xefffd08>
 1001260:	4cd7c503          	lbu	a0,1229(a5)
 1001264:	4ce7c703          	lbu	a4,1230(a5)
 1001268:	0522                	slli	a0,a0,0x8
 100126a:	0742                	slli	a4,a4,0x10
 100126c:	8d59                	or	a0,a0,a4
 100126e:	8d55                	or	a0,a0,a3
 1001270:	10010737          	lui	a4,0x10010
 1001274:	100006b7          	lui	a3,0x10000
 1001278:	03870713          	addi	a4,a4,56 # 10010038 <_edata>
 100127c:	8d55                	or	a0,a0,a3
 100127e:	c308                	sw	a0,0(a4)
 1001280:	4ba7c583          	lbu	a1,1210(a5)
 1001284:	4bb7c403          	lbu	s0,1211(a5)
 1001288:	4bc7c603          	lbu	a2,1212(a5)
 100128c:	0422                	slli	s0,s0,0x8
 100128e:	0642                	slli	a2,a2,0x10
 1001290:	8c51                	or	s0,s0,a2
 1001292:	8c4d                	or	s0,s0,a1
 1001294:	8c55                	or	s0,s0,a3
 1001296:	c340                	sw	s0,4(a4)
 1001298:	4bd7c583          	lbu	a1,1213(a5)
 100129c:	4be7ca83          	lbu	s5,1214(a5)
 10012a0:	4bf7c603          	lbu	a2,1215(a5)
 10012a4:	0aa2                	slli	s5,s5,0x8
 10012a6:	0642                	slli	a2,a2,0x10
 10012a8:	00caeab3          	or	s5,s5,a2
 10012ac:	00baeab3          	or	s5,s5,a1
 10012b0:	00daeab3          	or	s5,s5,a3
 10012b4:	01572423          	sw	s5,8(a4)
 10012b8:	4c07c583          	lbu	a1,1216(a5)
 10012bc:	4c17ca03          	lbu	s4,1217(a5)
 10012c0:	4c27c603          	lbu	a2,1218(a5)
 10012c4:	0a22                	slli	s4,s4,0x8
 10012c6:	0642                	slli	a2,a2,0x10
 10012c8:	00ca6a33          	or	s4,s4,a2
 10012cc:	00ba6a33          	or	s4,s4,a1
 10012d0:	00da6a33          	or	s4,s4,a3
 10012d4:	01472623          	sw	s4,12(a4)
 10012d8:	4c37c583          	lbu	a1,1219(a5)
 10012dc:	4c47c983          	lbu	s3,1220(a5)
 10012e0:	4c57c603          	lbu	a2,1221(a5)
 10012e4:	09a2                	slli	s3,s3,0x8
 10012e6:	0642                	slli	a2,a2,0x10
 10012e8:	00c9e9b3          	or	s3,s3,a2
 10012ec:	00b9e9b3          	or	s3,s3,a1
 10012f0:	00d9e9b3          	or	s3,s3,a3
 10012f4:	01372823          	sw	s3,16(a4)
 10012f8:	4c67c583          	lbu	a1,1222(a5)
 10012fc:	4c77c903          	lbu	s2,1223(a5)
 1001300:	4c87c603          	lbu	a2,1224(a5)
 1001304:	0922                	slli	s2,s2,0x8
 1001306:	0642                	slli	a2,a2,0x10
 1001308:	00c96933          	or	s2,s2,a2
 100130c:	00b96933          	or	s2,s2,a1
 1001310:	00d96933          	or	s2,s2,a3
 1001314:	01272a23          	sw	s2,20(a4)
 1001318:	4c97c583          	lbu	a1,1225(a5)
 100131c:	4ca7c483          	lbu	s1,1226(a5)
 1001320:	4cb7c603          	lbu	a2,1227(a5)
 1001324:	04a2                	slli	s1,s1,0x8
 1001326:	0642                	slli	a2,a2,0x10
 1001328:	8cd1                	or	s1,s1,a2
 100132a:	8ccd                	or	s1,s1,a1
 100132c:	8cd5                	or	s1,s1,a3
 100132e:	cf04                	sw	s1,24(a4)
 1001330:	4cf7c303          	lbu	t1,1231(a5)
 1001334:	4d07c603          	lbu	a2,1232(a5)
 1001338:	4d17c803          	lbu	a6,1233(a5)
 100133c:	4cc7c883          	lbu	a7,1228(a5)
 1001340:	4cd7c703          	lbu	a4,1229(a5)
 1001344:	4ce7c583          	lbu	a1,1230(a5)
 1001348:	0842                	slli	a6,a6,0x10
 100134a:	00871793          	slli	a5,a4,0x8
 100134e:	0622                	slli	a2,a2,0x8
 1001350:	01059713          	slli	a4,a1,0x10
 1001354:	01066633          	or	a2,a2,a6
 1001358:	8fd9                	or	a5,a5,a4
 100135a:	00666633          	or	a2,a2,t1
 100135e:	0117e7b3          	or	a5,a5,a7
 1001362:	8fd5                	or	a5,a5,a3
 1001364:	8e55                	or	a2,a2,a3
 1001366:	8e1d                	sub	a2,a2,a5
 1001368:	4791                	li	a5,4
 100136a:	02f64633          	div	a2,a2,a5
 100136e:	4581                	li	a1,0
 1001370:	060a                	slli	a2,a2,0x2
 1001372:	663020ef          	jal	ra,10041d4 <memset>
 1001376:	000a8023          	sb	zero,0(s5)
 100137a:	000a0023          	sb	zero,0(s4)
 100137e:	00098023          	sb	zero,0(s3)
 1001382:	00091023          	sh	zero,0(s2)
 1001386:	00049023          	sh	zero,0(s1)
 100138a:	05f00793          	li	a5,95
 100138e:	00f40023          	sb	a5,0(s0)
 1001392:	54d0206f          	j	10040de <__riscv_restore_4>

01001396 <print_log_to_uart>:
print_log_to_uart():
 1001396:	507022ef          	jal	t0,100409c <__riscv_save_10>
 100139a:	100109b7          	lui	s3,0x10010
 100139e:	03898793          	addi	a5,s3,56 # 10010038 <_edata>
 10013a2:	7139                	addi	sp,sp,-64
 10013a4:	0147ab03          	lw	s6,20(a5)
 10013a8:	4f98                	lw	a4,24(a5)
 10013aa:	000105a3          	sb	zero,11(sp)
 10013ae:	30047073          	csrci	mstatus,8
 10013b2:	100104b7          	lui	s1,0x10010
 10013b6:	0884d783          	lhu	a5,136(s1) # 10010088 <gOsEnterCriticalCnt>
 10013ba:	4581                	li	a1,0
 10013bc:	03898993          	addi	s3,s3,56
 10013c0:	0785                	addi	a5,a5,1
 10013c2:	08f49423          	sh	a5,136(s1)
 10013c6:	00075a83          	lhu	s5,0(a4)
 10013ca:	000b5403          	lhu	s0,0(s6)
 10013ce:	03000c13          	li	s8,48
 10013d2:	0ac2                	slli	s5,s5,0x10
 10013d4:	0442                	slli	s0,s0,0x10
 10013d6:	010ada93          	srli	s5,s5,0x10
 10013da:	8041                	srli	s0,s0,0x10
 10013dc:	10004937          	lui	s2,0x10004
 10013e0:	10000bb7          	lui	s7,0x10000
 10013e4:	01059713          	slli	a4,a1,0x10
 10013e8:	8341                	srli	a4,a4,0x10
 10013ea:	03541b63          	bne	s0,s5,1001420 <print_log_to_uart+0x8a>
 10013ee:	0884d783          	lhu	a5,136(s1)
 10013f2:	17fd                	addi	a5,a5,-1
 10013f4:	07c2                	slli	a5,a5,0x10
 10013f6:	83c1                	srli	a5,a5,0x10
 10013f8:	08f49423          	sh	a5,136(s1)
 10013fc:	08078763          	beqz	a5,100148a <print_log_to_uart+0xf4>
 1001400:	00070d63          	beqz	a4,100141a <print_log_to_uart+0x84>
 1001404:	0ff5f593          	andi	a1,a1,255
 1001408:	4501                	li	a0,0
 100140a:	00b10693          	addi	a3,sp,11
 100140e:	0070                	addi	a2,sp,12
 1001410:	3d09                	jal	1001222 <yichip_debug_uart_protocol>
 1001412:	00b14583          	lbu	a1,11(sp)
 1001416:	0068                	addi	a0,sp,12
 1001418:	314d                	jal	10010ba <uart_txBuffer>
 100141a:	6121                	addi	sp,sp,64
 100141c:	4b90206f          	j	10040d4 <__riscv_restore_10>
 1001420:	00458a13          	addi	s4,a1,4 # 2004 <__EN_MIE-0xffe07a>
 1001424:	fd8a05e3          	beq	s4,s8,10013ee <print_log_to_uart+0x58>
 1001428:	0009a583          	lw	a1,0(s3)
 100142c:	00241793          	slli	a5,s0,0x2
 1001430:	4611                	li	a2,4
 1001432:	95be                	add	a1,a1,a5
 1001434:	00b10793          	addi	a5,sp,11
 1001438:	01478533          	add	a0,a5,s4
 100143c:	26b1                	jal	1001788 <xmemcpy>
 100143e:	4cf94503          	lbu	a0,1231(s2) # 100044cf <_sidata+0xefffd0b>
 1001442:	4d094783          	lbu	a5,1232(s2)
 1001446:	4d194603          	lbu	a2,1233(s2)
 100144a:	4cc94583          	lbu	a1,1228(s2)
 100144e:	4cd94703          	lbu	a4,1229(s2)
 1001452:	4ce94683          	lbu	a3,1230(s2)
 1001456:	07a2                	slli	a5,a5,0x8
 1001458:	0642                	slli	a2,a2,0x10
 100145a:	0722                	slli	a4,a4,0x8
 100145c:	06c2                	slli	a3,a3,0x10
 100145e:	8fd1                	or	a5,a5,a2
 1001460:	8f55                	or	a4,a4,a3
 1001462:	8f4d                	or	a4,a4,a1
 1001464:	8fc9                	or	a5,a5,a0
 1001466:	01776733          	or	a4,a4,s7
 100146a:	0177e7b3          	or	a5,a5,s7
 100146e:	8f99                	sub	a5,a5,a4
 1001470:	4711                	li	a4,4
 1001472:	02e7c7b3          	div	a5,a5,a4
 1001476:	0405                	addi	s0,s0,1
 1001478:	85d2                	mv	a1,s4
 100147a:	02f467b3          	rem	a5,s0,a5
 100147e:	01079413          	slli	s0,a5,0x10
 1001482:	8041                	srli	s0,s0,0x10
 1001484:	008b1023          	sh	s0,0(s6)
 1001488:	bfb1                	j	10013e4 <print_log_to_uart+0x4e>
 100148a:	30046073          	csrsi	mstatus,8
 100148e:	bf8d                	j	1001400 <print_log_to_uart+0x6a>

01001490 <print_string_to_uart>:
print_string_to_uart():
 1001490:	04058363          	beqz	a1,10014d6 <print_string_to_uart+0x46>
 1001494:	431022ef          	jal	t0,10040c4 <__riscv_save_0>
 1001498:	0fb00793          	li	a5,251
 100149c:	1141                	addi	sp,sp,-16
 100149e:	842e                	mv	s0,a1
 10014a0:	00b7d463          	bge	a5,a1,10014a8 <print_string_to_uart+0x18>
 10014a4:	0fb00413          	li	s0,251
 10014a8:	2aa00793          	li	a5,682
 10014ac:	84aa                	mv	s1,a0
 10014ae:	458d                	li	a1,3
 10014b0:	0068                	addi	a0,sp,12
 10014b2:	00f11623          	sh	a5,12(sp)
 10014b6:	00810723          	sb	s0,14(sp)
 10014ba:	3101                	jal	10010ba <uart_txBuffer>
 10014bc:	85a2                	mv	a1,s0
 10014be:	8526                	mv	a0,s1
 10014c0:	3eed                	jal	10010ba <uart_txBuffer>
 10014c2:	fbb00793          	li	a5,-69
 10014c6:	0068                	addi	a0,sp,12
 10014c8:	4585                	li	a1,1
 10014ca:	00f10623          	sb	a5,12(sp)
 10014ce:	36f5                	jal	10010ba <uart_txBuffer>
 10014d0:	0141                	addi	sp,sp,16
 10014d2:	4170206f          	j	10040e8 <__riscv_restore_0>
 10014d6:	8082                	ret

010014d8 <print_string>:
print_string():
 10014d8:	4781                	li	a5,0
 10014da:	0c700813          	li	a6,199
 10014de:	00d7c363          	blt	a5,a3,10014e4 <print_string+0xc>
 10014e2:	8082                	ret
 10014e4:	0005c703          	lbu	a4,0(a1)
 10014e8:	fee86de3          	bltu	a6,a4,10014e2 <print_string+0xa>
 10014ec:	00f608b3          	add	a7,a2,a5
 10014f0:	0008c883          	lbu	a7,0(a7)
 10014f4:	972a                	add	a4,a4,a0
 10014f6:	0785                	addi	a5,a5,1
 10014f8:	01170023          	sb	a7,0(a4)
 10014fc:	0005c703          	lbu	a4,0(a1)
 1001500:	0ff7f793          	andi	a5,a5,255
 1001504:	0705                	addi	a4,a4,1
 1001506:	00e58023          	sb	a4,0(a1)
 100150a:	bfd1                	j	10014de <print_string+0x6>

0100150c <print_string_log_raw>:
print_string_log_raw():
 100150c:	391022ef          	jal	t0,100409c <__riscv_save_10>
 1001510:	1101                	addi	sp,sp,-32
 1001512:	01004ab7          	lui	s5,0x1004
 1001516:	01004b37          	lui	s6,0x1004
 100151a:	89aa                	mv	s3,a0
 100151c:	8932                	mv	s2,a2
 100151e:	84b6                	mv	s1,a3
 1001520:	4a01                	li	s4,0
 1001522:	3d95                	jal	1001396 <print_log_to_uart>
 1001524:	2a4a8a93          	addi	s5,s5,676 # 10042a4 <memset+0xd0>
 1001528:	000105a3          	sb	zero,11(sp)
 100152c:	290b0b13          	addi	s6,s6,656 # 1004290 <memset+0xbc>
 1001530:	01004bb7          	lui	s7,0x1004
 1001534:	02500c13          	li	s8,37
 1001538:	00090783          	lb	a5,0(s2)
 100153c:	08079463          	bnez	a5,10015c4 <print_string_log_raw+0xb8>
 1001540:	00b14503          	lbu	a0,11(sp)
 1001544:	6105                	addi	sp,sp,32
 1001546:	38f0206f          	j	10040d4 <__riscv_restore_10>
 100154a:	0685                	addi	a3,a3,1
 100154c:	00d90433          	add	s0,s2,a3
 1001550:	00040783          	lb	a5,0(s0)
 1001554:	01878463          	beq	a5,s8,100155c <print_string_log_raw+0x50>
 1001558:	fe0799e3          	bnez	a5,100154a <print_string_log_raw+0x3e>
 100155c:	00068763          	beqz	a3,100156a <print_string_log_raw+0x5e>
 1001560:	864a                	mv	a2,s2
 1001562:	00b10593          	addi	a1,sp,11
 1001566:	854e                	mv	a0,s3
 1001568:	3f85                	jal	10014d8 <print_string>
 100156a:	00040783          	lb	a5,0(s0)
 100156e:	8922                	mv	s2,s0
 1001570:	fd8794e3          	bne	a5,s8,1001538 <print_string_log_raw+0x2c>
 1001574:	00140613          	addi	a2,s0,1
 1001578:	02000813          	li	a6,32
 100157c:	4401                	li	s0,0
 100157e:	06400713          	li	a4,100
 1001582:	03900513          	li	a0,57
 1001586:	03000693          	li	a3,48
 100158a:	45a9                	li	a1,10
 100158c:	00160913          	addi	s2,a2,1
 1001590:	fff90783          	lb	a5,-1(s2)
 1001594:	0ae78b63          	beq	a5,a4,100164a <print_string_log_raw+0x13e>
 1001598:	04f74b63          	blt	a4,a5,10015ee <print_string_log_raw+0xe2>
 100159c:	02f54663          	blt	a0,a5,10015c8 <print_string_log_raw+0xbc>
 10015a0:	0ad7dd63          	bge	a5,a3,100165a <print_string_log_raw+0x14e>
 10015a4:	02500713          	li	a4,37
 10015a8:	4685                	li	a3,1
 10015aa:	00e78763          	beq	a5,a4,10015b8 <print_string_log_raw+0xac>
 10015ae:	01004637          	lui	a2,0x1004
 10015b2:	4695                	li	a3,5
 10015b4:	2b860613          	addi	a2,a2,696 # 10042b8 <memset+0xe4>
 10015b8:	00b10593          	addi	a1,sp,11
 10015bc:	854e                	mv	a0,s3
 10015be:	3f29                	jal	10014d8 <print_string>
 10015c0:	8c26                	mv	s8,s1
 10015c2:	a895                	j	1001636 <print_string_log_raw+0x12a>
 10015c4:	4681                	li	a3,0
 10015c6:	b759                	j	100154c <print_string_log_raw+0x40>
 10015c8:	05800713          	li	a4,88
 10015cc:	14e78063          	beq	a5,a4,100170c <print_string_log_raw+0x200>
 10015d0:	06300713          	li	a4,99
 10015d4:	fce79de3          	bne	a5,a4,10015ae <print_string_log_raw+0xa2>
 10015d8:	409c                	lw	a5,0(s1)
 10015da:	00448c13          	addi	s8,s1,4
 10015de:	4685                	li	a3,1
 10015e0:	c63e                	sw	a5,12(sp)
 10015e2:	0070                	addi	a2,sp,12
 10015e4:	00b10593          	addi	a1,sp,11
 10015e8:	854e                	mv	a0,s3
 10015ea:	35fd                	jal	10014d8 <print_string>
 10015ec:	a0a9                	j	1001636 <print_string_log_raw+0x12a>
 10015ee:	07500713          	li	a4,117
 10015f2:	10e78963          	beq	a5,a4,1001704 <print_string_log_raw+0x1f8>
 10015f6:	04f74263          	blt	a4,a5,100163a <print_string_log_raw+0x12e>
 10015fa:	07000713          	li	a4,112
 10015fe:	12e78063          	beq	a5,a4,100171e <print_string_log_raw+0x212>
 1001602:	07300713          	li	a4,115
 1001606:	fae794e3          	bne	a5,a4,10015ae <print_string_log_raw+0xa2>
 100160a:	00448c13          	addi	s8,s1,4
 100160e:	4090                	lw	a2,0(s1)
 1001610:	4481                	li	s1,0
 1001612:	009607b3          	add	a5,a2,s1
 1001616:	00078783          	lb	a5,0(a5)
 100161a:	0c079b63          	bnez	a5,10016f0 <print_string_log_raw+0x1e4>
 100161e:	86a6                	mv	a3,s1
 1001620:	00b10593          	addi	a1,sp,11
 1001624:	854e                	mv	a0,s3
 1001626:	3d4d                	jal	10014d8 <print_string>
 1001628:	0084f763          	bgeu	s1,s0,1001636 <print_string_log_raw+0x12a>
 100162c:	8c05                	sub	s0,s0,s1
 100162e:	54fd                	li	s1,-1
 1001630:	147d                	addi	s0,s0,-1
 1001632:	0c941163          	bne	s0,s1,10016f4 <print_string_log_raw+0x1e8>
 1001636:	84e2                	mv	s1,s8
 1001638:	bdf5                	j	1001534 <print_string_log_raw+0x28>
 100163a:	07800713          	li	a4,120
 100163e:	0ee78063          	beq	a5,a4,100171e <print_string_log_raw+0x212>
 1001642:	07a00713          	li	a4,122
 1001646:	f6e794e3          	bne	a5,a4,10015ae <print_string_log_raw+0xa2>
 100164a:	409c                	lw	a5,0(s1)
 100164c:	00448c13          	addi	s8,s1,4
 1001650:	0207c263          	bltz	a5,1001674 <print_string_log_raw+0x168>
 1001654:	c63e                	sw	a5,12(sp)
 1001656:	4701                	li	a4,0
 1001658:	a015                	j	100167c <print_string_log_raw+0x170>
 100165a:	00d79663          	bne	a5,a3,1001666 <print_string_log_raw+0x15a>
 100165e:	00041463          	bnez	s0,1001666 <print_string_log_raw+0x15a>
 1001662:	03000813          	li	a6,48
 1001666:	02b40433          	mul	s0,s0,a1
 100166a:	864a                	mv	a2,s2
 100166c:	fd040413          	addi	s0,s0,-48
 1001670:	943e                	add	s0,s0,a5
 1001672:	bf29                	j	100158c <print_string_log_raw+0x80>
 1001674:	40f007b3          	neg	a5,a5
 1001678:	c63e                	sw	a5,12(sp)
 100167a:	4705                	li	a4,1
 100167c:	47a9                	li	a5,10
 100167e:	48b2                	lw	a7,12(sp)
 1001680:	4605                	li	a2,1
 1001682:	02f606b3          	mul	a3,a2,a5
 1001686:	00d8e663          	bltu	a7,a3,1001692 <print_string_log_raw+0x186>
 100168a:	02f6d5b3          	divu	a1,a3,a5
 100168e:	08c58f63          	beq	a1,a2,100172c <print_string_log_raw+0x220>
 1001692:	4681                	li	a3,0
 1001694:	00070d63          	beqz	a4,10016ae <print_string_log_raw+0x1a2>
 1001698:	03000593          	li	a1,48
 100169c:	147d                	addi	s0,s0,-1
 100169e:	00b81863          	bne	a6,a1,10016ae <print_string_log_raw+0x1a2>
 10016a2:	02d00693          	li	a3,45
 10016a6:	00d10823          	sb	a3,16(sp)
 10016aa:	86ba                	mv	a3,a4
 10016ac:	4701                	li	a4,0
 10016ae:	ffe40593          	addi	a1,s0,-2
 10016b2:	4535                	li	a0,13
 10016b4:	00b56f63          	bltu	a0,a1,10016d2 <print_string_log_raw+0x1c6>
 10016b8:	0808                	addi	a0,sp,16
 10016ba:	fff40593          	addi	a1,s0,-1
 10016be:	9536                	add	a0,a0,a3
 10016c0:	01050023          	sb	a6,0(a0)
 10016c4:	15fd                	addi	a1,a1,-1
 10016c6:	0505                	addi	a0,a0,1
 10016c8:	fe059ce3          	bnez	a1,10016c0 <print_string_log_raw+0x1b4>
 10016cc:	9436                	add	s0,s0,a3
 10016ce:	fff40693          	addi	a3,s0,-1
 10016d2:	00070963          	beqz	a4,10016e4 <print_string_log_raw+0x1d8>
 10016d6:	1018                	addi	a4,sp,32
 10016d8:	9736                	add	a4,a4,a3
 10016da:	02d00593          	li	a1,45
 10016de:	feb70823          	sb	a1,-16(a4)
 10016e2:	0685                	addi	a3,a3,1
 10016e4:	07800593          	li	a1,120
 10016e8:	04061563          	bnez	a2,1001732 <print_string_log_raw+0x226>
 10016ec:	0810                	addi	a2,sp,16
 10016ee:	bddd                	j	10015e4 <print_string_log_raw+0xd8>
 10016f0:	0485                	addi	s1,s1,1
 10016f2:	b705                	j	1001612 <print_string_log_raw+0x106>
 10016f4:	4685                	li	a3,1
 10016f6:	28cb8613          	addi	a2,s7,652 # 100428c <memset+0xb8>
 10016fa:	00b10593          	addi	a1,sp,11
 10016fe:	854e                	mv	a0,s3
 1001700:	3be1                	jal	10014d8 <print_string>
 1001702:	b73d                	j	1001630 <print_string_log_raw+0x124>
 1001704:	00448c13          	addi	s8,s1,4
 1001708:	409c                	lw	a5,0(s1)
 100170a:	b7a9                	j	1001654 <print_string_log_raw+0x148>
 100170c:	409c                	lw	a5,0(s1)
 100170e:	00448c13          	addi	s8,s1,4
 1001712:	05800a13          	li	s4,88
 1001716:	c63e                	sw	a5,12(sp)
 1001718:	4701                	li	a4,0
 100171a:	47c1                	li	a5,16
 100171c:	b78d                	j	100167e <print_string_log_raw+0x172>
 100171e:	409c                	lw	a5,0(s1)
 1001720:	00448c13          	addi	s8,s1,4
 1001724:	07800a13          	li	s4,120
 1001728:	c63e                	sw	a5,12(sp)
 100172a:	b7fd                	j	1001718 <print_string_log_raw+0x20c>
 100172c:	147d                	addi	s0,s0,-1
 100172e:	8636                	mv	a2,a3
 1001730:	bf89                	j	1001682 <print_string_log_raw+0x176>
 1001732:	02c8d733          	divu	a4,a7,a2
 1001736:	02f77733          	remu	a4,a4,a5
 100173a:	00ba1d63          	bne	s4,a1,1001754 <print_string_log_raw+0x248>
 100173e:	975a                	add	a4,a4,s6
 1001740:	00070703          	lb	a4,0(a4)
 1001744:	0808                	addi	a0,sp,16
 1001746:	9536                	add	a0,a0,a3
 1001748:	00e50023          	sb	a4,0(a0)
 100174c:	0685                	addi	a3,a3,1
 100174e:	02f65633          	divu	a2,a2,a5
 1001752:	bf59                	j	10016e8 <print_string_log_raw+0x1dc>
 1001754:	9756                	add	a4,a4,s5
 1001756:	b7ed                	j	1001740 <print_string_log_raw+0x234>

01001758 <print_string_log>:
print_string_log():
 1001758:	7111                	addi	sp,sp,-256
 100175a:	d3ae                	sw	a1,228(sp)
 100175c:	d5b2                	sw	a2,232(sp)
 100175e:	d7b6                	sw	a3,236(sp)
 1001760:	862a                	mv	a2,a0
 1001762:	11d4                	addi	a3,sp,228
 1001764:	0c800593          	li	a1,200
 1001768:	0028                	addi	a0,sp,8
 100176a:	cf86                	sw	ra,220(sp)
 100176c:	d9ba                	sw	a4,240(sp)
 100176e:	dbbe                	sw	a5,244(sp)
 1001770:	ddc2                	sw	a6,248(sp)
 1001772:	dfc6                	sw	a7,252(sp)
 1001774:	c236                	sw	a3,4(sp)
 1001776:	3b59                	jal	100150c <print_string_log_raw>
 1001778:	00050563          	beqz	a0,1001782 <print_string_log+0x2a>
 100177c:	85aa                	mv	a1,a0
 100177e:	0028                	addi	a0,sp,8
 1001780:	3b01                	jal	1001490 <print_string_to_uart>
 1001782:	40fe                	lw	ra,220(sp)
 1001784:	6111                	addi	sp,sp,256
 1001786:	8082                	ret

01001788 <xmemcpy>:
xmemcpy():
 1001788:	4781                	li	a5,0
 100178a:	10000837          	lui	a6,0x10000
 100178e:	00c7c363          	blt	a5,a2,1001794 <xmemcpy+0xc>
 1001792:	8082                	ret
 1001794:	00f586b3          	add	a3,a1,a5
 1001798:	0106e6b3          	or	a3,a3,a6
 100179c:	0006c683          	lbu	a3,0(a3) # 10000000 <_sidata+0xeffb83c>
 10017a0:	00f50733          	add	a4,a0,a5
 10017a4:	01076733          	or	a4,a4,a6
 10017a8:	0ff6f693          	andi	a3,a3,255
 10017ac:	00d70023          	sb	a3,0(a4)
 10017b0:	0785                	addi	a5,a5,1
 10017b2:	bff1                	j	100178e <xmemcpy+0x6>

010017b4 <hexchar2hex>:
hexchar2hex():
 10017b4:	0ff57793          	andi	a5,a0,255
 10017b8:	fd078513          	addi	a0,a5,-48
 10017bc:	0ff57513          	andi	a0,a0,255
 10017c0:	4725                	li	a4,9
 10017c2:	00a77d63          	bgeu	a4,a0,10017dc <hexchar2hex+0x28>
 10017c6:	f9f78713          	addi	a4,a5,-97
 10017ca:	0ff77713          	andi	a4,a4,255
 10017ce:	4695                	li	a3,5
 10017d0:	00e6e763          	bltu	a3,a4,10017de <hexchar2hex+0x2a>
 10017d4:	fa978793          	addi	a5,a5,-87
 10017d8:	0ff7f513          	andi	a0,a5,255
 10017dc:	8082                	ret
 10017de:	fbf78713          	addi	a4,a5,-65
 10017e2:	0ff77713          	andi	a4,a4,255
 10017e6:	0ff00513          	li	a0,255
 10017ea:	fee6e9e3          	bltu	a3,a4,10017dc <hexchar2hex+0x28>
 10017ee:	fc978793          	addi	a5,a5,-55
 10017f2:	b7dd                	j	10017d8 <hexchar2hex+0x24>

010017f4 <_assert_handler>:
_assert_handler():
 10017f4:	a001                	j	10017f4 <_assert_handler>

010017f6 <SetLockLpmWriteReg>:
SetLockLpmWriteReg():
 10017f6:	100057b7          	lui	a5,0x10005
 10017fa:	4705                	li	a4,1
 10017fc:	bee78d23          	sb	a4,-1030(a5) # 10004bfa <_sidata+0xf000436>
 1001800:	03500713          	li	a4,53
 1001804:	bee78e23          	sb	a4,-1028(a5)
 1001808:	03500693          	li	a3,53
 100180c:	10005737          	lui	a4,0x10005
 1001810:	bfb74783          	lbu	a5,-1029(a4) # 10004bfb <_sidata+0xf000437>
 1001814:	0ff7f793          	andi	a5,a5,255
 1001818:	00078663          	beqz	a5,1001824 <SetLockLpmWriteReg+0x2e>
 100181c:	bfc74783          	lbu	a5,-1028(a4)
 1001820:	fef688e3          	beq	a3,a5,1001810 <SetLockLpmWriteReg+0x1a>
 1001824:	8082                	ret

01001826 <SetReleaseLpmWriteReg>:
SetReleaseLpmWriteReg():
 1001826:	100057b7          	lui	a5,0x10005
 100182a:	be078d23          	sb	zero,-1030(a5) # 10004bfa <_sidata+0xf000436>
 100182e:	8082                	ret

01001830 <CoreReg_LpmWriteCommon>:
CoreReg_LpmWriteCommon():
 1001830:	095022ef          	jal	t0,10040c4 <__riscv_save_0>
 1001834:	1141                	addi	sp,sp,-16
 1001836:	c62a                	sw	a0,12(sp)
 1001838:	c42e                	sw	a1,8(sp)
 100183a:	c232                	sw	a2,4(sp)
 100183c:	30047073          	csrci	mstatus,8
 1001840:	10010437          	lui	s0,0x10010
 1001844:	08845783          	lhu	a5,136(s0) # 10010088 <gOsEnterCriticalCnt>
 1001848:	0785                	addi	a5,a5,1
 100184a:	08f41423          	sh	a5,136(s0)
 100184e:	3765                	jal	10017f6 <SetLockLpmWriteReg>
 1001850:	4532                	lw	a0,12(sp)
 1001852:	100087b7          	lui	a5,0x10008
 1001856:	0ff57713          	andi	a4,a0,255
 100185a:	04e78623          	sb	a4,76(a5) # 1000804c <_sidata+0xf003888>
 100185e:	40855713          	srai	a4,a0,0x8
 1001862:	0ff77713          	andi	a4,a4,255
 1001866:	04e786a3          	sb	a4,77(a5)
 100186a:	41055713          	srai	a4,a0,0x10
 100186e:	0ff77713          	andi	a4,a4,255
 1001872:	04e78723          	sb	a4,78(a5)
 1001876:	8161                	srli	a0,a0,0x18
 1001878:	04a787a3          	sb	a0,79(a5)
 100187c:	45a2                	lw	a1,8(sp)
 100187e:	100007b7          	lui	a5,0x10000
 1001882:	4612                	lw	a2,4(sp)
 1001884:	8ddd                	or	a1,a1,a5
 1001886:	0005c783          	lbu	a5,0(a1)
 100188a:	3e800513          	li	a0,1000
 100188e:	8e5d                	or	a2,a2,a5
 1001890:	00c58023          	sb	a2,0(a1)
 1001894:	208d                	jal	10018f6 <wait_lpodelay>
 1001896:	3f41                	jal	1001826 <SetReleaseLpmWriteReg>
 1001898:	08845783          	lhu	a5,136(s0)
 100189c:	17fd                	addi	a5,a5,-1
 100189e:	07c2                	slli	a5,a5,0x10
 10018a0:	83c1                	srli	a5,a5,0x10
 10018a2:	08f41423          	sh	a5,136(s0)
 10018a6:	00079463          	bnez	a5,10018ae <CoreReg_LpmWriteCommon+0x7e>
 10018aa:	30046073          	csrsi	mstatus,8
 10018ae:	0141                	addi	sp,sp,16
 10018b0:	0390206f          	j	10040e8 <__riscv_restore_0>

010018b4 <CoreReg_LpmWrite2>:
CoreReg_LpmWrite2():
 10018b4:	011022ef          	jal	t0,10040c4 <__riscv_save_0>
 10018b8:	862e                	mv	a2,a1
 10018ba:	65a1                	lui	a1,0x8
 10018bc:	05e5                	addi	a1,a1,25
 10018be:	3f8d                	jal	1001830 <CoreReg_LpmWriteCommon>
 10018c0:	0290206f          	j	10040e8 <__riscv_restore_0>

010018c4 <CoreReg_LpmWrite2IceWdtLongRst>:
CoreReg_LpmWrite2IceWdtLongRst():
 10018c4:	001022ef          	jal	t0,10040c4 <__riscv_save_0>
 10018c8:	08000593          	li	a1,128
 10018cc:	37e5                	jal	10018b4 <CoreReg_LpmWrite2>
 10018ce:	01b0206f          	j	10040e8 <__riscv_restore_0>

010018d2 <CoreReg_LpmGetIceWdtLongRst>:
CoreReg_LpmGetIceWdtLongRst():
 10018d2:	10008737          	lui	a4,0x10008
 10018d6:	3a874603          	lbu	a2,936(a4) # 100083a8 <_sidata+0xf003be4>
 10018da:	3a974783          	lbu	a5,937(a4)
 10018de:	3aa74683          	lbu	a3,938(a4)
 10018e2:	3ab74503          	lbu	a0,939(a4)
 10018e6:	07a2                	slli	a5,a5,0x8
 10018e8:	01069713          	slli	a4,a3,0x10
 10018ec:	8fd9                	or	a5,a5,a4
 10018ee:	8fd1                	or	a5,a5,a2
 10018f0:	0562                	slli	a0,a0,0x18
 10018f2:	8d5d                	or	a0,a0,a5
 10018f4:	8082                	ret

010018f6 <wait_lpodelay>:
wait_lpodelay():
 10018f6:	7ce022ef          	jal	t0,10040c4 <__riscv_save_0>
 10018fa:	842a                	mv	s0,a0
 10018fc:	60d000ef          	jal	ra,1002708 <System_WorkClockGet>
 1001900:	001e87b7          	lui	a5,0x1e8
 1001904:	48078793          	addi	a5,a5,1152 # 1e8480 <__EN_MIE-0xe17bfe>
 1001908:	02f55533          	divu	a0,a0,a5
 100190c:	02850533          	mul	a0,a0,s0
 1001910:	8c9fe0ef          	jal	ra,10001d8 <lpo_delay>
 1001914:	7d40206f          	j	10040e8 <__riscv_restore_0>

01001918 <prvInsertBlockIntoFreeList>:
prvInsertBlockIntoFreeList():
 1001918:	100107b7          	lui	a5,0x10010
 100191c:	06478793          	addi	a5,a5,100 # 10010064 <xStart>
 1001920:	4398                	lw	a4,0(a5)
 1001922:	02a76f63          	bltu	a4,a0,1001960 <prvInsertBlockIntoFreeList+0x48>
 1001926:	43d0                	lw	a2,4(a5)
 1001928:	00c786b3          	add	a3,a5,a2
 100192c:	00d51663          	bne	a0,a3,1001938 <prvInsertBlockIntoFreeList+0x20>
 1001930:	4154                	lw	a3,4(a0)
 1001932:	853e                	mv	a0,a5
 1001934:	96b2                	add	a3,a3,a2
 1001936:	c3d4                	sw	a3,4(a5)
 1001938:	4150                	lw	a2,4(a0)
 100193a:	00c506b3          	add	a3,a0,a2
 100193e:	00d71c63          	bne	a4,a3,1001956 <prvInsertBlockIntoFreeList+0x3e>
 1001942:	100106b7          	lui	a3,0x10010
 1001946:	06c6a683          	lw	a3,108(a3) # 1001006c <pxEnd>
 100194a:	00d70663          	beq	a4,a3,1001956 <prvInsertBlockIntoFreeList+0x3e>
 100194e:	4354                	lw	a3,4(a4)
 1001950:	4318                	lw	a4,0(a4)
 1001952:	96b2                	add	a3,a3,a2
 1001954:	c154                	sw	a3,4(a0)
 1001956:	c118                	sw	a4,0(a0)
 1001958:	00f50363          	beq	a0,a5,100195e <prvInsertBlockIntoFreeList+0x46>
 100195c:	c388                	sw	a0,0(a5)
 100195e:	8082                	ret
 1001960:	87ba                	mv	a5,a4
 1001962:	bf7d                	j	1001920 <prvInsertBlockIntoFreeList+0x8>

01001964 <Memory_Malloc>:
Memory_Malloc():
 1001964:	746022ef          	jal	t0,10040aa <__riscv_save_4>
 1001968:	10010737          	lui	a4,0x10010
 100196c:	05472483          	lw	s1,84(a4) # 10010054 <xFreeBytesRemaining>
 1001970:	052d                	addi	a0,a0,11
 1001972:	ffc57793          	andi	a5,a0,-4
 1001976:	08f4e563          	bltu	s1,a5,1001a00 <Memory_Malloc+0x9c>
 100197a:	89ba                	mv	s3,a4
 100197c:	10010737          	lui	a4,0x10010
 1001980:	06472403          	lw	s0,100(a4) # 10010064 <xStart>
 1001984:	06470713          	addi	a4,a4,100
 1001988:	4054                	lw	a3,4(s0)
 100198a:	00f6f563          	bgeu	a3,a5,1001994 <Memory_Malloc+0x30>
 100198e:	4010                	lw	a2,0(s0)
 1001990:	06061563          	bnez	a2,10019fa <Memory_Malloc+0x96>
 1001994:	10010637          	lui	a2,0x10010
 1001998:	06c62603          	lw	a2,108(a2) # 1001006c <pxEnd>
 100199c:	4901                	li	s2,0
 100199e:	04860b63          	beq	a2,s0,10019f4 <Memory_Malloc+0x90>
 10019a2:	4010                	lw	a2,0(s0)
 10019a4:	00072903          	lw	s2,0(a4)
 10019a8:	c310                	sw	a2,0(a4)
 10019aa:	40f68733          	sub	a4,a3,a5
 10019ae:	46c1                	li	a3,16
 10019b0:	0921                	addi	s2,s2,8
 10019b2:	00e6f763          	bgeu	a3,a4,10019c0 <Memory_Malloc+0x5c>
 10019b6:	00f40533          	add	a0,s0,a5
 10019ba:	c158                	sw	a4,4(a0)
 10019bc:	c05c                	sw	a5,4(s0)
 10019be:	3fa9                	jal	1001918 <prvInsertBlockIntoFreeList>
 10019c0:	4058                	lw	a4,4(s0)
 10019c2:	100106b7          	lui	a3,0x10010
 10019c6:	0586a603          	lw	a2,88(a3) # 10010058 <xMinimumEverFreeBytesRemaining>
 10019ca:	40e487b3          	sub	a5,s1,a4
 10019ce:	04f9aa23          	sw	a5,84(s3)
 10019d2:	00c7f463          	bgeu	a5,a2,10019da <Memory_Malloc+0x76>
 10019d6:	04f6ac23          	sw	a5,88(a3)
 10019da:	800007b7          	lui	a5,0x80000
 10019de:	8f5d                	or	a4,a4,a5
 10019e0:	c058                	sw	a4,4(s0)
 10019e2:	10010737          	lui	a4,0x10010
 10019e6:	05c72783          	lw	a5,92(a4) # 1001005c <xNumberOfSuccessfulAllocations>
 10019ea:	00042023          	sw	zero,0(s0)
 10019ee:	0785                	addi	a5,a5,1
 10019f0:	04f72e23          	sw	a5,92(a4)
 10019f4:	854a                	mv	a0,s2
 10019f6:	6e80206f          	j	10040de <__riscv_restore_4>
 10019fa:	8722                	mv	a4,s0
 10019fc:	8432                	mv	s0,a2
 10019fe:	b769                	j	1001988 <Memory_Malloc+0x24>
 1001a00:	30047073          	csrci	mstatus,8
 1001a04:	10010737          	lui	a4,0x10010
 1001a08:	08875783          	lhu	a5,136(a4) # 10010088 <gOsEnterCriticalCnt>
 1001a0c:	01004637          	lui	a2,0x1004
 1001a10:	01004537          	lui	a0,0x1004
 1001a14:	0785                	addi	a5,a5,1
 1001a16:	2e060613          	addi	a2,a2,736 # 10042e0 <__FUNCTION__.2818>
 1001a1a:	0bd00593          	li	a1,189
 1001a1e:	2c050513          	addi	a0,a0,704 # 10042c0 <memset+0xec>
 1001a22:	08f71423          	sh	a5,136(a4)
 1001a26:	4901                	li	s2,0
 1001a28:	33f1                	jal	10017f4 <_assert_handler>
 1001a2a:	b7e9                	j	10019f4 <Memory_Malloc+0x90>

01001a2c <Memory_Free>:
Memory_Free():
 1001a2c:	04050263          	beqz	a0,1001a70 <Memory_Free+0x44>
 1001a30:	ffc52783          	lw	a5,-4(a0)
 1001a34:	0207de63          	bgez	a5,1001a70 <Memory_Free+0x44>
 1001a38:	0786                	slli	a5,a5,0x1
 1001a3a:	ff852703          	lw	a4,-8(a0)
 1001a3e:	8385                	srli	a5,a5,0x1
 1001a40:	fef52e23          	sw	a5,-4(a0)
 1001a44:	02071663          	bnez	a4,1001a70 <Memory_Free+0x44>
 1001a48:	67c022ef          	jal	t0,10040c4 <__riscv_save_0>
 1001a4c:	100106b7          	lui	a3,0x10010
 1001a50:	0546a703          	lw	a4,84(a3) # 10010054 <xFreeBytesRemaining>
 1001a54:	1561                	addi	a0,a0,-8
 1001a56:	97ba                	add	a5,a5,a4
 1001a58:	04f6aa23          	sw	a5,84(a3)
 1001a5c:	3d75                	jal	1001918 <prvInsertBlockIntoFreeList>
 1001a5e:	10010737          	lui	a4,0x10010
 1001a62:	06072783          	lw	a5,96(a4) # 10010060 <xNumberOfSuccessfulFrees>
 1001a66:	0785                	addi	a5,a5,1
 1001a68:	06f72023          	sw	a5,96(a4)
 1001a6c:	67c0206f          	j	10040e8 <__riscv_restore_0>
 1001a70:	8082                	ret

01001a72 <Memory_InitHeap>:
Memory_InitHeap():
 1001a72:	100107b7          	lui	a5,0x10010
 1001a76:	06478793          	addi	a5,a5,100 # 10010064 <xStart>
 1001a7a:	15e1                	addi	a1,a1,-8
 1001a7c:	0007a223          	sw	zero,4(a5)
 1001a80:	95aa                	add	a1,a1,a0
 1001a82:	c388                	sw	a0,0(a5)
 1001a84:	100107b7          	lui	a5,0x10010
 1001a88:	10010737          	lui	a4,0x10010
 1001a8c:	06b7a623          	sw	a1,108(a5) # 1001006c <pxEnd>
 1001a90:	40a587b3          	sub	a5,a1,a0
 1001a94:	0005a223          	sw	zero,4(a1) # 8004 <__EN_MIE-0xff807a>
 1001a98:	0005a023          	sw	zero,0(a1)
 1001a9c:	04f72c23          	sw	a5,88(a4) # 10010058 <xMinimumEverFreeBytesRemaining>
 1001aa0:	10010737          	lui	a4,0x10010
 1001aa4:	c15c                	sw	a5,4(a0)
 1001aa6:	c10c                	sw	a1,0(a0)
 1001aa8:	04f72a23          	sw	a5,84(a4) # 10010054 <xFreeBytesRemaining>
 1001aac:	8082                	ret

01001aae <ipcRx>:
ipcRx():
 1001aae:	10004637          	lui	a2,0x10004
 1001ab2:	4ac64683          	lbu	a3,1196(a2) # 100044ac <_sidata+0xefffce8>
 1001ab6:	4ad64783          	lbu	a5,1197(a2)
 1001aba:	4ae64703          	lbu	a4,1198(a2)
 1001abe:	10000837          	lui	a6,0x10000
 1001ac2:	07a2                	slli	a5,a5,0x8
 1001ac4:	0742                	slli	a4,a4,0x10
 1001ac6:	8fd9                	or	a5,a5,a4
 1001ac8:	8fd5                	or	a5,a5,a3
 1001aca:	0107e7b3          	or	a5,a5,a6
 1001ace:	0007c883          	lbu	a7,0(a5)
 1001ad2:	4ac64783          	lbu	a5,1196(a2)
 1001ad6:	4ad64683          	lbu	a3,1197(a2)
 1001ada:	4ae64703          	lbu	a4,1198(a2)
 1001ade:	06a2                	slli	a3,a3,0x8
 1001ae0:	0742                	slli	a4,a4,0x10
 1001ae2:	8ed9                	or	a3,a3,a4
 1001ae4:	8edd                	or	a3,a3,a5
 1001ae6:	0685                	addi	a3,a3,1
 1001ae8:	0106e6b3          	or	a3,a3,a6
 1001aec:	0006c783          	lbu	a5,0(a3)
 1001af0:	4ac64303          	lbu	t1,1196(a2)
 1001af4:	4ad64703          	lbu	a4,1197(a2)
 1001af8:	4ae64683          	lbu	a3,1198(a2)
 1001afc:	07a2                	slli	a5,a5,0x8
 1001afe:	0722                	slli	a4,a4,0x8
 1001b00:	06c2                	slli	a3,a3,0x10
 1001b02:	8f55                	or	a4,a4,a3
 1001b04:	00676733          	or	a4,a4,t1
 1001b08:	0709                	addi	a4,a4,2
 1001b0a:	01076733          	or	a4,a4,a6
 1001b0e:	00074703          	lbu	a4,0(a4)
 1001b12:	4601                	li	a2,0
 1001b14:	100046b7          	lui	a3,0x10004
 1001b18:	0742                	slli	a4,a4,0x10
 1001b1a:	8fd9                	or	a5,a5,a4
 1001b1c:	0117e7b3          	or	a5,a5,a7
 1001b20:	100008b7          	lui	a7,0x10000
 1001b24:	01061713          	slli	a4,a2,0x10
 1001b28:	8341                	srli	a4,a4,0x10
 1001b2a:	08b76f63          	bltu	a4,a1,1001bc8 <ipcRx+0x11a>
 1001b2e:	30047073          	csrci	mstatus,8
 1001b32:	100105b7          	lui	a1,0x10010
 1001b36:	0885d703          	lhu	a4,136(a1) # 10010088 <gOsEnterCriticalCnt>
 1001b3a:	10004637          	lui	a2,0x10004
 1001b3e:	0705                	addi	a4,a4,1
 1001b40:	08e59423          	sh	a4,136(a1)
 1001b44:	4ac64503          	lbu	a0,1196(a2) # 100044ac <_sidata+0xefffce8>
 1001b48:	4ad64683          	lbu	a3,1197(a2)
 1001b4c:	4ae64703          	lbu	a4,1198(a2)
 1001b50:	06a2                	slli	a3,a3,0x8
 1001b52:	0742                	slli	a4,a4,0x10
 1001b54:	8ed9                	or	a3,a3,a4
 1001b56:	8ec9                	or	a3,a3,a0
 1001b58:	10000537          	lui	a0,0x10000
 1001b5c:	0ff7f713          	andi	a4,a5,255
 1001b60:	8ec9                	or	a3,a3,a0
 1001b62:	00e68023          	sb	a4,0(a3) # 10004000 <_sidata+0xefff83c>
 1001b66:	4ac64803          	lbu	a6,1196(a2)
 1001b6a:	4ad64683          	lbu	a3,1197(a2)
 1001b6e:	4ae64703          	lbu	a4,1198(a2)
 1001b72:	06a2                	slli	a3,a3,0x8
 1001b74:	0742                	slli	a4,a4,0x10
 1001b76:	8ed9                	or	a3,a3,a4
 1001b78:	0106e6b3          	or	a3,a3,a6
 1001b7c:	4087d713          	srai	a4,a5,0x8
 1001b80:	0685                	addi	a3,a3,1
 1001b82:	8ec9                	or	a3,a3,a0
 1001b84:	0ff77713          	andi	a4,a4,255
 1001b88:	00e68023          	sb	a4,0(a3)
 1001b8c:	4ac64803          	lbu	a6,1196(a2)
 1001b90:	4ad64703          	lbu	a4,1197(a2)
 1001b94:	4ae64683          	lbu	a3,1198(a2)
 1001b98:	87c1                	srai	a5,a5,0x10
 1001b9a:	0722                	slli	a4,a4,0x8
 1001b9c:	06c2                	slli	a3,a3,0x10
 1001b9e:	8f55                	or	a4,a4,a3
 1001ba0:	01076733          	or	a4,a4,a6
 1001ba4:	0709                	addi	a4,a4,2
 1001ba6:	0ff7f793          	andi	a5,a5,255
 1001baa:	8f49                	or	a4,a4,a0
 1001bac:	00f70023          	sb	a5,0(a4)
 1001bb0:	0885d783          	lhu	a5,136(a1)
 1001bb4:	17fd                	addi	a5,a5,-1
 1001bb6:	07c2                	slli	a5,a5,0x10
 1001bb8:	83c1                	srli	a5,a5,0x10
 1001bba:	08f59423          	sh	a5,136(a1)
 1001bbe:	00079463          	bnez	a5,1001bc6 <ipcRx+0x118>
 1001bc2:	30046073          	csrsi	mstatus,8
 1001bc6:	8082                	ret
 1001bc8:	0117e733          	or	a4,a5,a7
 1001bcc:	00074803          	lbu	a6,0(a4)
 1001bd0:	00c50733          	add	a4,a0,a2
 1001bd4:	0785                	addi	a5,a5,1
 1001bd6:	01070023          	sb	a6,0(a4)
 1001bda:	4b26c303          	lbu	t1,1202(a3)
 1001bde:	4b36c703          	lbu	a4,1203(a3)
 1001be2:	4b46c803          	lbu	a6,1204(a3)
 1001be6:	0722                	slli	a4,a4,0x8
 1001be8:	0842                	slli	a6,a6,0x10
 1001bea:	01076733          	or	a4,a4,a6
 1001bee:	00676733          	or	a4,a4,t1
 1001bf2:	00e7ed63          	bltu	a5,a4,1001c0c <ipcRx+0x15e>
 1001bf6:	4af6c803          	lbu	a6,1199(a3)
 1001bfa:	4b06c783          	lbu	a5,1200(a3)
 1001bfe:	4b16c703          	lbu	a4,1201(a3)
 1001c02:	07a2                	slli	a5,a5,0x8
 1001c04:	0742                	slli	a4,a4,0x10
 1001c06:	8fd9                	or	a5,a5,a4
 1001c08:	0107e7b3          	or	a5,a5,a6
 1001c0c:	0605                	addi	a2,a2,1
 1001c0e:	bf19                	j	1001b24 <ipcRx+0x76>

01001c10 <ipcTx>:
ipcTx():
 1001c10:	10004637          	lui	a2,0x10004
 1001c14:	4a364683          	lbu	a3,1187(a2) # 100044a3 <_sidata+0xefffcdf>
 1001c18:	4a464783          	lbu	a5,1188(a2)
 1001c1c:	4a564703          	lbu	a4,1189(a2)
 1001c20:	10000837          	lui	a6,0x10000
 1001c24:	07a2                	slli	a5,a5,0x8
 1001c26:	0742                	slli	a4,a4,0x10
 1001c28:	8fd9                	or	a5,a5,a4
 1001c2a:	8fd5                	or	a5,a5,a3
 1001c2c:	0107e7b3          	or	a5,a5,a6
 1001c30:	0007c883          	lbu	a7,0(a5)
 1001c34:	4a364783          	lbu	a5,1187(a2)
 1001c38:	4a464683          	lbu	a3,1188(a2)
 1001c3c:	4a564703          	lbu	a4,1189(a2)
 1001c40:	06a2                	slli	a3,a3,0x8
 1001c42:	0742                	slli	a4,a4,0x10
 1001c44:	8ed9                	or	a3,a3,a4
 1001c46:	8edd                	or	a3,a3,a5
 1001c48:	0685                	addi	a3,a3,1
 1001c4a:	0106e6b3          	or	a3,a3,a6
 1001c4e:	0006c783          	lbu	a5,0(a3)
 1001c52:	4a364303          	lbu	t1,1187(a2)
 1001c56:	4a464703          	lbu	a4,1188(a2)
 1001c5a:	4a564683          	lbu	a3,1189(a2)
 1001c5e:	07a2                	slli	a5,a5,0x8
 1001c60:	0722                	slli	a4,a4,0x8
 1001c62:	06c2                	slli	a3,a3,0x10
 1001c64:	8f55                	or	a4,a4,a3
 1001c66:	00676733          	or	a4,a4,t1
 1001c6a:	0709                	addi	a4,a4,2
 1001c6c:	01076733          	or	a4,a4,a6
 1001c70:	00074703          	lbu	a4,0(a4)
 1001c74:	4601                	li	a2,0
 1001c76:	100046b7          	lui	a3,0x10004
 1001c7a:	0742                	slli	a4,a4,0x10
 1001c7c:	8fd9                	or	a5,a5,a4
 1001c7e:	0117e7b3          	or	a5,a5,a7
 1001c82:	100008b7          	lui	a7,0x10000
 1001c86:	01061713          	slli	a4,a2,0x10
 1001c8a:	8341                	srli	a4,a4,0x10
 1001c8c:	08b76f63          	bltu	a4,a1,1001d2a <ipcTx+0x11a>
 1001c90:	30047073          	csrci	mstatus,8
 1001c94:	100105b7          	lui	a1,0x10010
 1001c98:	0885d703          	lhu	a4,136(a1) # 10010088 <gOsEnterCriticalCnt>
 1001c9c:	10004637          	lui	a2,0x10004
 1001ca0:	0705                	addi	a4,a4,1
 1001ca2:	08e59423          	sh	a4,136(a1)
 1001ca6:	4a364503          	lbu	a0,1187(a2) # 100044a3 <_sidata+0xefffcdf>
 1001caa:	4a464683          	lbu	a3,1188(a2)
 1001cae:	4a564703          	lbu	a4,1189(a2)
 1001cb2:	06a2                	slli	a3,a3,0x8
 1001cb4:	0742                	slli	a4,a4,0x10
 1001cb6:	8ed9                	or	a3,a3,a4
 1001cb8:	8ec9                	or	a3,a3,a0
 1001cba:	10000537          	lui	a0,0x10000
 1001cbe:	0ff7f713          	andi	a4,a5,255
 1001cc2:	8ec9                	or	a3,a3,a0
 1001cc4:	00e68023          	sb	a4,0(a3) # 10004000 <_sidata+0xefff83c>
 1001cc8:	4a364803          	lbu	a6,1187(a2)
 1001ccc:	4a464683          	lbu	a3,1188(a2)
 1001cd0:	4a564703          	lbu	a4,1189(a2)
 1001cd4:	06a2                	slli	a3,a3,0x8
 1001cd6:	0742                	slli	a4,a4,0x10
 1001cd8:	8ed9                	or	a3,a3,a4
 1001cda:	0106e6b3          	or	a3,a3,a6
 1001cde:	4087d713          	srai	a4,a5,0x8
 1001ce2:	0685                	addi	a3,a3,1
 1001ce4:	8ec9                	or	a3,a3,a0
 1001ce6:	0ff77713          	andi	a4,a4,255
 1001cea:	00e68023          	sb	a4,0(a3)
 1001cee:	4a364803          	lbu	a6,1187(a2)
 1001cf2:	4a464703          	lbu	a4,1188(a2)
 1001cf6:	4a564683          	lbu	a3,1189(a2)
 1001cfa:	87c1                	srai	a5,a5,0x10
 1001cfc:	0722                	slli	a4,a4,0x8
 1001cfe:	06c2                	slli	a3,a3,0x10
 1001d00:	8f55                	or	a4,a4,a3
 1001d02:	01076733          	or	a4,a4,a6
 1001d06:	0709                	addi	a4,a4,2
 1001d08:	0ff7f793          	andi	a5,a5,255
 1001d0c:	8f49                	or	a4,a4,a0
 1001d0e:	00f70023          	sb	a5,0(a4)
 1001d12:	0885d783          	lhu	a5,136(a1)
 1001d16:	17fd                	addi	a5,a5,-1
 1001d18:	07c2                	slli	a5,a5,0x10
 1001d1a:	83c1                	srli	a5,a5,0x10
 1001d1c:	08f59423          	sh	a5,136(a1)
 1001d20:	00079463          	bnez	a5,1001d28 <ipcTx+0x118>
 1001d24:	30046073          	csrsi	mstatus,8
 1001d28:	8082                	ret
 1001d2a:	00c50833          	add	a6,a0,a2
 1001d2e:	00084803          	lbu	a6,0(a6) # 10000000 <_sidata+0xeffb83c>
 1001d32:	0117e733          	or	a4,a5,a7
 1001d36:	0785                	addi	a5,a5,1
 1001d38:	01070023          	sb	a6,0(a4)
 1001d3c:	4a06c303          	lbu	t1,1184(a3)
 1001d40:	4a16c703          	lbu	a4,1185(a3)
 1001d44:	4a26c803          	lbu	a6,1186(a3)
 1001d48:	0722                	slli	a4,a4,0x8
 1001d4a:	0842                	slli	a6,a6,0x10
 1001d4c:	01076733          	or	a4,a4,a6
 1001d50:	00676733          	or	a4,a4,t1
 1001d54:	00e7ed63          	bltu	a5,a4,1001d6e <ipcTx+0x15e>
 1001d58:	49d6c803          	lbu	a6,1181(a3)
 1001d5c:	49e6c783          	lbu	a5,1182(a3)
 1001d60:	49f6c703          	lbu	a4,1183(a3)
 1001d64:	07a2                	slli	a5,a5,0x8
 1001d66:	0742                	slli	a4,a4,0x10
 1001d68:	8fd9                	or	a5,a5,a4
 1001d6a:	0107e7b3          	or	a5,a5,a6
 1001d6e:	0605                	addi	a2,a2,1
 1001d70:	bf19                	j	1001c86 <ipcTx+0x76>

01001d72 <IPC_IsTxBuffEmpty>:
IPC_IsTxBuffEmpty():
 1001d72:	100047b7          	lui	a5,0x10004
 1001d76:	4a37c603          	lbu	a2,1187(a5) # 100044a3 <_sidata+0xefffcdf>
 1001d7a:	4a47c703          	lbu	a4,1188(a5)
 1001d7e:	4a57c683          	lbu	a3,1189(a5)
 1001d82:	10000837          	lui	a6,0x10000
 1001d86:	0722                	slli	a4,a4,0x8
 1001d88:	06c2                	slli	a3,a3,0x10
 1001d8a:	8f55                	or	a4,a4,a3
 1001d8c:	8f51                	or	a4,a4,a2
 1001d8e:	01076733          	or	a4,a4,a6
 1001d92:	00074583          	lbu	a1,0(a4)
 1001d96:	4a37c603          	lbu	a2,1187(a5)
 1001d9a:	4a47c703          	lbu	a4,1188(a5)
 1001d9e:	4a57c683          	lbu	a3,1189(a5)
 1001da2:	0ff5f593          	andi	a1,a1,255
 1001da6:	0722                	slli	a4,a4,0x8
 1001da8:	06c2                	slli	a3,a3,0x10
 1001daa:	8f55                	or	a4,a4,a3
 1001dac:	8f51                	or	a4,a4,a2
 1001dae:	0705                	addi	a4,a4,1
 1001db0:	01076733          	or	a4,a4,a6
 1001db4:	00074703          	lbu	a4,0(a4)
 1001db8:	4a37c503          	lbu	a0,1187(a5)
 1001dbc:	4a47c683          	lbu	a3,1188(a5)
 1001dc0:	4a57c603          	lbu	a2,1189(a5)
 1001dc4:	0ff77713          	andi	a4,a4,255
 1001dc8:	06a2                	slli	a3,a3,0x8
 1001dca:	0642                	slli	a2,a2,0x10
 1001dcc:	8ed1                	or	a3,a3,a2
 1001dce:	8ec9                	or	a3,a3,a0
 1001dd0:	0689                	addi	a3,a3,2
 1001dd2:	0106e6b3          	or	a3,a3,a6
 1001dd6:	0006c603          	lbu	a2,0(a3)
 1001dda:	4a67c883          	lbu	a7,1190(a5)
 1001dde:	4a77c683          	lbu	a3,1191(a5)
 1001de2:	4a87c503          	lbu	a0,1192(a5)
 1001de6:	0ff67613          	andi	a2,a2,255
 1001dea:	06a2                	slli	a3,a3,0x8
 1001dec:	0542                	slli	a0,a0,0x10
 1001dee:	8ec9                	or	a3,a3,a0
 1001df0:	0116e6b3          	or	a3,a3,a7
 1001df4:	0106e6b3          	or	a3,a3,a6
 1001df8:	0006ce03          	lbu	t3,0(a3)
 1001dfc:	4a67c503          	lbu	a0,1190(a5)
 1001e00:	4a77c683          	lbu	a3,1191(a5)
 1001e04:	4a87c303          	lbu	t1,1192(a5)
 1001e08:	06a2                	slli	a3,a3,0x8
 1001e0a:	0342                	slli	t1,t1,0x10
 1001e0c:	0066e6b3          	or	a3,a3,t1
 1001e10:	8ec9                	or	a3,a3,a0
 1001e12:	0685                	addi	a3,a3,1
 1001e14:	0106e6b3          	or	a3,a3,a6
 1001e18:	0006c503          	lbu	a0,0(a3)
 1001e1c:	4a67c883          	lbu	a7,1190(a5)
 1001e20:	4a77c683          	lbu	a3,1191(a5)
 1001e24:	4a87c303          	lbu	t1,1192(a5)
 1001e28:	0522                	slli	a0,a0,0x8
 1001e2a:	06a2                	slli	a3,a3,0x8
 1001e2c:	0342                	slli	t1,t1,0x10
 1001e2e:	0066e6b3          	or	a3,a3,t1
 1001e32:	0116e6b3          	or	a3,a3,a7
 1001e36:	0689                	addi	a3,a3,2
 1001e38:	0106e6b3          	or	a3,a3,a6
 1001e3c:	0006c883          	lbu	a7,0(a3)
 1001e40:	4a67c303          	lbu	t1,1190(a5)
 1001e44:	4a77c683          	lbu	a3,1191(a5)
 1001e48:	08c2                	slli	a7,a7,0x10
 1001e4a:	01156533          	or	a0,a0,a7
 1001e4e:	01c568b3          	or	a7,a0,t3
 1001e52:	4a87c503          	lbu	a0,1192(a5)
 1001e56:	06a2                	slli	a3,a3,0x8
 1001e58:	0542                	slli	a0,a0,0x10
 1001e5a:	8ec9                	or	a3,a3,a0
 1001e5c:	0066e6b3          	or	a3,a3,t1
 1001e60:	0106e6b3          	or	a3,a3,a6
 1001e64:	0006ce03          	lbu	t3,0(a3)
 1001e68:	4a67c303          	lbu	t1,1190(a5)
 1001e6c:	4a77c683          	lbu	a3,1191(a5)
 1001e70:	4a87c503          	lbu	a0,1192(a5)
 1001e74:	06a2                	slli	a3,a3,0x8
 1001e76:	0542                	slli	a0,a0,0x10
 1001e78:	8ec9                	or	a3,a3,a0
 1001e7a:	0066e6b3          	or	a3,a3,t1
 1001e7e:	0685                	addi	a3,a3,1
 1001e80:	0106e6b3          	or	a3,a3,a6
 1001e84:	0006c503          	lbu	a0,0(a3)
 1001e88:	4a67ce83          	lbu	t4,1190(a5)
 1001e8c:	4a77c683          	lbu	a3,1191(a5)
 1001e90:	4a87c303          	lbu	t1,1192(a5)
 1001e94:	00869793          	slli	a5,a3,0x8
 1001e98:	01031693          	slli	a3,t1,0x10
 1001e9c:	8fd5                	or	a5,a5,a3
 1001e9e:	01d7e7b3          	or	a5,a5,t4
 1001ea2:	0789                	addi	a5,a5,2
 1001ea4:	0107e7b3          	or	a5,a5,a6
 1001ea8:	0007c683          	lbu	a3,0(a5)
 1001eac:	00851793          	slli	a5,a0,0x8
 1001eb0:	4501                	li	a0,0
 1001eb2:	06c2                	slli	a3,a3,0x10
 1001eb4:	8fd5                	or	a5,a5,a3
 1001eb6:	01c7e7b3          	or	a5,a5,t3
 1001eba:	00f89b63          	bne	a7,a5,1001ed0 <IPC_IsTxBuffEmpty+0x15e>
 1001ebe:	0722                	slli	a4,a4,0x8
 1001ec0:	01061513          	slli	a0,a2,0x10
 1001ec4:	8d59                	or	a0,a0,a4
 1001ec6:	8dc9                	or	a1,a1,a0
 1001ec8:	41158533          	sub	a0,a1,a7
 1001ecc:	00153513          	seqz	a0,a0
 1001ed0:	8082                	ret

01001ed2 <IPC_IsRxBuffEmpty>:
IPC_IsRxBuffEmpty():
 1001ed2:	100047b7          	lui	a5,0x10004
 1001ed6:	4ac7c603          	lbu	a2,1196(a5) # 100044ac <_sidata+0xefffce8>
 1001eda:	4ad7c703          	lbu	a4,1197(a5)
 1001ede:	4ae7c683          	lbu	a3,1198(a5)
 1001ee2:	10000837          	lui	a6,0x10000
 1001ee6:	0722                	slli	a4,a4,0x8
 1001ee8:	06c2                	slli	a3,a3,0x10
 1001eea:	8f55                	or	a4,a4,a3
 1001eec:	8f51                	or	a4,a4,a2
 1001eee:	01076733          	or	a4,a4,a6
 1001ef2:	00074583          	lbu	a1,0(a4)
 1001ef6:	4ac7c603          	lbu	a2,1196(a5)
 1001efa:	4ad7c703          	lbu	a4,1197(a5)
 1001efe:	4ae7c683          	lbu	a3,1198(a5)
 1001f02:	0ff5f593          	andi	a1,a1,255
 1001f06:	0722                	slli	a4,a4,0x8
 1001f08:	06c2                	slli	a3,a3,0x10
 1001f0a:	8f55                	or	a4,a4,a3
 1001f0c:	8f51                	or	a4,a4,a2
 1001f0e:	0705                	addi	a4,a4,1
 1001f10:	01076733          	or	a4,a4,a6
 1001f14:	00074703          	lbu	a4,0(a4)
 1001f18:	4ac7c503          	lbu	a0,1196(a5)
 1001f1c:	4ad7c683          	lbu	a3,1197(a5)
 1001f20:	4ae7c603          	lbu	a2,1198(a5)
 1001f24:	0ff77713          	andi	a4,a4,255
 1001f28:	06a2                	slli	a3,a3,0x8
 1001f2a:	0642                	slli	a2,a2,0x10
 1001f2c:	8ed1                	or	a3,a3,a2
 1001f2e:	8ec9                	or	a3,a3,a0
 1001f30:	0689                	addi	a3,a3,2
 1001f32:	0106e6b3          	or	a3,a3,a6
 1001f36:	0006c603          	lbu	a2,0(a3)
 1001f3a:	4a97c883          	lbu	a7,1193(a5)
 1001f3e:	4aa7c683          	lbu	a3,1194(a5)
 1001f42:	4ab7c503          	lbu	a0,1195(a5)
 1001f46:	0ff67613          	andi	a2,a2,255
 1001f4a:	06a2                	slli	a3,a3,0x8
 1001f4c:	0542                	slli	a0,a0,0x10
 1001f4e:	8ec9                	or	a3,a3,a0
 1001f50:	0116e6b3          	or	a3,a3,a7
 1001f54:	0106e6b3          	or	a3,a3,a6
 1001f58:	0006ce03          	lbu	t3,0(a3)
 1001f5c:	4a97c503          	lbu	a0,1193(a5)
 1001f60:	4aa7c683          	lbu	a3,1194(a5)
 1001f64:	4ab7c303          	lbu	t1,1195(a5)
 1001f68:	06a2                	slli	a3,a3,0x8
 1001f6a:	0342                	slli	t1,t1,0x10
 1001f6c:	0066e6b3          	or	a3,a3,t1
 1001f70:	8ec9                	or	a3,a3,a0
 1001f72:	0685                	addi	a3,a3,1
 1001f74:	0106e6b3          	or	a3,a3,a6
 1001f78:	0006c503          	lbu	a0,0(a3)
 1001f7c:	4a97c883          	lbu	a7,1193(a5)
 1001f80:	4aa7c683          	lbu	a3,1194(a5)
 1001f84:	4ab7c303          	lbu	t1,1195(a5)
 1001f88:	0522                	slli	a0,a0,0x8
 1001f8a:	06a2                	slli	a3,a3,0x8
 1001f8c:	0342                	slli	t1,t1,0x10
 1001f8e:	0066e6b3          	or	a3,a3,t1
 1001f92:	0116e6b3          	or	a3,a3,a7
 1001f96:	0689                	addi	a3,a3,2
 1001f98:	0106e6b3          	or	a3,a3,a6
 1001f9c:	0006c883          	lbu	a7,0(a3)
 1001fa0:	4a97c303          	lbu	t1,1193(a5)
 1001fa4:	4aa7c683          	lbu	a3,1194(a5)
 1001fa8:	08c2                	slli	a7,a7,0x10
 1001faa:	01156533          	or	a0,a0,a7
 1001fae:	01c568b3          	or	a7,a0,t3
 1001fb2:	4ab7c503          	lbu	a0,1195(a5)
 1001fb6:	06a2                	slli	a3,a3,0x8
 1001fb8:	0542                	slli	a0,a0,0x10
 1001fba:	8ec9                	or	a3,a3,a0
 1001fbc:	0066e6b3          	or	a3,a3,t1
 1001fc0:	0106e6b3          	or	a3,a3,a6
 1001fc4:	0006ce03          	lbu	t3,0(a3)
 1001fc8:	4a97c303          	lbu	t1,1193(a5)
 1001fcc:	4aa7c683          	lbu	a3,1194(a5)
 1001fd0:	4ab7c503          	lbu	a0,1195(a5)
 1001fd4:	06a2                	slli	a3,a3,0x8
 1001fd6:	0542                	slli	a0,a0,0x10
 1001fd8:	8ec9                	or	a3,a3,a0
 1001fda:	0066e6b3          	or	a3,a3,t1
 1001fde:	0685                	addi	a3,a3,1
 1001fe0:	0106e6b3          	or	a3,a3,a6
 1001fe4:	0006c503          	lbu	a0,0(a3)
 1001fe8:	4a97ce83          	lbu	t4,1193(a5)
 1001fec:	4aa7c683          	lbu	a3,1194(a5)
 1001ff0:	4ab7c303          	lbu	t1,1195(a5)
 1001ff4:	00869793          	slli	a5,a3,0x8
 1001ff8:	01031693          	slli	a3,t1,0x10
 1001ffc:	8fd5                	or	a5,a5,a3
 1001ffe:	01d7e7b3          	or	a5,a5,t4
 1002002:	0789                	addi	a5,a5,2
 1002004:	0107e7b3          	or	a5,a5,a6
 1002008:	0007c683          	lbu	a3,0(a5)
 100200c:	00851793          	slli	a5,a0,0x8
 1002010:	4505                	li	a0,1
 1002012:	06c2                	slli	a3,a3,0x10
 1002014:	8fd5                	or	a5,a5,a3
 1002016:	01c7e7b3          	or	a5,a5,t3
 100201a:	00f89b63          	bne	a7,a5,1002030 <IPC_IsRxBuffEmpty+0x15e>
 100201e:	0722                	slli	a4,a4,0x8
 1002020:	01061513          	slli	a0,a2,0x10
 1002024:	8d59                	or	a0,a0,a4
 1002026:	8dc9                	or	a1,a1,a0
 1002028:	41158533          	sub	a0,a1,a7
 100202c:	00153513          	seqz	a0,a0
 1002030:	8082                	ret

01002032 <IPC_TxBufferIsEnough>:
IPC_TxBufferIsEnough():
 1002032:	100047b7          	lui	a5,0x10004
 1002036:	4a37c603          	lbu	a2,1187(a5) # 100044a3 <_sidata+0xefffcdf>
 100203a:	4a47c703          	lbu	a4,1188(a5)
 100203e:	4a57c683          	lbu	a3,1189(a5)
 1002042:	0722                	slli	a4,a4,0x8
 1002044:	06c2                	slli	a3,a3,0x10
 1002046:	8f55                	or	a4,a4,a3
 1002048:	8f51                	or	a4,a4,a2
 100204a:	10000637          	lui	a2,0x10000
 100204e:	8f51                	or	a4,a4,a2
 1002050:	00074803          	lbu	a6,0(a4)
 1002054:	4a37c703          	lbu	a4,1187(a5)
 1002058:	4a47c683          	lbu	a3,1188(a5)
 100205c:	4a57c583          	lbu	a1,1189(a5)
 1002060:	06a2                	slli	a3,a3,0x8
 1002062:	05c2                	slli	a1,a1,0x10
 1002064:	8ecd                	or	a3,a3,a1
 1002066:	8ed9                	or	a3,a3,a4
 1002068:	0685                	addi	a3,a3,1
 100206a:	8ed1                	or	a3,a3,a2
 100206c:	0006c703          	lbu	a4,0(a3)
 1002070:	4a37c883          	lbu	a7,1187(a5)
 1002074:	4a47c683          	lbu	a3,1188(a5)
 1002078:	4a57c583          	lbu	a1,1189(a5)
 100207c:	0722                	slli	a4,a4,0x8
 100207e:	06a2                	slli	a3,a3,0x8
 1002080:	05c2                	slli	a1,a1,0x10
 1002082:	8ecd                	or	a3,a3,a1
 1002084:	0116e6b3          	or	a3,a3,a7
 1002088:	0689                	addi	a3,a3,2
 100208a:	8ed1                	or	a3,a3,a2
 100208c:	0006c683          	lbu	a3,0(a3)
 1002090:	06c2                	slli	a3,a3,0x10
 1002092:	8f55                	or	a4,a4,a3
 1002094:	01076733          	or	a4,a4,a6
 1002098:	4a67c803          	lbu	a6,1190(a5)
 100209c:	4a77c683          	lbu	a3,1191(a5)
 10020a0:	4a87c583          	lbu	a1,1192(a5)
 10020a4:	06a2                	slli	a3,a3,0x8
 10020a6:	05c2                	slli	a1,a1,0x10
 10020a8:	8ecd                	or	a3,a3,a1
 10020aa:	0106e6b3          	or	a3,a3,a6
 10020ae:	8ed1                	or	a3,a3,a2
 10020b0:	0006c803          	lbu	a6,0(a3)
 10020b4:	4a67c883          	lbu	a7,1190(a5)
 10020b8:	4a77c683          	lbu	a3,1191(a5)
 10020bc:	4a87c583          	lbu	a1,1192(a5)
 10020c0:	06a2                	slli	a3,a3,0x8
 10020c2:	05c2                	slli	a1,a1,0x10
 10020c4:	8ecd                	or	a3,a3,a1
 10020c6:	0116e6b3          	or	a3,a3,a7
 10020ca:	0685                	addi	a3,a3,1
 10020cc:	8ed1                	or	a3,a3,a2
 10020ce:	0006c883          	lbu	a7,0(a3)
 10020d2:	4a67c303          	lbu	t1,1190(a5)
 10020d6:	4a77c683          	lbu	a3,1191(a5)
 10020da:	4a87c583          	lbu	a1,1192(a5)
 10020de:	08a2                	slli	a7,a7,0x8
 10020e0:	06a2                	slli	a3,a3,0x8
 10020e2:	05c2                	slli	a1,a1,0x10
 10020e4:	8ecd                	or	a3,a3,a1
 10020e6:	0066e6b3          	or	a3,a3,t1
 10020ea:	0689                	addi	a3,a3,2
 10020ec:	8ed1                	or	a3,a3,a2
 10020ee:	0006c303          	lbu	t1,0(a3)
 10020f2:	4a67ce03          	lbu	t3,1190(a5)
 10020f6:	4a77c683          	lbu	a3,1191(a5)
 10020fa:	4a87c583          	lbu	a1,1192(a5)
 10020fe:	0342                	slli	t1,t1,0x10
 1002100:	06a2                	slli	a3,a3,0x8
 1002102:	05c2                	slli	a1,a1,0x10
 1002104:	8ecd                	or	a3,a3,a1
 1002106:	01c6e6b3          	or	a3,a3,t3
 100210a:	8ed1                	or	a3,a3,a2
 100210c:	0006ce83          	lbu	t4,0(a3)
 1002110:	4a67ce03          	lbu	t3,1190(a5)
 1002114:	4a77c583          	lbu	a1,1191(a5)
 1002118:	4a87c683          	lbu	a3,1192(a5)
 100211c:	0068e8b3          	or	a7,a7,t1
 1002120:	05a2                	slli	a1,a1,0x8
 1002122:	06c2                	slli	a3,a3,0x10
 1002124:	8dd5                	or	a1,a1,a3
 1002126:	01c5e5b3          	or	a1,a1,t3
 100212a:	0585                	addi	a1,a1,1
 100212c:	8dd1                	or	a1,a1,a2
 100212e:	0005c683          	lbu	a3,0(a1)
 1002132:	4a67cf03          	lbu	t5,1190(a5)
 1002136:	4a77c583          	lbu	a1,1191(a5)
 100213a:	4a87ce03          	lbu	t3,1192(a5)
 100213e:	06a2                	slli	a3,a3,0x8
 1002140:	05a2                	slli	a1,a1,0x8
 1002142:	0e42                	slli	t3,t3,0x10
 1002144:	01c5e5b3          	or	a1,a1,t3
 1002148:	01e5e5b3          	or	a1,a1,t5
 100214c:	0589                	addi	a1,a1,2
 100214e:	8dd1                	or	a1,a1,a2
 1002150:	0005c583          	lbu	a1,0(a1)
 1002154:	0108e833          	or	a6,a7,a6
 1002158:	05c2                	slli	a1,a1,0x10
 100215a:	8ecd                	or	a3,a3,a1
 100215c:	01d6e6b3          	or	a3,a3,t4
 1002160:	06d80563          	beq	a6,a3,10021ca <IPC_TxBufferIsEnough+0x198>
 1002164:	4a67c803          	lbu	a6,1190(a5)
 1002168:	4a77c683          	lbu	a3,1191(a5)
 100216c:	4a87c583          	lbu	a1,1192(a5)
 1002170:	06a2                	slli	a3,a3,0x8
 1002172:	05c2                	slli	a1,a1,0x10
 1002174:	8ecd                	or	a3,a3,a1
 1002176:	0106e6b3          	or	a3,a3,a6
 100217a:	8ed1                	or	a3,a3,a2
 100217c:	0006c883          	lbu	a7,0(a3)
 1002180:	4a67c683          	lbu	a3,1190(a5)
 1002184:	4a77c583          	lbu	a1,1191(a5)
 1002188:	4a87c803          	lbu	a6,1192(a5)
 100218c:	05a2                	slli	a1,a1,0x8
 100218e:	0842                	slli	a6,a6,0x10
 1002190:	0105e5b3          	or	a1,a1,a6
 1002194:	8dd5                	or	a1,a1,a3
 1002196:	0585                	addi	a1,a1,1
 1002198:	8dd1                	or	a1,a1,a2
 100219a:	0005c683          	lbu	a3,0(a1)
 100219e:	4a67c303          	lbu	t1,1190(a5)
 10021a2:	4a77c583          	lbu	a1,1191(a5)
 10021a6:	4a87c803          	lbu	a6,1192(a5)
 10021aa:	06a2                	slli	a3,a3,0x8
 10021ac:	00859793          	slli	a5,a1,0x8
 10021b0:	01081593          	slli	a1,a6,0x10
 10021b4:	8fcd                	or	a5,a5,a1
 10021b6:	0067e7b3          	or	a5,a5,t1
 10021ba:	0789                	addi	a5,a5,2
 10021bc:	8e5d                	or	a2,a2,a5
 10021be:	00064783          	lbu	a5,0(a2) # 10000000 <_sidata+0xeffb83c>
 10021c2:	07c2                	slli	a5,a5,0x10
 10021c4:	8edd                	or	a3,a3,a5
 10021c6:	0116e6b3          	or	a3,a3,a7
 10021ca:	0542                	slli	a0,a0,0x10
 10021cc:	4581                	li	a1,0
 10021ce:	8141                	srli	a0,a0,0x10
 10021d0:	10004637          	lui	a2,0x10004
 10021d4:	00a5e463          	bltu	a1,a0,10021dc <IPC_TxBufferIsEnough+0x1aa>
 10021d8:	4505                	li	a0,1
 10021da:	8082                	ret
 10021dc:	4a064883          	lbu	a7,1184(a2) # 100044a0 <_sidata+0xefffcdc>
 10021e0:	4a164783          	lbu	a5,1185(a2)
 10021e4:	4a264803          	lbu	a6,1186(a2)
 10021e8:	0705                	addi	a4,a4,1
 10021ea:	07a2                	slli	a5,a5,0x8
 10021ec:	0842                	slli	a6,a6,0x10
 10021ee:	0107e7b3          	or	a5,a5,a6
 10021f2:	0117e7b3          	or	a5,a5,a7
 10021f6:	00f76d63          	bltu	a4,a5,1002210 <IPC_TxBufferIsEnough+0x1de>
 10021fa:	49d64803          	lbu	a6,1181(a2)
 10021fe:	49e64703          	lbu	a4,1182(a2)
 1002202:	49f64783          	lbu	a5,1183(a2)
 1002206:	0722                	slli	a4,a4,0x8
 1002208:	07c2                	slli	a5,a5,0x10
 100220a:	8f5d                	or	a4,a4,a5
 100220c:	01076733          	or	a4,a4,a6
 1002210:	00d70663          	beq	a4,a3,100221c <IPC_TxBufferIsEnough+0x1ea>
 1002214:	0585                	addi	a1,a1,1
 1002216:	05c2                	slli	a1,a1,0x10
 1002218:	81c1                	srli	a1,a1,0x10
 100221a:	bf6d                	j	10021d4 <IPC_TxBufferIsEnough+0x1a2>
 100221c:	4501                	li	a0,0
 100221e:	8082                	ret

01002220 <IPC_TxCommon>:
IPC_TxCommon():
 1002220:	68b012ef          	jal	t0,10040aa <__riscv_save_4>
 1002224:	100134b7          	lui	s1,0x10013
 1002228:	fff60793          	addi	a5,a2,-1
 100222c:	12a48c23          	sb	a0,312(s1) # 10013138 <ipcSendBuff>
 1002230:	0ff7f793          	andi	a5,a5,255
 1002234:	02400713          	li	a4,36
 1002238:	06f76d63          	bltu	a4,a5,10022b2 <IPC_TxCommon+0x92>
 100223c:	100047b7          	lui	a5,0x10004
 1002240:	4957c703          	lbu	a4,1173(a5) # 10004495 <_sidata+0xefffcd1>
 1002244:	4689                	li	a3,2
 1002246:	13848993          	addi	s3,s1,312
 100224a:	00e69463          	bne	a3,a4,1002252 <IPC_TxCommon+0x32>
 100224e:	48078aa3          	sb	zero,1173(a5)
 1002252:	00161513          	slli	a0,a2,0x1
 1002256:	0fe57513          	andi	a0,a0,254
 100225a:	8432                	mv	s0,a2
 100225c:	892e                	mv	s2,a1
 100225e:	3bd1                	jal	1002032 <IPC_TxBufferIsEnough>
 1002260:	02051763          	bnez	a0,100228e <IPC_TxCommon+0x6e>
 1002264:	30047073          	csrci	mstatus,8
 1002268:	10010737          	lui	a4,0x10010
 100226c:	08875783          	lhu	a5,136(a4) # 10010088 <gOsEnterCriticalCnt>
 1002270:	01004637          	lui	a2,0x1004
 1002274:	01004537          	lui	a0,0x1004
 1002278:	0785                	addi	a5,a5,1
 100227a:	33060613          	addi	a2,a2,816 # 1004330 <__FUNCTION__.2884>
 100227e:	08600593          	li	a1,134
 1002282:	2f050513          	addi	a0,a0,752 # 10042f0 <__FUNCTION__.2818+0x10>
 1002286:	08f71423          	sh	a5,136(a4)
 100228a:	d6aff0ef          	jal	ra,10017f4 <_assert_handler>
 100228e:	10013537          	lui	a0,0x10013
 1002292:	85ca                	mv	a1,s2
 1002294:	8622                	mv	a2,s0
 1002296:	13a50513          	addi	a0,a0,314 # 1001313a <ipcSendBuff+0x2>
 100229a:	008980a3          	sb	s0,1(s3)
 100229e:	67d010ef          	jal	ra,100411a <memcpy>
 10022a2:	00240593          	addi	a1,s0,2
 10022a6:	0ff5f593          	andi	a1,a1,255
 10022aa:	13848513          	addi	a0,s1,312
 10022ae:	963ff0ef          	jal	ra,1001c10 <ipcTx>
 10022b2:	62d0106f          	j	10040de <__riscv_restore_4>

010022b6 <IPC_HandleRxPacket>:
IPC_HandleRxPacket():
 10022b6:	60f012ef          	jal	t0,10040c4 <__riscv_save_0>
 10022ba:	3921                	jal	1001ed2 <IPC_IsRxBuffEmpty>
 10022bc:	04051963          	bnez	a0,100230e <IPC_HandleRxPacket+0x58>
 10022c0:	10013437          	lui	s0,0x10013
 10022c4:	4589                	li	a1,2
 10022c6:	03840513          	addi	a0,s0,56 # 10013038 <ipcReadBuff>
 10022ca:	fe4ff0ef          	jal	ra,1001aae <ipcRx>
 10022ce:	03844783          	lbu	a5,56(s0)
 10022d2:	472d                	li	a4,11
 10022d4:	17fd                	addi	a5,a5,-1
 10022d6:	0ff7f793          	andi	a5,a5,255
 10022da:	02f76c63          	bltu	a4,a5,1002312 <IPC_HandleRxPacket+0x5c>
 10022de:	03840493          	addi	s1,s0,56
 10022e2:	0014c583          	lbu	a1,1(s1)
 10022e6:	10013937          	lui	s2,0x10013
 10022ea:	03a90513          	addi	a0,s2,58 # 1001303a <ipcReadBuff+0x2>
 10022ee:	fc0ff0ef          	jal	ra,1001aae <ipcRx>
 10022f2:	100107b7          	lui	a5,0x10010
 10022f6:	03844703          	lbu	a4,56(s0)
 10022fa:	0707a783          	lw	a5,112(a5) # 10010070 <ipc_handle_cb_array>
 10022fe:	0014c503          	lbu	a0,1(s1)
 1002302:	070a                	slli	a4,a4,0x2
 1002304:	97ba                	add	a5,a5,a4
 1002306:	439c                	lw	a5,0(a5)
 1002308:	03a90593          	addi	a1,s2,58
 100230c:	9782                	jalr	a5
 100230e:	5db0106f          	j	10040e8 <__riscv_restore_0>
 1002312:	30047073          	csrci	mstatus,8
 1002316:	10010737          	lui	a4,0x10010
 100231a:	08875783          	lhu	a5,136(a4) # 10010088 <gOsEnterCriticalCnt>
 100231e:	01004637          	lui	a2,0x1004
 1002322:	01004537          	lui	a0,0x1004
 1002326:	0785                	addi	a5,a5,1
 1002328:	34060613          	addi	a2,a2,832 # 1004340 <__FUNCTION__.2899>
 100232c:	0ba00593          	li	a1,186
 1002330:	2f050513          	addi	a0,a0,752 # 10042f0 <__FUNCTION__.2818+0x10>
 1002334:	08f71423          	sh	a5,136(a4)
 1002338:	cbcff0ef          	jal	ra,10017f4 <_assert_handler>
 100233c:	bfc9                	j	100230e <IPC_HandleRxPacket+0x58>

0100233e <IpcDefaultCallBack>:
IpcDefaultCallBack():
 100233e:	587012ef          	jal	t0,10040c4 <__riscv_save_0>
 1002342:	01004537          	lui	a0,0x1004
 1002346:	31850513          	addi	a0,a0,792 # 1004318 <__FUNCTION__.2818+0x38>
 100234a:	c0eff0ef          	jal	ra,1001758 <print_string_log>
 100234e:	a001                	j	100234e <IpcDefaultCallBack+0x10>

01002350 <IPC_Init>:
IPC_Init():
 1002350:	100107b7          	lui	a5,0x10010
 1002354:	06a7a823          	sw	a0,112(a5) # 10010070 <ipc_handle_cb_array>
 1002358:	8082                	ret

0100235a <IWDG_Disable>:
IWDG_Disable():
 100235a:	56b012ef          	jal	t0,10040c4 <__riscv_save_0>
 100235e:	4785                	li	a5,1
 1002360:	842a                	mv	s0,a0
 1002362:	00a7fe63          	bgeu	a5,a0,100237e <IWDG_Disable+0x24>
 1002366:	01004637          	lui	a2,0x1004
 100236a:	01004537          	lui	a0,0x1004
 100236e:	37c60613          	addi	a2,a2,892 # 100437c <__FUNCTION__.2182>
 1002372:	05100593          	li	a1,81
 1002376:	35450513          	addi	a0,a0,852 # 1004354 <__FUNCTION__.2899+0x14>
 100237a:	c7aff0ef          	jal	ra,10017f4 <_assert_handler>
 100237e:	0405                	addi	s0,s0,1
 1002380:	0406                	slli	s0,s0,0x1
 1002382:	d50ff0ef          	jal	ra,10018d2 <CoreReg_LpmGetIceWdtLongRst>
 1002386:	fff44413          	not	s0,s0
 100238a:	8d61                	and	a0,a0,s0
 100238c:	d38ff0ef          	jal	ra,10018c4 <CoreReg_LpmWrite2IceWdtLongRst>
 1002390:	5590106f          	j	10040e8 <__riscv_restore_0>

01002394 <prefetch>:
prefetch():
 1002394:	9901                	andi	a0,a0,-32
 1002396:	05fd                	addi	a1,a1,31
 1002398:	00a5d363          	bge	a1,a0,100239e <prefetch+0xa>
 100239c:	8082                	ret
 100239e:	00052023          	sw	zero,0(a0)
 10023a2:	02050513          	addi	a0,a0,32
 10023a6:	bfcd                	j	1002398 <prefetch+0x4>

010023a8 <qspi0_dma_start>:
qspi0_dma_start():
 10023a8:	100087b7          	lui	a5,0x10008
 10023ac:	0ff57713          	andi	a4,a0,255
 10023b0:	8521                	srai	a0,a0,0x8
 10023b2:	0ae78223          	sb	a4,164(a5) # 100080a4 <_sidata+0xf0038e0>
 10023b6:	0ff57513          	andi	a0,a0,255
 10023ba:	0aa782a3          	sb	a0,165(a5)
 10023be:	0ff5f713          	andi	a4,a1,255
 10023c2:	85a1                	srai	a1,a1,0x8
 10023c4:	0ae78123          	sb	a4,162(a5)
 10023c8:	0ff5f593          	andi	a1,a1,255
 10023cc:	0ab781a3          	sb	a1,163(a5)
 10023d0:	0ff67713          	andi	a4,a2,255
 10023d4:	8621                	srai	a2,a2,0x8
 10023d6:	0ae78323          	sb	a4,166(a5)
 10023da:	0ff67613          	andi	a2,a2,255
 10023de:	0ac783a3          	sb	a2,167(a5)
 10023e2:	0ff6f713          	andi	a4,a3,255
 10023e6:	86a1                	srai	a3,a3,0x8
 10023e8:	0ae78423          	sb	a4,168(a5)
 10023ec:	0ff6f693          	andi	a3,a3,255
 10023f0:	0ad784a3          	sb	a3,169(a5)
 10023f4:	4721                	li	a4,8
 10023f6:	00e78523          	sb	a4,10(a5)
 10023fa:	8082                	ret

010023fc <qspi0_dma_wait>:
qspi0_dma_wait():
 10023fc:	67c1                	lui	a5,0x10
 10023fe:	0785                	addi	a5,a5,1
 1002400:	10008737          	lui	a4,0x10008
 1002404:	33074503          	lbu	a0,816(a4) # 10008330 <_sidata+0xf003b6c>
 1002408:	8921                	andi	a0,a0,8
 100240a:	00050463          	beqz	a0,1002412 <qspi0_dma_wait+0x16>
 100240e:	4505                	li	a0,1
 1002410:	a021                	j	1002418 <qspi0_dma_wait+0x1c>
 1002412:	17fd                	addi	a5,a5,-1
 1002414:	fe0798e3          	bnez	a5,1002404 <qspi0_dma_wait+0x8>
 1002418:	8082                	ret

0100241a <qspi0_write>:
qspi0_write():
 100241a:	4ab012ef          	jal	t0,10040c4 <__riscv_save_0>
 100241e:	10008437          	lui	s0,0x10008
 1002422:	0a044903          	lbu	s2,160(s0) # 100080a0 <_sidata+0xf0038dc>
 1002426:	04400793          	li	a5,68
 100242a:	0a144483          	lbu	s1,161(s0)
 100242e:	0af40023          	sb	a5,160(s0)
 1002432:	f8000793          	li	a5,-128
 1002436:	0af400a3          	sb	a5,161(s0)
 100243a:	4681                	li	a3,0
 100243c:	4601                	li	a2,0
 100243e:	0ff97913          	andi	s2,s2,255
 1002442:	379d                	jal	10023a8 <qspi0_dma_start>
 1002444:	3f65                	jal	10023fc <qspi0_dma_wait>
 1002446:	0ff4f493          	andi	s1,s1,255
 100244a:	0b240023          	sb	s2,160(s0)
 100244e:	0a9400a3          	sb	s1,161(s0)
 1002452:	4970106f          	j	10040e8 <__riscv_restore_0>

01002456 <qspi0_read_write>:
qspi0_read_write():
 1002456:	46f012ef          	jal	t0,10040c4 <__riscv_save_0>
 100245a:	10008437          	lui	s0,0x10008
 100245e:	0a044903          	lbu	s2,160(s0) # 100080a0 <_sidata+0xf0038dc>
 1002462:	04400793          	li	a5,68
 1002466:	0a144483          	lbu	s1,161(s0)
 100246a:	0af40023          	sb	a5,160(s0)
 100246e:	f8000793          	li	a5,-128
 1002472:	0af400a3          	sb	a5,161(s0)
 1002476:	0ff97913          	andi	s2,s2,255
 100247a:	373d                	jal	10023a8 <qspi0_dma_start>
 100247c:	3741                	jal	10023fc <qspi0_dma_wait>
 100247e:	0ff4f493          	andi	s1,s1,255
 1002482:	0b240023          	sb	s2,160(s0)
 1002486:	0a9400a3          	sb	s1,161(s0)
 100248a:	45f0106f          	j	10040e8 <__riscv_restore_0>

0100248e <qspi0_flash_cmd>:
qspi0_flash_cmd():
 100248e:	437012ef          	jal	t0,10040c4 <__riscv_save_0>
 1002492:	1141                	addi	sp,sp,-16
 1002494:	00a10623          	sb	a0,12(sp)
 1002498:	4585                	li	a1,1
 100249a:	0068                	addi	a0,sp,12
 100249c:	3fbd                	jal	100241a <qspi0_write>
 100249e:	0141                	addi	sp,sp,16
 10024a0:	4490106f          	j	10040e8 <__riscv_restore_0>

010024a4 <qspi0_flash_readstatus1>:
qspi0_flash_readstatus1():
 10024a4:	421012ef          	jal	t0,10040c4 <__riscv_save_0>
 10024a8:	1141                	addi	sp,sp,-16
 10024aa:	4795                	li	a5,5
 10024ac:	862a                	mv	a2,a0
 10024ae:	4685                	li	a3,1
 10024b0:	4585                	li	a1,1
 10024b2:	0068                	addi	a0,sp,12
 10024b4:	00f10623          	sb	a5,12(sp)
 10024b8:	3f79                	jal	1002456 <qspi0_read_write>
 10024ba:	0141                	addi	sp,sp,16
 10024bc:	42d0106f          	j	10040e8 <__riscv_restore_0>

010024c0 <qspi0_flash_readstatus2>:
qspi0_flash_readstatus2():
 10024c0:	405012ef          	jal	t0,10040c4 <__riscv_save_0>
 10024c4:	1141                	addi	sp,sp,-16
 10024c6:	03500793          	li	a5,53
 10024ca:	862a                	mv	a2,a0
 10024cc:	4685                	li	a3,1
 10024ce:	4585                	li	a1,1
 10024d0:	0068                	addi	a0,sp,12
 10024d2:	00f10623          	sb	a5,12(sp)
 10024d6:	3741                	jal	1002456 <qspi0_read_write>
 10024d8:	0141                	addi	sp,sp,16
 10024da:	40f0106f          	j	10040e8 <__riscv_restore_0>

010024de <qspi0_flash_waitfinish>:
qspi0_flash_waitfinish():
 10024de:	3e7012ef          	jal	t0,10040c4 <__riscv_save_0>
 10024e2:	1141                	addi	sp,sp,-16
 10024e4:	4785                	li	a5,1
 10024e6:	01000437          	lui	s0,0x1000
 10024ea:	00f107a3          	sb	a5,15(sp)
 10024ee:	0405                	addi	s0,s0,1
 10024f0:	00f10513          	addi	a0,sp,15
 10024f4:	147d                	addi	s0,s0,-1
 10024f6:	377d                	jal	10024a4 <qspi0_flash_readstatus1>
 10024f8:	00040b63          	beqz	s0,100250e <qspi0_flash_waitfinish+0x30>
 10024fc:	00f14783          	lbu	a5,15(sp)
 1002500:	8b85                	andi	a5,a5,1
 1002502:	fe0797e3          	bnez	a5,10024f0 <qspi0_flash_waitfinish+0x12>
 1002506:	4505                	li	a0,1
 1002508:	0141                	addi	sp,sp,16
 100250a:	3df0106f          	j	10040e8 <__riscv_restore_0>
 100250e:	4501                	li	a0,0
 1002510:	bfe5                	j	1002508 <qspi0_flash_waitfinish+0x2a>

01002512 <qspi0_flash_writestatus>:
qspi0_flash_writestatus():
 1002512:	3b3012ef          	jal	t0,10040c4 <__riscv_save_0>
 1002516:	1141                	addi	sp,sp,-16
 1002518:	4785                	li	a5,1
 100251a:	00f10623          	sb	a5,12(sp)
 100251e:	00054783          	lbu	a5,0(a0)
 1002522:	00f106a3          	sb	a5,13(sp)
 1002526:	00154783          	lbu	a5,1(a0)
 100252a:	4519                	li	a0,6
 100252c:	00f10723          	sb	a5,14(sp)
 1002530:	3fb9                	jal	100248e <qspi0_flash_cmd>
 1002532:	00050663          	beqz	a0,100253e <qspi0_flash_writestatus+0x2c>
 1002536:	458d                	li	a1,3
 1002538:	0068                	addi	a0,sp,12
 100253a:	35c5                	jal	100241a <qspi0_write>
 100253c:	374d                	jal	10024de <qspi0_flash_waitfinish>
 100253e:	0141                	addi	sp,sp,16
 1002540:	3a90106f          	j	10040e8 <__riscv_restore_0>

01002544 <qspi0_flash_writeenable>:
qspi0_flash_writeenable():
 1002544:	381012ef          	jal	t0,10040c4 <__riscv_save_0>
 1002548:	4519                	li	a0,6
 100254a:	3791                	jal	100248e <qspi0_flash_cmd>
 100254c:	39d0106f          	j	10040e8 <__riscv_restore_0>

01002550 <_qspi0_flash_write>:
_qspi0_flash_write():
 1002550:	35b012ef          	jal	t0,10040aa <__riscv_save_4>
 1002554:	89ae                	mv	s3,a1
 1002556:	716d                	addi	sp,sp,-272
 1002558:	0ff98913          	addi	s2,s3,255
 100255c:	8432                	mv	s0,a2
 100255e:	8a2a                	mv	s4,a0
 1002560:	10400613          	li	a2,260
 1002564:	4581                	li	a1,0
 1002566:	0068                	addi	a0,sp,12
 1002568:	f0097913          	andi	s2,s2,-256
 100256c:	469010ef          	jal	ra,10041d4 <memset>
 1002570:	9922                	add	s2,s2,s0
 1002572:	10000a93          	li	s5,256
 1002576:	408a0a33          	sub	s4,s4,s0
 100257a:	4b09                	li	s6,2
 100257c:	01241463          	bne	s0,s2,1002584 <_qspi0_flash_write+0x34>
 1002580:	4505                	li	a0,1
 1002582:	a83d                	j	10025c0 <_qspi0_flash_write+0x70>
 1002584:	86ce                	mv	a3,s3
 1002586:	013af463          	bgeu	s5,s3,100258e <_qspi0_flash_write+0x3e>
 100258a:	10000693          	li	a3,256
 100258e:	008a07b3          	add	a5,s4,s0
 1002592:	0107d713          	srli	a4,a5,0x10
 1002596:	00e106a3          	sb	a4,13(sp)
 100259a:	00879713          	slli	a4,a5,0x8
 100259e:	07c2                	slli	a5,a5,0x10
 10025a0:	83c1                	srli	a5,a5,0x10
 10025a2:	83a1                	srli	a5,a5,0x8
 10025a4:	8fd9                	or	a5,a5,a4
 10025a6:	00f11723          	sh	a5,14(sp)
 10025aa:	01610623          	sb	s6,12(sp)
 10025ae:	007c                	addi	a5,sp,12
 10025b0:	4481                	li	s1,0
 10025b2:	0785                	addi	a5,a5,1
 10025b4:	00d49963          	bne	s1,a3,10025c6 <_qspi0_flash_write+0x76>
 10025b8:	3771                	jal	1002544 <qspi0_flash_writeenable>
 10025ba:	00051e63          	bnez	a0,10025d6 <_qspi0_flash_write+0x86>
 10025be:	4501                	li	a0,0
 10025c0:	6151                	addi	sp,sp,272
 10025c2:	31d0106f          	j	10040de <__riscv_restore_4>
 10025c6:	00940733          	add	a4,s0,s1
 10025ca:	00074703          	lbu	a4,0(a4)
 10025ce:	0485                	addi	s1,s1,1
 10025d0:	00e781a3          	sb	a4,3(a5) # 10003 <__EN_MIE-0xff007b>
 10025d4:	bff9                	j	10025b2 <_qspi0_flash_write+0x62>
 10025d6:	00448593          	addi	a1,s1,4
 10025da:	0068                	addi	a0,sp,12
 10025dc:	3d3d                	jal	100241a <qspi0_write>
 10025de:	fe0500e3          	beqz	a0,10025be <_qspi0_flash_write+0x6e>
 10025e2:	3df5                	jal	10024de <qspi0_flash_waitfinish>
 10025e4:	10040413          	addi	s0,s0,256 # 1000100 <Default_IRQHandler+0x58>
 10025e8:	fc050be3          	beqz	a0,10025be <_qspi0_flash_write+0x6e>
 10025ec:	409989b3          	sub	s3,s3,s1
 10025f0:	b771                	j	100257c <_qspi0_flash_write+0x2c>

010025f2 <_qspi0_flash_erase>:
_qspi0_flash_erase():
 10025f2:	2d3012ef          	jal	t0,10040c4 <__riscv_save_0>
 10025f6:	1101                	addi	sp,sp,-32
 10025f8:	c62e                	sw	a1,12(sp)
 10025fa:	842a                	mv	s0,a0
 10025fc:	ce02                	sw	zero,28(sp)
 10025fe:	3799                	jal	1002544 <qspi0_flash_writeenable>
 1002600:	45b2                	lw	a1,12(sp)
 1002602:	00051663          	bnez	a0,100260e <_qspi0_flash_erase+0x1c>
 1002606:	4501                	li	a0,0
 1002608:	6105                	addi	sp,sp,32
 100260a:	2df0106f          	j	10040e8 <__riscv_restore_0>
 100260e:	0105d793          	srli	a5,a1,0x10
 1002612:	00f10ea3          	sb	a5,29(sp)
 1002616:	00859793          	slli	a5,a1,0x8
 100261a:	05c2                	slli	a1,a1,0x10
 100261c:	81c1                	srli	a1,a1,0x10
 100261e:	81a1                	srli	a1,a1,0x8
 1002620:	8ddd                	or	a1,a1,a5
 1002622:	00b11f23          	sh	a1,30(sp)
 1002626:	0868                	addi	a0,sp,28
 1002628:	4591                	li	a1,4
 100262a:	00810e23          	sb	s0,28(sp)
 100262e:	33f5                	jal	100241a <qspi0_write>
 1002630:	fc050be3          	beqz	a0,1002606 <_qspi0_flash_erase+0x14>
 1002634:	356d                	jal	10024de <qspi0_flash_waitfinish>
 1002636:	bfc9                	j	1002608 <_qspi0_flash_erase+0x16>

01002638 <qspi0_flash_sectorerase>:
qspi0_flash_sectorerase():
 1002638:	28d012ef          	jal	t0,10040c4 <__riscv_save_0>
 100263c:	842a                	mv	s0,a0
 100263e:	010025b7          	lui	a1,0x1002
 1002642:	01002537          	lui	a0,0x1002
 1002646:	63858593          	addi	a1,a1,1592 # 1002638 <qspi0_flash_sectorerase>
 100264a:	3a850513          	addi	a0,a0,936 # 10023a8 <qspi0_dma_start>
 100264e:	3399                	jal	1002394 <prefetch>
 1002650:	85a2                	mv	a1,s0
 1002652:	02000513          	li	a0,32
 1002656:	3f71                	jal	10025f2 <_qspi0_flash_erase>
 1002658:	2910106f          	j	10040e8 <__riscv_restore_0>

0100265c <qspi0_flash_write>:
qspi0_flash_write():
 100265c:	269012ef          	jal	t0,10040c4 <__riscv_save_0>
 1002660:	842a                	mv	s0,a0
 1002662:	84ae                	mv	s1,a1
 1002664:	01002537          	lui	a0,0x1002
 1002668:	010025b7          	lui	a1,0x1002
 100266c:	1141                	addi	sp,sp,-16
 100266e:	65c58593          	addi	a1,a1,1628 # 100265c <qspi0_flash_write>
 1002672:	3a850513          	addi	a0,a0,936 # 10023a8 <qspi0_dma_start>
 1002676:	c632                	sw	a2,12(sp)
 1002678:	3b31                	jal	1002394 <prefetch>
 100267a:	4632                	lw	a2,12(sp)
 100267c:	85a6                	mv	a1,s1
 100267e:	8522                	mv	a0,s0
 1002680:	3dc1                	jal	1002550 <_qspi0_flash_write>
 1002682:	0141                	addi	sp,sp,16
 1002684:	2650106f          	j	10040e8 <__riscv_restore_0>

01002688 <qspi0_flash_arealock>:
qspi0_flash_arealock():
 1002688:	23d012ef          	jal	t0,10040c4 <__riscv_save_0>
 100268c:	1141                	addi	sp,sp,-16
 100268e:	84aa                	mv	s1,a0
 1002690:	0068                	addi	a0,sp,12
 1002692:	842e                	mv	s0,a1
 1002694:	3d01                	jal	10024a4 <qspi0_flash_readstatus1>
 1002696:	00051663          	bnez	a0,10026a2 <qspi0_flash_arealock+0x1a>
 100269a:	4501                	li	a0,0
 100269c:	0141                	addi	sp,sp,16
 100269e:	24b0106f          	j	10040e8 <__riscv_restore_0>
 10026a2:	00d10513          	addi	a0,sp,13
 10026a6:	3d29                	jal	10024c0 <qspi0_flash_readstatus2>
 10026a8:	fe0509e3          	beqz	a0,100269a <qspi0_flash_arealock+0x12>
 10026ac:	00c14703          	lbu	a4,12(sp)
 10026b0:	00d14783          	lbu	a5,13(sp)
 10026b4:	08377713          	andi	a4,a4,131
 10026b8:	0837f793          	andi	a5,a5,131
 10026bc:	00e10623          	sb	a4,12(sp)
 10026c0:	00f106a3          	sb	a5,13(sp)
 10026c4:	00048563          	beqz	s1,10026ce <qspi0_flash_arealock+0x46>
 10026c8:	8f41                	or	a4,a4,s0
 10026ca:	00e10623          	sb	a4,12(sp)
 10026ce:	0fe00713          	li	a4,254
 10026d2:	00877663          	bgeu	a4,s0,10026de <qspi0_flash_arealock+0x56>
 10026d6:	0407e793          	ori	a5,a5,64
 10026da:	00f106a3          	sb	a5,13(sp)
 10026de:	0068                	addi	a0,sp,12
 10026e0:	3d0d                	jal	1002512 <qspi0_flash_writestatus>
 10026e2:	bf6d                	j	100269c <qspi0_flash_arealock+0x14>

010026e4 <qspi0_flashwrite_lock>:
qspi0_flashwrite_lock():
 10026e4:	1e1012ef          	jal	t0,10040c4 <__riscv_save_0>
 10026e8:	842a                	mv	s0,a0
 10026ea:	84ae                	mv	s1,a1
 10026ec:	01002537          	lui	a0,0x1002
 10026f0:	010025b7          	lui	a1,0x1002
 10026f4:	6e458593          	addi	a1,a1,1764 # 10026e4 <qspi0_flashwrite_lock>
 10026f8:	3a850513          	addi	a0,a0,936 # 10023a8 <qspi0_dma_start>
 10026fc:	3961                	jal	1002394 <prefetch>
 10026fe:	85a6                	mv	a1,s1
 1002700:	8522                	mv	a0,s0
 1002702:	3759                	jal	1002688 <qspi0_flash_arealock>
 1002704:	1e50106f          	j	10040e8 <__riscv_restore_0>

01002708 <System_WorkClockGet>:
System_WorkClockGet():
 1002708:	100087b7          	lui	a5,0x10008
 100270c:	0427c703          	lbu	a4,66(a5) # 10008042 <_sidata+0xf00387e>
 1002710:	0437c783          	lbu	a5,67(a5)
 1002714:	8b0d                	andi	a4,a4,3
 1002716:	0ff7f793          	andi	a5,a5,255
 100271a:	02070263          	beqz	a4,100273e <System_WorkClockGet+0x36>
 100271e:	4685                	li	a3,1
 1002720:	4501                	li	a0,0
 1002722:	04d71163          	bne	a4,a3,1002764 <System_WorkClockGet+0x5c>
 1002726:	8785                	srai	a5,a5,0x1
 1002728:	8b8d                	andi	a5,a5,3
 100272a:	00078f63          	beqz	a5,1002748 <System_WorkClockGet+0x40>
 100272e:	02e78263          	beq	a5,a4,1002752 <System_WorkClockGet+0x4a>
 1002732:	4709                	li	a4,2
 1002734:	02e78463          	beq	a5,a4,100275c <System_WorkClockGet+0x54>
 1002738:	0b71b537          	lui	a0,0xb71b
 100273c:	8082                	ret
 100273e:	016e3537          	lui	a0,0x16e3
 1002742:	60050513          	addi	a0,a0,1536 # 16e3600 <_sidata+0x6dee3c>
 1002746:	8082                	ret
 1002748:	02dc7537          	lui	a0,0x2dc7
 100274c:	c0050513          	addi	a0,a0,-1024 # 2dc6c00 <_sidata+0x1dc243c>
 1002750:	8082                	ret
 1002752:	091ea537          	lui	a0,0x91ea
 1002756:	84050513          	addi	a0,a0,-1984 # 91e9840 <_sidata+0x81e507c>
 100275a:	8082                	ret
 100275c:	05b8e537          	lui	a0,0x5b8e
 1002760:	80050513          	addi	a0,a0,-2048 # 5b8d800 <_sidata+0x4b8903c>
 1002764:	8082                	ret

01002766 <RV_TM_IRQHandler>:
RV_TM_IRQHandler():
 1002766:	100107b7          	lui	a5,0x10010
 100276a:	0747a783          	lw	a5,116(a5) # 10010074 <g_systickIrqCallback>
 100276e:	00078763          	beqz	a5,100277c <RV_TM_IRQHandler+0x16>
 1002772:	153012ef          	jal	t0,10040c4 <__riscv_save_0>
 1002776:	9782                	jalr	a5
 1002778:	1710106f          	j	10040e8 <__riscv_restore_0>
 100277c:	8082                	ret

0100277e <app_sleep_check>:
app_sleep_check():
 100277e:	4505                	li	a0,1
 1002780:	8082                	ret

01002782 <prepare_before_sleep>:
prepare_before_sleep():
 1002782:	8082                	ret

01002784 <Lpm_SleepWork>:
Lpm_SleepWork():
 1002784:	100047b7          	lui	a5,0x10004
 1002788:	470d                	li	a4,3
 100278a:	48e78aa3          	sb	a4,1173(a5) # 10004495 <_sidata+0xefffcd1>
 100278e:	100046b7          	lui	a3,0x10004
 1002792:	4956c783          	lbu	a5,1173(a3) # 10004495 <_sidata+0xefffcd1>
 1002796:	fef70ee3          	beq	a4,a5,1002792 <Lpm_SleepWork+0xe>
 100279a:	8082                	ret

0100279c <Lpm_GetWakeFlag>:
Lpm_GetWakeFlag():
 100279c:	100047b7          	lui	a5,0x10004
 10027a0:	4d27c503          	lbu	a0,1234(a5) # 100044d2 <_sidata+0xefffd0e>
 10027a4:	8082                	ret

010027a6 <Lpm_CheckLpmFlag>:
Lpm_CheckLpmFlag():
 10027a6:	10004737          	lui	a4,0x10004
 10027aa:	4d374683          	lbu	a3,1235(a4) # 100044d3 <_sidata+0xefffd0f>
 10027ae:	4d474783          	lbu	a5,1236(a4)
 10027b2:	4501                	li	a0,0
 10027b4:	07a2                	slli	a5,a5,0x8
 10027b6:	8fd5                	or	a5,a5,a3
 10027b8:	00079863          	bnez	a5,10027c8 <Lpm_CheckLpmFlag+0x22>
 10027bc:	1a974503          	lbu	a0,425(a4)
 10027c0:	0ff57513          	andi	a0,a0,255
 10027c4:	00a03533          	snez	a0,a0
 10027c8:	8082                	ret

010027ca <Lpm_PollingWork>:
Lpm_PollingWork():
 10027ca:	0fb012ef          	jal	t0,10040c4 <__riscv_save_0>
 10027ce:	100047b7          	lui	a5,0x10004
 10027d2:	4957c783          	lbu	a5,1173(a5) # 10004495 <_sidata+0xefffcd1>
 10027d6:	4705                	li	a4,1
 10027d8:	0ff7f793          	andi	a5,a5,255
 10027dc:	06e78363          	beq	a5,a4,1002842 <Lpm_PollingWork+0x78>
 10027e0:	00078763          	beqz	a5,10027ee <Lpm_PollingWork+0x24>
 10027e4:	4709                	li	a4,2
 10027e6:	00e78863          	beq	a5,a4,10027f6 <Lpm_PollingWork+0x2c>
 10027ea:	0ff0106f          	j	10040e8 <__riscv_restore_0>
 10027ee:	04000513          	li	a0,64
 10027f2:	20a5                	jal	100285a <Lpm_unLockLpm>
 10027f4:	bfdd                	j	10027ea <Lpm_PollingWork+0x20>
 10027f6:	30047073          	csrci	mstatus,8
 10027fa:	10010437          	lui	s0,0x10010
 10027fe:	08845783          	lhu	a5,136(s0) # 10010088 <gOsEnterCriticalCnt>
 1002802:	0785                	addi	a5,a5,1
 1002804:	08f41423          	sh	a5,136(s0)
 1002808:	d6aff0ef          	jal	ra,1001d72 <IPC_IsTxBuffEmpty>
 100280c:	02050663          	beqz	a0,1002838 <Lpm_PollingWork+0x6e>
 1002810:	3f59                	jal	10027a6 <Lpm_CheckLpmFlag>
 1002812:	02050363          	beqz	a0,1002838 <Lpm_PollingWork+0x6e>
 1002816:	37a5                	jal	100277e <app_sleep_check>
 1002818:	02050063          	beqz	a0,1002838 <Lpm_PollingWork+0x6e>
 100281c:	379d                	jal	1002782 <prepare_before_sleep>
 100281e:	379d                	jal	1002784 <Lpm_SleepWork>
 1002820:	08845783          	lhu	a5,136(s0)
 1002824:	17fd                	addi	a5,a5,-1
 1002826:	07c2                	slli	a5,a5,0x10
 1002828:	83c1                	srli	a5,a5,0x10
 100282a:	08f41423          	sh	a5,136(s0)
 100282e:	fa079ee3          	bnez	a5,10027ea <Lpm_PollingWork+0x20>
 1002832:	30046073          	csrsi	mstatus,8
 1002836:	bf55                	j	10027ea <Lpm_PollingWork+0x20>
 1002838:	100047b7          	lui	a5,0x10004
 100283c:	48078aa3          	sb	zero,1173(a5) # 10004495 <_sidata+0xefffcd1>
 1002840:	b7c5                	j	1002820 <Lpm_PollingWork+0x56>
 1002842:	30047073          	csrci	mstatus,8
 1002846:	10010737          	lui	a4,0x10010
 100284a:	08875783          	lhu	a5,136(a4) # 10010088 <gOsEnterCriticalCnt>
 100284e:	0785                	addi	a5,a5,1
 1002850:	08f71423          	sh	a5,136(a4)
 1002854:	373d                	jal	1002782 <prepare_before_sleep>
 1002856:	373d                	jal	1002784 <Lpm_SleepWork>
 1002858:	bf49                	j	10027ea <Lpm_PollingWork+0x20>

0100285a <Lpm_unLockLpm>:
Lpm_unLockLpm():
 100285a:	10004737          	lui	a4,0x10004
 100285e:	4d374683          	lbu	a3,1235(a4) # 100044d3 <_sidata+0xefffd0f>
 1002862:	4d474783          	lbu	a5,1236(a4)
 1002866:	fff54513          	not	a0,a0
 100286a:	07a2                	slli	a5,a5,0x8
 100286c:	8fd5                	or	a5,a5,a3
 100286e:	8d7d                	and	a0,a0,a5
 1002870:	0542                	slli	a0,a0,0x10
 1002872:	8541                	srai	a0,a0,0x10
 1002874:	0ff57793          	andi	a5,a0,255
 1002878:	0542                	slli	a0,a0,0x10
 100287a:	8141                	srli	a0,a0,0x10
 100287c:	4cf709a3          	sb	a5,1235(a4)
 1002880:	8121                	srli	a0,a0,0x8
 1002882:	4ca70a23          	sb	a0,1236(a4)
 1002886:	8082                	ret

01002888 <Lpm_LockLpm>:
Lpm_LockLpm():
 1002888:	10004737          	lui	a4,0x10004
 100288c:	4d374683          	lbu	a3,1235(a4) # 100044d3 <_sidata+0xefffd0f>
 1002890:	4d474783          	lbu	a5,1236(a4)
 1002894:	07a2                	slli	a5,a5,0x8
 1002896:	8d5d                	or	a0,a0,a5
 1002898:	8d55                	or	a0,a0,a3
 100289a:	0542                	slli	a0,a0,0x10
 100289c:	8541                	srai	a0,a0,0x10
 100289e:	0ff57793          	andi	a5,a0,255
 10028a2:	0542                	slli	a0,a0,0x10
 10028a4:	8141                	srli	a0,a0,0x10
 10028a6:	4cf709a3          	sb	a5,1235(a4)
 10028aa:	8121                	srli	a0,a0,0x8
 10028ac:	4ca70a23          	sb	a0,1236(a4)
 10028b0:	8082                	ret

010028b2 <Lpm_EnableSet>:
Lpm_EnableSet():
 10028b2:	100047b7          	lui	a5,0x10004
 10028b6:	1aa784a3          	sb	a0,425(a5) # 100041a9 <_sidata+0xefff9e5>
 10028ba:	8082                	ret

010028bc <App_AAPSwichModeRsp>:
App_AAPSwichModeRsp():
 10028bc:	009012ef          	jal	t0,10040c4 <__riscv_save_0>
 10028c0:	000407b7          	lui	a5,0x40
 10028c4:	1101                	addi	sp,sp,-32
 10028c6:	0791                	addi	a5,a5,4
 10028c8:	c63e                	sw	a5,12(sp)
 10028ca:	47a5                	li	a5,9
 10028cc:	00f11823          	sh	a5,16(sp)
 10028d0:	00a109a3          	sb	a0,19(sp)
 10028d4:	47b5                	li	a5,13
 10028d6:	006c                	addi	a1,sp,12
 10028d8:	462d                	li	a2,11
 10028da:	4519                	li	a0,6
 10028dc:	00f10923          	sb	a5,18(sp)
 10028e0:	00011a23          	sh	zero,20(sp)
 10028e4:	00010b23          	sb	zero,22(sp)
 10028e8:	939ff0ef          	jal	ra,1002220 <IPC_TxCommon>
 10028ec:	006c                	addi	a1,sp,12
 10028ee:	462d                	li	a2,11
 10028f0:	4511                	li	a0,4
 10028f2:	2ea1                	jal	1002c4a <Bt_SndDataToRespin>
 10028f4:	6105                	addi	sp,sp,32
 10028f6:	7f20106f          	j	10040e8 <__riscv_restore_0>

010028fa <App_EvtAAPCallBack>:
App_EvtAAPCallBack():
 10028fa:	7ca012ef          	jal	t0,10040c4 <__riscv_save_0>
 10028fe:	10005737          	lui	a4,0x10005
 1002902:	ffb74783          	lbu	a5,-5(a4) # 10004ffb <_sidata+0xf000837>
 1002906:	0785                	addi	a5,a5,1
 1002908:	0ff7f793          	andi	a5,a5,255
 100290c:	fef70da3          	sb	a5,-5(a4)
 1002910:	00454783          	lbu	a5,4(a0)
 1002914:	02079563          	bnez	a5,100293e <App_EvtAAPCallBack+0x44>
 1002918:	00554783          	lbu	a5,5(a0)
 100291c:	00079f63          	bnez	a5,100293a <App_EvtAAPCallBack+0x40>
 1002920:	00654703          	lbu	a4,6(a0)
 1002924:	4791                	li	a5,4
 1002926:	00f71a63          	bne	a4,a5,100293a <App_EvtAAPCallBack+0x40>
 100292a:	22f5                	jal	1002b16 <Bt_HciWaitBufferElement>
 100292c:	010045b7          	lui	a1,0x1004
 1002930:	4649                	li	a2,18
 1002932:	38c58593          	addi	a1,a1,908 # 100438c <aap_rsp>
 1002936:	4511                	li	a0,4
 1002938:	2e09                	jal	1002c4a <Bt_SndDataToRespin>
 100293a:	7ae0106f          	j	10040e8 <__riscv_restore_0>
 100293e:	4711                	li	a4,4
 1002940:	fee79de3          	bne	a5,a4,100293a <App_EvtAAPCallBack+0x40>
 1002944:	00554703          	lbu	a4,5(a0)
 1002948:	fe0719e3          	bnez	a4,100293a <App_EvtAAPCallBack+0x40>
 100294c:	00654703          	lbu	a4,6(a0)
 1002950:	fef715e3          	bne	a4,a5,100293a <App_EvtAAPCallBack+0x40>
 1002954:	00754783          	lbu	a5,7(a0)
 1002958:	fe0791e3          	bnez	a5,100293a <App_EvtAAPCallBack+0x40>
 100295c:	00854783          	lbu	a5,8(a0)
 1002960:	02100713          	li	a4,33
 1002964:	04e79263          	bne	a5,a4,10029a8 <App_EvtAAPCallBack+0xae>
 1002968:	227d                	jal	1002b16 <Bt_HciWaitBufferElement>
 100296a:	010045b7          	lui	a1,0x1004
 100296e:	4631                	li	a2,12
 1002970:	48858593          	addi	a1,a1,1160 # 1004488 <AAP_AcpAnc1>
 1002974:	4511                	li	a0,4
 1002976:	2cd1                	jal	1002c4a <Bt_SndDataToRespin>
 1002978:	2a79                	jal	1002b16 <Bt_HciWaitBufferElement>
 100297a:	010045b7          	lui	a1,0x1004
 100297e:	4635                	li	a2,13
 1002980:	49458593          	addi	a1,a1,1172 # 1004494 <AAP_StartAnc2>
 1002984:	4511                	li	a0,4
 1002986:	24d1                	jal	1002c4a <Bt_SndDataToRespin>
 1002988:	2279                	jal	1002b16 <Bt_HciWaitBufferElement>
 100298a:	010045b7          	lui	a1,0x1004
 100298e:	0bc00613          	li	a2,188
 1002992:	4a458593          	addi	a1,a1,1188 # 10044a4 <AAP_AncRst3>
 1002996:	4511                	li	a0,4
 1002998:	2c4d                	jal	1002c4a <Bt_SndDataToRespin>
 100299a:	2ab5                	jal	1002b16 <Bt_HciWaitBufferElement>
 100299c:	010045b7          	lui	a1,0x1004
 10029a0:	4635                	li	a2,13
 10029a2:	56058593          	addi	a1,a1,1376 # 1004560 <AAP_StopAnc4>
 10029a6:	bf41                	j	1002936 <App_EvtAAPCallBack+0x3c>
 10029a8:	476d                	li	a4,27
 10029aa:	04e79363          	bne	a5,a4,10029f0 <App_EvtAAPCallBack+0xf6>
 10029ae:	22a5                	jal	1002b16 <Bt_HciWaitBufferElement>
 10029b0:	010045b7          	lui	a1,0x1004
 10029b4:	09600613          	li	a2,150
 10029b8:	3a058593          	addi	a1,a1,928 # 10043a0 <AAP_manufac1>
 10029bc:	4511                	li	a0,4
 10029be:	2471                	jal	1002c4a <Bt_SndDataToRespin>
 10029c0:	2a99                	jal	1002b16 <Bt_HciWaitBufferElement>
 10029c2:	010045b7          	lui	a1,0x1004
 10029c6:	4621                	li	a2,8
 10029c8:	43858593          	addi	a1,a1,1080 # 1004438 <AAP_manufac2>
 10029cc:	4511                	li	a0,4
 10029ce:	2cb5                	jal	1002c4a <Bt_SndDataToRespin>
 10029d0:	2299                	jal	1002b16 <Bt_HciWaitBufferElement>
 10029d2:	010045b7          	lui	a1,0x1004
 10029d6:	02f00613          	li	a2,47
 10029da:	44058593          	addi	a1,a1,1088 # 1004440 <AAP_manufac3>
 10029de:	4511                	li	a0,4
 10029e0:	24ad                	jal	1002c4a <Bt_SndDataToRespin>
 10029e2:	2a15                	jal	1002b16 <Bt_HciWaitBufferElement>
 10029e4:	010045b7          	lui	a1,0x1004
 10029e8:	4659                	li	a2,22
 10029ea:	47058593          	addi	a1,a1,1136 # 1004470 <AAP_manufac4>
 10029ee:	b7a1                	j	1002936 <App_EvtAAPCallBack+0x3c>
 10029f0:	4725                	li	a4,9
 10029f2:	f4e794e3          	bne	a5,a4,100293a <App_EvtAAPCallBack+0x40>
 10029f6:	00954783          	lbu	a5,9(a0)
 10029fa:	f40790e3          	bnez	a5,100293a <App_EvtAAPCallBack+0x40>
 10029fe:	00a54703          	lbu	a4,10(a0)
 1002a02:	47b5                	li	a5,13
 1002a04:	f2f71be3          	bne	a4,a5,100293a <App_EvtAAPCallBack+0x40>
 1002a08:	00b50503          	lb	a0,11(a0)
 1002a0c:	3d45                	jal	10028bc <App_AAPSwichModeRsp>
 1002a0e:	b735                	j	100293a <App_EvtAAPCallBack+0x40>

01002a10 <Bt_HciFifo_Init>:
Bt_HciFifo_Init():
 1002a10:	6b4012ef          	jal	t0,10040c4 <__riscv_save_0>
 1002a14:	100107b7          	lui	a5,0x10010
 1002a18:	0787a503          	lw	a0,120(a5) # 10010078 <gpHciDataFifo>
 1002a1c:	843e                	mv	s0,a5
 1002a1e:	00050463          	beqz	a0,1002a26 <Bt_HciFifo_Init+0x16>
 1002a22:	80aff0ef          	jal	ra,1001a2c <Memory_Free>
 1002a26:	6485                	lui	s1,0x1
 1002a28:	df648513          	addi	a0,s1,-522 # df6 <__EN_MIE-0xfff288>
 1002a2c:	f39fe0ef          	jal	ra,1001964 <Memory_Malloc>
 1002a30:	df648613          	addi	a2,s1,-522
 1002a34:	4581                	li	a1,0
 1002a36:	06a42c23          	sw	a0,120(s0)
 1002a3a:	79a010ef          	jal	ra,10041d4 <memset>
 1002a3e:	10010537          	lui	a0,0x10010
 1002a42:	4661                	li	a2,24
 1002a44:	4581                	li	a1,0
 1002a46:	08c50513          	addi	a0,a0,140 # 1001008c <gHciDataDebug>
 1002a4a:	78a010ef          	jal	ra,10041d4 <memset>
 1002a4e:	69a0106f          	j	10040e8 <__riscv_restore_0>

01002a52 <Bt_HciFifoIn>:
Bt_HciFifoIn():
 1002a52:	100107b7          	lui	a5,0x10010
 1002a56:	0787a703          	lw	a4,120(a5) # 10010078 <gpHciDataFifo>
 1002a5a:	00374783          	lbu	a5,3(a4)
 1002a5e:	00274683          	lbu	a3,2(a4)
 1002a62:	07a2                	slli	a5,a5,0x8
 1002a64:	8fd5                	or	a5,a5,a3
 1002a66:	46b5                	li	a3,13
 1002a68:	02f6e763          	bltu	a3,a5,1002a96 <Bt_HciFifoIn+0x44>
 1002a6c:	0785                	addi	a5,a5,1
 1002a6e:	07c2                	slli	a5,a5,0x10
 1002a70:	83c1                	srli	a5,a5,0x10
 1002a72:	00f70123          	sb	a5,2(a4)
 1002a76:	83a1                	srli	a5,a5,0x8
 1002a78:	00f701a3          	sb	a5,3(a4)
 1002a7c:	00174783          	lbu	a5,1(a4)
 1002a80:	46b9                	li	a3,14
 1002a82:	0785                	addi	a5,a5,1
 1002a84:	0ff7f793          	andi	a5,a5,255
 1002a88:	00d78563          	beq	a5,a3,1002a92 <Bt_HciFifoIn+0x40>
 1002a8c:	00f700a3          	sb	a5,1(a4)
 1002a90:	8082                	ret
 1002a92:	000700a3          	sb	zero,1(a4)
 1002a96:	8082                	ret

01002a98 <Bt_HciFifoOut>:
Bt_HciFifoOut():
 1002a98:	100107b7          	lui	a5,0x10010
 1002a9c:	0787a703          	lw	a4,120(a5) # 10010078 <gpHciDataFifo>
 1002aa0:	00374783          	lbu	a5,3(a4)
 1002aa4:	00274683          	lbu	a3,2(a4)
 1002aa8:	07a2                	slli	a5,a5,0x8
 1002aaa:	8fd5                	or	a5,a5,a3
 1002aac:	02078763          	beqz	a5,1002ada <Bt_HciFifoOut+0x42>
 1002ab0:	17fd                	addi	a5,a5,-1
 1002ab2:	07c2                	slli	a5,a5,0x10
 1002ab4:	83c1                	srli	a5,a5,0x10
 1002ab6:	00f70123          	sb	a5,2(a4)
 1002aba:	83a1                	srli	a5,a5,0x8
 1002abc:	00f701a3          	sb	a5,3(a4)
 1002ac0:	00074783          	lbu	a5,0(a4)
 1002ac4:	46b9                	li	a3,14
 1002ac6:	0785                	addi	a5,a5,1
 1002ac8:	0ff7f793          	andi	a5,a5,255
 1002acc:	00d78563          	beq	a5,a3,1002ad6 <Bt_HciFifoOut+0x3e>
 1002ad0:	00f70023          	sb	a5,0(a4)
 1002ad4:	8082                	ret
 1002ad6:	00070023          	sb	zero,0(a4)
 1002ada:	8082                	ret

01002adc <Bt_HciCheckBufferFull>:
Bt_HciCheckBufferFull():
 1002adc:	100107b7          	lui	a5,0x10010
 1002ae0:	0787a783          	lw	a5,120(a5) # 10010078 <gpHciDataFifo>
 1002ae4:	0027c703          	lbu	a4,2(a5)
 1002ae8:	47b5                	li	a5,13
 1002aea:	00e7ea63          	bltu	a5,a4,1002afe <Bt_HciCheckBufferFull+0x22>
 1002aee:	100047b7          	lui	a5,0x10004
 1002af2:	5987c783          	lbu	a5,1432(a5) # 10004598 <_sidata+0xefffdd4>
 1002af6:	4719                	li	a4,6
 1002af8:	4501                	li	a0,0
 1002afa:	00f76d63          	bltu	a4,a5,1002b14 <Bt_HciCheckBufferFull+0x38>
 1002afe:	5c6012ef          	jal	t0,10040c4 <__riscv_save_0>
 1002b02:	01004537          	lui	a0,0x1004
 1002b06:	57050513          	addi	a0,a0,1392 # 1004570 <AAP_StopAnc4+0x10>
 1002b0a:	c4ffe0ef          	jal	ra,1001758 <print_string_log>
 1002b0e:	4505                	li	a0,1
 1002b10:	5d80106f          	j	10040e8 <__riscv_restore_0>
 1002b14:	8082                	ret

01002b16 <Bt_HciWaitBufferElement>:
Bt_HciWaitBufferElement():
 1002b16:	5ae012ef          	jal	t0,10040c4 <__riscv_save_0>
 1002b1a:	37c9                	jal	1002adc <Bt_HciCheckBufferFull>
 1002b1c:	fe051fe3          	bnez	a0,1002b1a <Bt_HciWaitBufferElement+0x4>
 1002b20:	5c80106f          	j	10040e8 <__riscv_restore_0>

01002b24 <Bt_SndToBtData>:
Bt_SndToBtData():
 1002b24:	5a0012ef          	jal	t0,10040c4 <__riscv_save_0>
 1002b28:	1141                	addi	sp,sp,-16
 1002b2a:	842a                	mv	s0,a0
 1002b2c:	30047073          	csrci	mstatus,8
 1002b30:	100104b7          	lui	s1,0x10010
 1002b34:	0884d783          	lhu	a5,136(s1) # 10010088 <gOsEnterCriticalCnt>
 1002b38:	00b106a3          	sb	a1,13(sp)
 1002b3c:	00a10623          	sb	a0,12(sp)
 1002b40:	0785                	addi	a5,a5,1
 1002b42:	08f49423          	sh	a5,136(s1)
 1002b46:	0085d793          	srli	a5,a1,0x8
 1002b4a:	81c1                	srli	a1,a1,0x10
 1002b4c:	00b107a3          	sb	a1,15(sp)
 1002b50:	4611                	li	a2,4
 1002b52:	006c                	addi	a1,sp,12
 1002b54:	451d                	li	a0,7
 1002b56:	00f10723          	sb	a5,14(sp)
 1002b5a:	ec6ff0ef          	jal	ra,1002220 <IPC_TxCommon>
 1002b5e:	0884d783          	lhu	a5,136(s1)
 1002b62:	17fd                	addi	a5,a5,-1
 1002b64:	07c2                	slli	a5,a5,0x10
 1002b66:	83c1                	srli	a5,a5,0x10
 1002b68:	08f49423          	sh	a5,136(s1)
 1002b6c:	00079463          	bnez	a5,1002b74 <Bt_SndToBtData+0x50>
 1002b70:	30046073          	csrsi	mstatus,8
 1002b74:	4795                	li	a5,5
 1002b76:	0287ec63          	bltu	a5,s0,1002bae <Bt_SndToBtData+0x8a>
 1002b7a:	010047b7          	lui	a5,0x1004
 1002b7e:	58878793          	addi	a5,a5,1416 # 1004588 <AAP_StopAnc4+0x28>
 1002b82:	040a                	slli	s0,s0,0x2
 1002b84:	943e                	add	s0,s0,a5
 1002b86:	4018                	lw	a4,0(s0)
 1002b88:	100107b7          	lui	a5,0x10010
 1002b8c:	08c78793          	addi	a5,a5,140 # 1001008c <gHciDataDebug>
 1002b90:	8702                	jr	a4
 1002b92:	0037c703          	lbu	a4,3(a5)
 1002b96:	0027c683          	lbu	a3,2(a5)
 1002b9a:	0722                	slli	a4,a4,0x8
 1002b9c:	8f55                	or	a4,a4,a3
 1002b9e:	0705                	addi	a4,a4,1
 1002ba0:	0742                	slli	a4,a4,0x10
 1002ba2:	8341                	srli	a4,a4,0x10
 1002ba4:	00e78123          	sb	a4,2(a5)
 1002ba8:	8321                	srli	a4,a4,0x8
 1002baa:	00e781a3          	sb	a4,3(a5)
 1002bae:	0141                	addi	sp,sp,16
 1002bb0:	5380106f          	j	10040e8 <__riscv_restore_0>
 1002bb4:	0017c703          	lbu	a4,1(a5)
 1002bb8:	0007c683          	lbu	a3,0(a5)
 1002bbc:	0722                	slli	a4,a4,0x8
 1002bbe:	8f55                	or	a4,a4,a3
 1002bc0:	0705                	addi	a4,a4,1
 1002bc2:	0742                	slli	a4,a4,0x10
 1002bc4:	8341                	srli	a4,a4,0x10
 1002bc6:	00e78023          	sb	a4,0(a5)
 1002bca:	8321                	srli	a4,a4,0x8
 1002bcc:	00e780a3          	sb	a4,1(a5)
 1002bd0:	bff9                	j	1002bae <Bt_SndToBtData+0x8a>
 1002bd2:	0057c703          	lbu	a4,5(a5)
 1002bd6:	0047c683          	lbu	a3,4(a5)
 1002bda:	0722                	slli	a4,a4,0x8
 1002bdc:	8f55                	or	a4,a4,a3
 1002bde:	0705                	addi	a4,a4,1
 1002be0:	0742                	slli	a4,a4,0x10
 1002be2:	8341                	srli	a4,a4,0x10
 1002be4:	00e78223          	sb	a4,4(a5)
 1002be8:	8321                	srli	a4,a4,0x8
 1002bea:	00e782a3          	sb	a4,5(a5)
 1002bee:	b7c1                	j	1002bae <Bt_SndToBtData+0x8a>
 1002bf0:	0077c703          	lbu	a4,7(a5)
 1002bf4:	0067c683          	lbu	a3,6(a5)
 1002bf8:	0722                	slli	a4,a4,0x8
 1002bfa:	8f55                	or	a4,a4,a3
 1002bfc:	0705                	addi	a4,a4,1
 1002bfe:	0742                	slli	a4,a4,0x10
 1002c00:	8341                	srli	a4,a4,0x10
 1002c02:	00e78323          	sb	a4,6(a5)
 1002c06:	8321                	srli	a4,a4,0x8
 1002c08:	00e783a3          	sb	a4,7(a5)
 1002c0c:	b74d                	j	1002bae <Bt_SndToBtData+0x8a>
 1002c0e:	0097c703          	lbu	a4,9(a5)
 1002c12:	0087c683          	lbu	a3,8(a5)
 1002c16:	0722                	slli	a4,a4,0x8
 1002c18:	8f55                	or	a4,a4,a3
 1002c1a:	0705                	addi	a4,a4,1
 1002c1c:	0742                	slli	a4,a4,0x10
 1002c1e:	8341                	srli	a4,a4,0x10
 1002c20:	00e78423          	sb	a4,8(a5)
 1002c24:	8321                	srli	a4,a4,0x8
 1002c26:	00e784a3          	sb	a4,9(a5)
 1002c2a:	b751                	j	1002bae <Bt_SndToBtData+0x8a>
 1002c2c:	00b7c703          	lbu	a4,11(a5)
 1002c30:	00a7c683          	lbu	a3,10(a5)
 1002c34:	0722                	slli	a4,a4,0x8
 1002c36:	8f55                	or	a4,a4,a3
 1002c38:	0705                	addi	a4,a4,1
 1002c3a:	0742                	slli	a4,a4,0x10
 1002c3c:	8341                	srli	a4,a4,0x10
 1002c3e:	00e78523          	sb	a4,10(a5)
 1002c42:	8321                	srli	a4,a4,0x8
 1002c44:	00e785a3          	sb	a4,11(a5)
 1002c48:	b79d                	j	1002bae <Bt_SndToBtData+0x8a>

01002c4a <Bt_SndDataToRespin>:
Bt_SndDataToRespin():
 1002c4a:	460012ef          	jal	t0,10040aa <__riscv_save_4>
 1002c4e:	100107b7          	lui	a5,0x10010
 1002c52:	0787a783          	lw	a5,120(a5) # 10010078 <gpHciDataFifo>
 1002c56:	0ff00713          	li	a4,255
 1002c5a:	00865a13          	srli	s4,a2,0x8
 1002c5e:	0017c403          	lbu	s0,1(a5)
 1002c62:	89aa                	mv	s3,a0
 1002c64:	8932                	mv	s2,a2
 1002c66:	02e40433          	mul	s0,s0,a4
 1002c6a:	008784b3          	add	s1,a5,s0
 1002c6e:	0421                	addi	s0,s0,8
 1002c70:	943e                	add	s0,s0,a5
 1002c72:	00c48423          	sb	a2,8(s1)
 1002c76:	014484a3          	sb	s4,9(s1)
 1002c7a:	00240513          	addi	a0,s0,2
 1002c7e:	49c010ef          	jal	ra,100411a <memcpy>
 1002c82:	85a2                	mv	a1,s0
 1002c84:	854e                	mv	a0,s3
 1002c86:	01248323          	sb	s2,6(s1)
 1002c8a:	014483a3          	sb	s4,7(s1)
 1002c8e:	01348223          	sb	s3,4(s1)
 1002c92:	000482a3          	sb	zero,5(s1)
 1002c96:	3579                	jal	1002b24 <Bt_SndToBtData>
 1002c98:	3b6d                	jal	1002a52 <Bt_HciFifoIn>
 1002c9a:	4440106f          	j	10040de <__riscv_restore_4>

01002c9e <Bt_BleSendData>:
Bt_BleSendData():
 1002c9e:	426012ef          	jal	t0,10040c4 <__riscv_save_0>
 1002ca2:	1141                	addi	sp,sp,-16
 1002ca4:	842a                	mv	s0,a0
 1002ca6:	c62e                	sw	a1,12(sp)
 1002ca8:	3d15                	jal	1002adc <Bt_HciCheckBufferFull>
 1002caa:	4632                	lw	a2,12(sp)
 1002cac:	00050b63          	beqz	a0,1002cc2 <Bt_BleSendData+0x24>
 1002cb0:	01004537          	lui	a0,0x1004
 1002cb4:	5a050513          	addi	a0,a0,1440 # 10045a0 <AAP_StopAnc4+0x40>
 1002cb8:	aa1fe0ef          	jal	ra,1001758 <print_string_log>
 1002cbc:	0141                	addi	sp,sp,16
 1002cbe:	42a0106f          	j	10040e8 <__riscv_restore_0>
 1002cc2:	85a2                	mv	a1,s0
 1002cc4:	4505                	li	a0,1
 1002cc6:	3751                	jal	1002c4a <Bt_SndDataToRespin>
 1002cc8:	bfd5                	j	1002cbc <Bt_BleSendData+0x1e>

01002cca <Bt_ParseRcvBLEPacket>:
Bt_ParseRcvBLEPacket():
 1002cca:	3fa012ef          	jal	t0,10040c4 <__riscv_save_0>
 1002cce:	892e                	mv	s2,a1
 1002cd0:	100005b7          	lui	a1,0x10000
 1002cd4:	00b56733          	or	a4,a0,a1
 1002cd8:	00074683          	lbu	a3,0(a4)
 1002cdc:	00150713          	addi	a4,a0,1
 1002ce0:	8f4d                	or	a4,a4,a1
 1002ce2:	00074403          	lbu	s0,0(a4)
 1002ce6:	00250713          	addi	a4,a0,2
 1002cea:	8f4d                	or	a4,a4,a1
 1002cec:	0422                	slli	s0,s0,0x8
 1002cee:	8c55                	or	s0,s0,a3
 1002cf0:	00074683          	lbu	a3,0(a4)
 1002cf4:	00350713          	addi	a4,a0,3
 1002cf8:	8f4d                	or	a4,a4,a1
 1002cfa:	00074483          	lbu	s1,0(a4)
 1002cfe:	87aa                	mv	a5,a0
 1002d00:	04a2                	slli	s1,s1,0x8
 1002d02:	8cd5                	or	s1,s1,a3
 1002d04:	00040863          	beqz	s0,1002d14 <Bt_ParseRcvBLEPacket+0x4a>
 1002d08:	0791                	addi	a5,a5,4
 1002d0a:	8532                	mv	a0,a2
 1002d0c:	8ddd                	or	a1,a1,a5
 1002d0e:	8622                	mv	a2,s0
 1002d10:	a79fe0ef          	jal	ra,1001788 <xmemcpy>
 1002d14:	00891023          	sh	s0,0(s2)
 1002d18:	00991123          	sh	s1,2(s2)
 1002d1c:	3cc0106f          	j	10040e8 <__riscv_restore_0>

01002d20 <Bt_ParseBLEL2capPacket>:
Bt_ParseBLEL2capPacket():
 1002d20:	4791                	li	a5,4
 1002d22:	00f61a63          	bne	a2,a5,1002d36 <Bt_ParseBLEL2capPacket+0x16>
 1002d26:	39e012ef          	jal	t0,10040c4 <__riscv_save_0>
 1002d2a:	0ff57513          	andi	a0,a0,255
 1002d2e:	164010ef          	jal	ra,1003e92 <ATT_Parse>
 1002d32:	3b60106f          	j	10040e8 <__riscv_restore_0>
 1002d36:	8082                	ret

01002d38 <Bt_ParseRcvSPPPacket>:
Bt_ParseRcvSPPPacket():
 1002d38:	38c012ef          	jal	t0,10040c4 <__riscv_save_0>
 1002d3c:	87aa                	mv	a5,a0
 1002d3e:	100006b7          	lui	a3,0x10000
 1002d42:	00578713          	addi	a4,a5,5
 1002d46:	8f55                	or	a4,a4,a3
 1002d48:	00074483          	lbu	s1,0(a4)
 1002d4c:	00678713          	addi	a4,a5,6
 1002d50:	8f55                	or	a4,a4,a3
 1002d52:	00074403          	lbu	s0,0(a4)
 1002d56:	8532                	mv	a0,a2
 1002d58:	892e                	mv	s2,a1
 1002d5a:	0ff47413          	andi	s0,s0,255
 1002d5e:	00147613          	andi	a2,s0,1
 1002d62:	0ff4f493          	andi	s1,s1,255
 1002d66:	02060b63          	beqz	a2,1002d9c <Bt_ParseRcvSPPPacket+0x64>
 1002d6a:	0442                	slli	s0,s0,0x10
 1002d6c:	8041                	srli	s0,s0,0x10
 1002d6e:	4701                	li	a4,0
 1002d70:	0ef00693          	li	a3,239
 1002d74:	8005                	srli	s0,s0,0x1
 1002d76:	00870593          	addi	a1,a4,8
 1002d7a:	00d49463          	bne	s1,a3,1002d82 <Bt_ParseRcvSPPPacket+0x4a>
 1002d7e:	00770593          	addi	a1,a4,7
 1002d82:	97ae                	add	a5,a5,a1
 1002d84:	100005b7          	lui	a1,0x10000
 1002d88:	8622                	mv	a2,s0
 1002d8a:	8ddd                	or	a1,a1,a5
 1002d8c:	9fdfe0ef          	jal	ra,1001788 <xmemcpy>
 1002d90:	00891023          	sh	s0,0(s2)
 1002d94:	00991123          	sh	s1,2(s2)
 1002d98:	3500106f          	j	10040e8 <__riscv_restore_0>
 1002d9c:	00074603          	lbu	a2,0(a4)
 1002da0:	00778713          	addi	a4,a5,7
 1002da4:	8f55                	or	a4,a4,a3
 1002da6:	00074403          	lbu	s0,0(a4)
 1002daa:	4705                	li	a4,1
 1002dac:	0422                	slli	s0,s0,0x8
 1002dae:	8c51                	or	s0,s0,a2
 1002db0:	b7c1                	j	1002d70 <Bt_ParseRcvSPPPacket+0x38>

01002db2 <Bt_DataBufferCallBack>:
Bt_DataBufferCallBack():
 1002db2:	312012ef          	jal	t0,10040c4 <__riscv_save_0>
 1002db6:	0025c483          	lbu	s1,2(a1) # 10000002 <_sidata+0xeffb83e>
 1002dba:	0035c783          	lbu	a5,3(a1)
 1002dbe:	4715                	li	a4,5
 1002dc0:	04a2                	slli	s1,s1,0x8
 1002dc2:	07c2                	slli	a5,a5,0x10
 1002dc4:	8cdd                	or	s1,s1,a5
 1002dc6:	0015c783          	lbu	a5,1(a1)
 1002dca:	d8010113          	addi	sp,sp,-640
 1002dce:	8cdd                	or	s1,s1,a5
 1002dd0:	100007b7          	lui	a5,0x10000
 1002dd4:	8cdd                	or	s1,s1,a5
 1002dd6:	0005c783          	lbu	a5,0(a1)
 1002dda:	04f76963          	bltu	a4,a5,1002e2c <Bt_DataBufferCallBack+0x7a>
 1002dde:	01004737          	lui	a4,0x1004
 1002de2:	078a                	slli	a5,a5,0x2
 1002de4:	5b870713          	addi	a4,a4,1464 # 10045b8 <AAP_StopAnc4+0x58>
 1002de8:	97ba                	add	a5,a5,a4
 1002dea:	439c                	lw	a5,0(a5)
 1002dec:	10010437          	lui	s0,0x10010
 1002df0:	08c40413          	addi	s0,s0,140 # 1001008c <gHciDataDebug>
 1002df4:	8782                	jr	a5
 1002df6:	0070                	addi	a2,sp,12
 1002df8:	858a                	mv	a1,sp
 1002dfa:	8526                	mv	a0,s1
 1002dfc:	35f9                	jal	1002cca <Bt_ParseRcvBLEPacket>
 1002dfe:	85a6                	mv	a1,s1
 1002e00:	4501                	li	a0,0
 1002e02:	330d                	jal	1002b24 <Bt_SndToBtData>
 1002e04:	00214603          	lbu	a2,2(sp)
 1002e08:	00015503          	lhu	a0,0(sp)
 1002e0c:	006c                	addi	a1,sp,12
 1002e0e:	3f09                	jal	1002d20 <Bt_ParseBLEL2capPacket>
 1002e10:	00f44783          	lbu	a5,15(s0)
 1002e14:	00e44703          	lbu	a4,14(s0)
 1002e18:	07a2                	slli	a5,a5,0x8
 1002e1a:	8fd9                	or	a5,a5,a4
 1002e1c:	0785                	addi	a5,a5,1
 1002e1e:	07c2                	slli	a5,a5,0x10
 1002e20:	83c1                	srli	a5,a5,0x10
 1002e22:	00f40723          	sb	a5,14(s0)
 1002e26:	83a1                	srli	a5,a5,0x8
 1002e28:	00f407a3          	sb	a5,15(s0)
 1002e2c:	28010113          	addi	sp,sp,640
 1002e30:	2b80106f          	j	10040e8 <__riscv_restore_0>
 1002e34:	0070                	addi	a2,sp,12
 1002e36:	858a                	mv	a1,sp
 1002e38:	8526                	mv	a0,s1
 1002e3a:	3dfd                	jal	1002d38 <Bt_ParseRcvSPPPacket>
 1002e3c:	85a6                	mv	a1,s1
 1002e3e:	4501                	li	a0,0
 1002e40:	31d5                	jal	1002b24 <Bt_SndToBtData>
 1002e42:	00d44783          	lbu	a5,13(s0)
 1002e46:	00c44703          	lbu	a4,12(s0)
 1002e4a:	07a2                	slli	a5,a5,0x8
 1002e4c:	8fd9                	or	a5,a5,a4
 1002e4e:	0785                	addi	a5,a5,1
 1002e50:	07c2                	slli	a5,a5,0x10
 1002e52:	83c1                	srli	a5,a5,0x10
 1002e54:	00f40623          	sb	a5,12(s0)
 1002e58:	83a1                	srli	a5,a5,0x8
 1002e5a:	00f406a3          	sb	a5,13(s0)
 1002e5e:	b7f9                	j	1002e2c <Bt_DataBufferCallBack+0x7a>
 1002e60:	04600613          	li	a2,70
 1002e64:	85a6                	mv	a1,s1
 1002e66:	0068                	addi	a0,sp,12
 1002e68:	921fe0ef          	jal	ra,1001788 <xmemcpy>
 1002e6c:	85a6                	mv	a1,s1
 1002e6e:	4501                	li	a0,0
 1002e70:	3955                	jal	1002b24 <Bt_SndToBtData>
 1002e72:	01144783          	lbu	a5,17(s0)
 1002e76:	01044703          	lbu	a4,16(s0)
 1002e7a:	07a2                	slli	a5,a5,0x8
 1002e7c:	8fd9                	or	a5,a5,a4
 1002e7e:	0785                	addi	a5,a5,1
 1002e80:	07c2                	slli	a5,a5,0x10
 1002e82:	83c1                	srli	a5,a5,0x10
 1002e84:	00f40823          	sb	a5,16(s0)
 1002e88:	83a1                	srli	a5,a5,0x8
 1002e8a:	00f408a3          	sb	a5,17(s0)
 1002e8e:	bf79                	j	1002e2c <Bt_DataBufferCallBack+0x7a>
 1002e90:	8526                	mv	a0,s1
 1002e92:	a69ff0ef          	jal	ra,10028fa <App_EvtAAPCallBack>
 1002e96:	85a6                	mv	a1,s1
 1002e98:	4501                	li	a0,0
 1002e9a:	3169                	jal	1002b24 <Bt_SndToBtData>
 1002e9c:	01344783          	lbu	a5,19(s0)
 1002ea0:	01244703          	lbu	a4,18(s0)
 1002ea4:	07a2                	slli	a5,a5,0x8
 1002ea6:	8fd9                	or	a5,a5,a4
 1002ea8:	0785                	addi	a5,a5,1
 1002eaa:	07c2                	slli	a5,a5,0x10
 1002eac:	83c1                	srli	a5,a5,0x10
 1002eae:	00f40923          	sb	a5,18(s0)
 1002eb2:	83a1                	srli	a5,a5,0x8
 1002eb4:	00f409a3          	sb	a5,19(s0)
 1002eb8:	bf95                	j	1002e2c <Bt_DataBufferCallBack+0x7a>
 1002eba:	85a6                	mv	a1,s1
 1002ebc:	4501                	li	a0,0
 1002ebe:	319d                	jal	1002b24 <Bt_SndToBtData>
 1002ec0:	01544783          	lbu	a5,21(s0)
 1002ec4:	01444703          	lbu	a4,20(s0)
 1002ec8:	07a2                	slli	a5,a5,0x8
 1002eca:	8fd9                	or	a5,a5,a4
 1002ecc:	0785                	addi	a5,a5,1
 1002ece:	07c2                	slli	a5,a5,0x10
 1002ed0:	83c1                	srli	a5,a5,0x10
 1002ed2:	00f40a23          	sb	a5,20(s0)
 1002ed6:	83a1                	srli	a5,a5,0x8
 1002ed8:	00f40aa3          	sb	a5,21(s0)
 1002edc:	bf81                	j	1002e2c <Bt_DataBufferCallBack+0x7a>
 1002ede:	bbbff0ef          	jal	ra,1002a98 <Bt_HciFifoOut>
 1002ee2:	01744783          	lbu	a5,23(s0)
 1002ee6:	01644703          	lbu	a4,22(s0)
 1002eea:	07a2                	slli	a5,a5,0x8
 1002eec:	8fd9                	or	a5,a5,a4
 1002eee:	0785                	addi	a5,a5,1
 1002ef0:	07c2                	slli	a5,a5,0x10
 1002ef2:	83c1                	srli	a5,a5,0x10
 1002ef4:	00f40b23          	sb	a5,22(s0)
 1002ef8:	83a1                	srli	a5,a5,0x8
 1002efa:	00f40ba3          	sb	a5,23(s0)
 1002efe:	b73d                	j	1002e2c <Bt_DataBufferCallBack+0x7a>

01002f00 <SetLockQSPI>:
SetLockQSPI():
 1002f00:	100057b7          	lui	a5,0x10005
 1002f04:	4705                	li	a4,1
 1002f06:	bee785a3          	sb	a4,-1045(a5) # 10004beb <_sidata+0xf000427>
 1002f0a:	03500713          	li	a4,53
 1002f0e:	bee786a3          	sb	a4,-1043(a5)
 1002f12:	03500693          	li	a3,53
 1002f16:	10005737          	lui	a4,0x10005
 1002f1a:	bec74783          	lbu	a5,-1044(a4) # 10004bec <_sidata+0xf000428>
 1002f1e:	0ff7f793          	andi	a5,a5,255
 1002f22:	00078663          	beqz	a5,1002f2e <SetLockQSPI+0x2e>
 1002f26:	bed74783          	lbu	a5,-1043(a4)
 1002f2a:	fef688e3          	beq	a3,a5,1002f1a <SetLockQSPI+0x1a>
 1002f2e:	8082                	ret

01002f30 <SetReleaseQSPI>:
SetReleaseQSPI():
 1002f30:	100057b7          	lui	a5,0x10005
 1002f34:	be0785a3          	sb	zero,-1045(a5) # 10004beb <_sidata+0xf000427>
 1002f38:	8082                	ret

01002f3a <QSPI_WriteFlashData>:
QSPI_WriteFlashData():
 1002f3a:	18a012ef          	jal	t0,10040c4 <__riscv_save_0>
 1002f3e:	1141                	addi	sp,sp,-16
 1002f40:	84aa                	mv	s1,a0
 1002f42:	892e                	mv	s2,a1
 1002f44:	c632                	sw	a2,12(sp)
 1002f46:	30047073          	csrci	mstatus,8
 1002f4a:	10010437          	lui	s0,0x10010
 1002f4e:	08845783          	lhu	a5,136(s0) # 10010088 <gOsEnterCriticalCnt>
 1002f52:	03e00593          	li	a1,62
 1002f56:	4501                	li	a0,0
 1002f58:	0785                	addi	a5,a5,1
 1002f5a:	08f41423          	sh	a5,136(s0)
 1002f5e:	2061                	jal	1002fe6 <QSPI_FlashWriteLock>
 1002f60:	3745                	jal	1002f00 <SetLockQSPI>
 1002f62:	4632                	lw	a2,12(sp)
 1002f64:	85ca                	mv	a1,s2
 1002f66:	8526                	mv	a0,s1
 1002f68:	ef4ff0ef          	jal	ra,100265c <qspi0_flash_write>
 1002f6c:	84aa                	mv	s1,a0
 1002f6e:	37c9                	jal	1002f30 <SetReleaseQSPI>
 1002f70:	03e00593          	li	a1,62
 1002f74:	4505                	li	a0,1
 1002f76:	2885                	jal	1002fe6 <QSPI_FlashWriteLock>
 1002f78:	08845783          	lhu	a5,136(s0)
 1002f7c:	17fd                	addi	a5,a5,-1
 1002f7e:	07c2                	slli	a5,a5,0x10
 1002f80:	83c1                	srli	a5,a5,0x10
 1002f82:	08f41423          	sh	a5,136(s0)
 1002f86:	00079463          	bnez	a5,1002f8e <QSPI_WriteFlashData+0x54>
 1002f8a:	30046073          	csrsi	mstatus,8
 1002f8e:	8526                	mv	a0,s1
 1002f90:	0141                	addi	sp,sp,16
 1002f92:	1560106f          	j	10040e8 <__riscv_restore_0>

01002f96 <QSPI_SectorEraseFlash>:
QSPI_SectorEraseFlash():
 1002f96:	12e012ef          	jal	t0,10040c4 <__riscv_save_0>
 1002f9a:	84aa                	mv	s1,a0
 1002f9c:	30047073          	csrci	mstatus,8
 1002fa0:	10010437          	lui	s0,0x10010
 1002fa4:	08845783          	lhu	a5,136(s0) # 10010088 <gOsEnterCriticalCnt>
 1002fa8:	03e00593          	li	a1,62
 1002fac:	4501                	li	a0,0
 1002fae:	0785                	addi	a5,a5,1
 1002fb0:	08f41423          	sh	a5,136(s0)
 1002fb4:	280d                	jal	1002fe6 <QSPI_FlashWriteLock>
 1002fb6:	37a9                	jal	1002f00 <SetLockQSPI>
 1002fb8:	8526                	mv	a0,s1
 1002fba:	e7eff0ef          	jal	ra,1002638 <qspi0_flash_sectorerase>
 1002fbe:	84aa                	mv	s1,a0
 1002fc0:	3f85                	jal	1002f30 <SetReleaseQSPI>
 1002fc2:	03e00593          	li	a1,62
 1002fc6:	4505                	li	a0,1
 1002fc8:	2839                	jal	1002fe6 <QSPI_FlashWriteLock>
 1002fca:	08845783          	lhu	a5,136(s0)
 1002fce:	17fd                	addi	a5,a5,-1
 1002fd0:	07c2                	slli	a5,a5,0x10
 1002fd2:	83c1                	srli	a5,a5,0x10
 1002fd4:	08f41423          	sh	a5,136(s0)
 1002fd8:	00079463          	bnez	a5,1002fe0 <QSPI_SectorEraseFlash+0x4a>
 1002fdc:	30046073          	csrsi	mstatus,8
 1002fe0:	8526                	mv	a0,s1
 1002fe2:	1060106f          	j	10040e8 <__riscv_restore_0>

01002fe6 <QSPI_FlashWriteLock>:
QSPI_FlashWriteLock():
 1002fe6:	0de012ef          	jal	t0,10040c4 <__riscv_save_0>
 1002fea:	1141                	addi	sp,sp,-16
 1002fec:	c62a                	sw	a0,12(sp)
 1002fee:	c42e                	sw	a1,8(sp)
 1002ff0:	30047073          	csrci	mstatus,8
 1002ff4:	10010437          	lui	s0,0x10010
 1002ff8:	08845783          	lhu	a5,136(s0) # 10010088 <gOsEnterCriticalCnt>
 1002ffc:	0785                	addi	a5,a5,1
 1002ffe:	08f41423          	sh	a5,136(s0)
 1003002:	3dfd                	jal	1002f00 <SetLockQSPI>
 1003004:	45a2                	lw	a1,8(sp)
 1003006:	4532                	lw	a0,12(sp)
 1003008:	edcff0ef          	jal	ra,10026e4 <qspi0_flashwrite_lock>
 100300c:	3715                	jal	1002f30 <SetReleaseQSPI>
 100300e:	08845783          	lhu	a5,136(s0)
 1003012:	17fd                	addi	a5,a5,-1
 1003014:	07c2                	slli	a5,a5,0x10
 1003016:	83c1                	srli	a5,a5,0x10
 1003018:	08f41423          	sh	a5,136(s0)
 100301c:	00079463          	bnez	a5,1003024 <QSPI_FlashWriteLock+0x3e>
 1003020:	30046073          	csrsi	mstatus,8
 1003024:	0141                	addi	sp,sp,16
 1003026:	0c20106f          	j	10040e8 <__riscv_restore_0>

0100302a <Dev_PowerOn>:
Dev_PowerOn():
 100302a:	8082                	ret

0100302c <Dev_WakeUp>:
Dev_WakeUp():
 100302c:	098012ef          	jal	t0,10040c4 <__riscv_save_0>
 1003030:	3fed                	jal	100302a <Dev_PowerOn>
 1003032:	0b60106f          	j	10040e8 <__riscv_restore_0>

01003036 <LE_CONNECTED>:
LE_CONNECTED():
 1003036:	8082                	ret

01003038 <LE_DISCONNECTED>:
LE_DISCONNECTED():
 1003038:	8082                	ret

0100303a <PAIR_DONE>:
PAIR_DONE():
 100303a:	8082                	ret

0100303c <PAIR_FAIL>:
PAIR_FAIL():
 100303c:	8082                	ret

0100303e <ENCRYPT_DONE>:
ENCRYPT_DONE():
 100303e:	8082                	ret

01003040 <CONN_PARAM_ACCEPTED>:
CONN_PARAM_ACCEPTED():
 1003040:	8082                	ret

01003042 <LE_LTK_LOST>:
LE_LTK_LOST():
 1003042:	8082                	ret

01003044 <bt_state_init>:
bt_state_init():
 1003044:	100107b7          	lui	a5,0x10010
 1003048:	06079e23          	sh	zero,124(a5) # 1001007c <gBLEState>
 100304c:	8082                	ret

0100304e <bt_set_le_addr>:
bt_set_le_addr():
 100304e:	076012ef          	jal	t0,10040c4 <__riscv_save_0>
 1003052:	1141                	addi	sp,sp,-16
 1003054:	892a                	mv	s2,a0
 1003056:	4401                	li	s0,0
 1003058:	44b1                	li	s1,12
 100305a:	008907b3          	add	a5,s2,s0
 100305e:	00078503          	lb	a0,0(a5)
 1003062:	f52fe0ef          	jal	ra,10017b4 <hexchar2hex>
 1003066:	005c                	addi	a5,sp,4
 1003068:	97a2                	add	a5,a5,s0
 100306a:	00a78023          	sb	a0,0(a5)
 100306e:	0405                	addi	s0,s0,1
 1003070:	fe9415e3          	bne	s0,s1,100305a <bt_set_le_addr+0xc>
 1003074:	6515                	lui	a0,0x5
 1003076:	005c                	addi	a5,sp,4
 1003078:	4681                	li	a3,0
 100307a:	96550513          	addi	a0,a0,-1691 # 4965 <__EN_MIE-0xffb719>
 100307e:	100008b7          	lui	a7,0x10000
 1003082:	4831                	li	a6,12
 1003084:	0017c703          	lbu	a4,1(a5)
 1003088:	0007c583          	lbu	a1,0(a5)
 100308c:	0016d613          	srli	a2,a3,0x1
 1003090:	8b3d                	andi	a4,a4,15
 1003092:	0592                	slli	a1,a1,0x4
 1003094:	40c50633          	sub	a2,a0,a2
 1003098:	972e                	add	a4,a4,a1
 100309a:	01166633          	or	a2,a2,a7
 100309e:	0ff77713          	andi	a4,a4,255
 10030a2:	0689                	addi	a3,a3,2
 10030a4:	00e60023          	sb	a4,0(a2)
 10030a8:	0ff6f693          	andi	a3,a3,255
 10030ac:	0789                	addi	a5,a5,2
 10030ae:	fd069be3          	bne	a3,a6,1003084 <bt_set_le_addr+0x36>
 10030b2:	0141                	addi	sp,sp,16
 10030b4:	0340106f          	j	10040e8 <__riscv_restore_0>

010030b8 <bt_set_local_dle>:
bt_set_local_dle():
 10030b8:	100057b7          	lui	a5,0x10005
 10030bc:	0ff57713          	andi	a4,a0,255
 10030c0:	a2e78d23          	sb	a4,-1478(a5) # 10004a3a <_sidata+0xf000276>
 10030c4:	8121                	srli	a0,a0,0x8
 10030c6:	a2a78da3          	sb	a0,-1477(a5)
 10030ca:	0ff5f713          	andi	a4,a1,255
 10030ce:	a2e78e23          	sb	a4,-1476(a5)
 10030d2:	81a1                	srli	a1,a1,0x8
 10030d4:	a2b78ea3          	sb	a1,-1475(a5)
 10030d8:	0ff67713          	andi	a4,a2,255
 10030dc:	a2e78f23          	sb	a4,-1474(a5)
 10030e0:	8221                	srli	a2,a2,0x8
 10030e2:	a2c78fa3          	sb	a2,-1473(a5)
 10030e6:	0ff6f713          	andi	a4,a3,255
 10030ea:	a4e78023          	sb	a4,-1472(a5)
 10030ee:	82a1                	srli	a3,a3,0x8
 10030f0:	a4d780a3          	sb	a3,-1471(a5)
 10030f4:	8082                	ret

010030f6 <bt_check_le_connected>:
bt_check_le_connected():
 10030f6:	100107b7          	lui	a5,0x10010
 10030fa:	07c7c503          	lbu	a0,124(a5) # 1001007c <gBLEState>
 10030fe:	1571                	addi	a0,a0,-4
 1003100:	00153513          	seqz	a0,a0
 1003104:	8082                	ret

01003106 <bt_set_adv_random>:
bt_set_adv_random():
 1003106:	fff50793          	addi	a5,a0,-1
 100310a:	0ff7f793          	andi	a5,a5,255
 100310e:	472d                	li	a4,11
 1003110:	00f77363          	bgeu	a4,a5,1003116 <bt_set_adv_random+0x10>
 1003114:	450d                	li	a0,3
 1003116:	100057b7          	lui	a5,0x10005
 100311a:	e8a78c23          	sb	a0,-360(a5) # 10004e98 <_sidata+0xf0006d4>
 100311e:	8082                	ret

01003120 <bt_set_tx_power>:
bt_set_tx_power():
 1003120:	100047b7          	lui	a5,0x10004
 1003124:	32a787a3          	sb	a0,815(a5) # 1000432f <_sidata+0xefffb6b>
 1003128:	8082                	ret

0100312a <Bt_SaveBleDeviceInfoToFlash>:
Bt_SaveBleDeviceInfoToFlash():
 100312a:	79b002ef          	jal	t0,10040c4 <__riscv_save_0>
 100312e:	100107b7          	lui	a5,0x10010
 1003132:	0347a783          	lw	a5,52(a5) # 10010034 <gpRecinfo>
 1003136:	03500713          	li	a4,53
 100313a:	00e781a3          	sb	a4,3(a5)
 100313e:	4711                	li	a4,4
 1003140:	0aa76563          	bltu	a4,a0,10031ea <Bt_SaveBleDeviceInfoToFlash+0xc0>
 1003144:	01004737          	lui	a4,0x1004
 1003148:	67470713          	addi	a4,a4,1652 # 1004674 <AAP_StopAnc4+0x114>
 100314c:	050a                	slli	a0,a0,0x2
 100314e:	953a                	add	a0,a0,a4
 1003150:	4118                	lw	a4,0(a0)
 1003152:	8702                	jr	a4
 1003154:	100056b7          	lui	a3,0x10005
 1003158:	9896c703          	lbu	a4,-1655(a3) # 10004989 <_sidata+0xf0001c5>
 100315c:	6615                	lui	a2,0x5
 100315e:	98b60613          	addi	a2,a2,-1653 # 498b <__EN_MIE-0xffb6f3>
 1003162:	0ff77713          	andi	a4,a4,255
 1003166:	02e78923          	sb	a4,50(a5)
 100316a:	98a6c703          	lbu	a4,-1654(a3)
 100316e:	10000837          	lui	a6,0x10000
 1003172:	45a1                	li	a1,8
 1003174:	0ff77713          	andi	a4,a4,255
 1003178:	02e789a3          	sb	a4,51(a5)
 100317c:	4701                	li	a4,0
 100317e:	00c706b3          	add	a3,a4,a2
 1003182:	0106e6b3          	or	a3,a3,a6
 1003186:	0006c683          	lbu	a3,0(a3)
 100318a:	00e78533          	add	a0,a5,a4
 100318e:	0705                	addi	a4,a4,1
 1003190:	0ff6f693          	andi	a3,a3,255
 1003194:	02d50a23          	sb	a3,52(a0)
 1003198:	feb713e3          	bne	a4,a1,100317e <Bt_SaveBleDeviceInfoToFlash+0x54>
 100319c:	a0b9                	j	10031ea <Bt_SaveBleDeviceInfoToFlash+0xc0>
 100319e:	10005737          	lui	a4,0x10005
 10031a2:	e4474683          	lbu	a3,-444(a4) # 10004e44 <_sidata+0xf000680>
 10031a6:	0ff6f693          	andi	a3,a3,255
 10031aa:	00d78623          	sb	a3,12(a5)
 10031ae:	e4574683          	lbu	a3,-443(a4)
 10031b2:	0ff6f693          	andi	a3,a3,255
 10031b6:	00d786a3          	sb	a3,13(a5)
 10031ba:	e4674683          	lbu	a3,-442(a4)
 10031be:	0ff6f693          	andi	a3,a3,255
 10031c2:	00d78723          	sb	a3,14(a5)
 10031c6:	e4774683          	lbu	a3,-441(a4)
 10031ca:	0ff6f693          	andi	a3,a3,255
 10031ce:	00d787a3          	sb	a3,15(a5)
 10031d2:	e4874683          	lbu	a3,-440(a4)
 10031d6:	0ff6f693          	andi	a3,a3,255
 10031da:	00d78823          	sb	a3,16(a5)
 10031de:	e4974703          	lbu	a4,-439(a4)
 10031e2:	0ff77713          	andi	a4,a4,255
 10031e6:	00e788a3          	sb	a4,17(a5)
 10031ea:	20ed                	jal	10032d4 <Flash_UpdateFlashRecordInfo>
 10031ec:	6fd0006f          	j	10040e8 <__riscv_restore_0>
 10031f0:	10000737          	lui	a4,0x10000
 10031f4:	4d774683          	lbu	a3,1239(a4) # 100004d7 <_sidata+0xeffbd13>
 10031f8:	0ff6f693          	andi	a3,a3,255
 10031fc:	00d782a3          	sb	a3,5(a5)
 1003200:	4d874683          	lbu	a3,1240(a4)
 1003204:	0ff6f693          	andi	a3,a3,255
 1003208:	00d78323          	sb	a3,6(a5)
 100320c:	4d974683          	lbu	a3,1241(a4)
 1003210:	0ff6f693          	andi	a3,a3,255
 1003214:	00d783a3          	sb	a3,7(a5)
 1003218:	4da74683          	lbu	a3,1242(a4)
 100321c:	0ff6f693          	andi	a3,a3,255
 1003220:	00d78423          	sb	a3,8(a5)
 1003224:	4db74683          	lbu	a3,1243(a4)
 1003228:	0ff6f693          	andi	a3,a3,255
 100322c:	00d784a3          	sb	a3,9(a5)
 1003230:	4dc74703          	lbu	a4,1244(a4)
 1003234:	0ff77713          	andi	a4,a4,255
 1003238:	00e78523          	sb	a4,10(a5)
 100323c:	10005737          	lui	a4,0x10005
 1003240:	95074703          	lbu	a4,-1712(a4) # 10004950 <_sidata+0xf00018c>
 1003244:	0ff77713          	andi	a4,a4,255
 1003248:	00e78223          	sb	a4,4(a5)
 100324c:	bf79                	j	10031ea <Bt_SaveBleDeviceInfoToFlash+0xc0>
 100324e:	6615                	lui	a2,0x5
 1003250:	4701                	li	a4,0
 1003252:	8fc60613          	addi	a2,a2,-1796 # 48fc <__EN_MIE-0xffb782>
 1003256:	10000837          	lui	a6,0x10000
 100325a:	45c1                	li	a1,16
 100325c:	00c706b3          	add	a3,a4,a2
 1003260:	0106e6b3          	or	a3,a3,a6
 1003264:	0006c683          	lbu	a3,0(a3)
 1003268:	00e78533          	add	a0,a5,a4
 100326c:	0705                	addi	a4,a4,1
 100326e:	0ff6f693          	andi	a3,a3,255
 1003272:	00d50923          	sb	a3,18(a0)
 1003276:	feb713e3          	bne	a4,a1,100325c <Bt_SaveBleDeviceInfoToFlash+0x132>
 100327a:	bf85                	j	10031ea <Bt_SaveBleDeviceInfoToFlash+0xc0>
 100327c:	6615                	lui	a2,0x5
 100327e:	4701                	li	a4,0
 1003280:	99360613          	addi	a2,a2,-1645 # 4993 <__EN_MIE-0xffb6eb>
 1003284:	10000837          	lui	a6,0x10000
 1003288:	45c1                	li	a1,16
 100328a:	00c706b3          	add	a3,a4,a2
 100328e:	0106e6b3          	or	a3,a3,a6
 1003292:	0006c683          	lbu	a3,0(a3)
 1003296:	00e78533          	add	a0,a5,a4
 100329a:	0705                	addi	a4,a4,1
 100329c:	0ff6f693          	andi	a3,a3,255
 10032a0:	02d50123          	sb	a3,34(a0)
 10032a4:	feb713e3          	bne	a4,a1,100328a <Bt_SaveBleDeviceInfoToFlash+0x160>
 10032a8:	b789                	j	10031ea <Bt_SaveBleDeviceInfoToFlash+0xc0>

010032aa <Flash_CalFlashRecordCRC>:
Flash_CalFlashRecordCRC():
 10032aa:	100107b7          	lui	a5,0x10010
 10032ae:	0347a683          	lw	a3,52(a5) # 10010034 <gpRecinfo>
 10032b2:	4709                	li	a4,2
 10032b4:	4781                	li	a5,0
 10032b6:	03d00613          	li	a2,61
 10032ba:	00e685b3          	add	a1,a3,a4
 10032be:	0005c583          	lbu	a1,0(a1)
 10032c2:	0705                	addi	a4,a4,1
 10032c4:	97ae                	add	a5,a5,a1
 10032c6:	07c2                	slli	a5,a5,0x10
 10032c8:	83c1                	srli	a5,a5,0x10
 10032ca:	fec718e3          	bne	a4,a2,10032ba <Flash_CalFlashRecordCRC+0x10>
 10032ce:	00f69023          	sh	a5,0(a3)
 10032d2:	8082                	ret

010032d4 <Flash_UpdateFlashRecordInfo>:
Flash_UpdateFlashRecordInfo():
 10032d4:	5f1002ef          	jal	t0,10040c4 <__riscv_save_0>
 10032d8:	3fc9                	jal	10032aa <Flash_CalFlashRecordCRC>
 10032da:	30047073          	csrci	mstatus,8
 10032de:	10010437          	lui	s0,0x10010
 10032e2:	08845783          	lhu	a5,136(s0) # 10010088 <gOsEnterCriticalCnt>
 10032e6:	0007d4b7          	lui	s1,0x7d
 10032ea:	0785                	addi	a5,a5,1
 10032ec:	08f41423          	sh	a5,136(s0)
 10032f0:	c11ff0ef          	jal	ra,1002f00 <SetLockQSPI>
 10032f4:	10048513          	addi	a0,s1,256 # 7d100 <__EN_MIE-0xf82f7e>
 10032f8:	c9fff0ef          	jal	ra,1002f96 <QSPI_SectorEraseFlash>
 10032fc:	100107b7          	lui	a5,0x10010
 1003300:	0347a603          	lw	a2,52(a5) # 10010034 <gpRecinfo>
 1003304:	03d00593          	li	a1,61
 1003308:	10048513          	addi	a0,s1,256
 100330c:	c2fff0ef          	jal	ra,1002f3a <QSPI_WriteFlashData>
 1003310:	c21ff0ef          	jal	ra,1002f30 <SetReleaseQSPI>
 1003314:	08845783          	lhu	a5,136(s0)
 1003318:	17fd                	addi	a5,a5,-1
 100331a:	07c2                	slli	a5,a5,0x10
 100331c:	83c1                	srli	a5,a5,0x10
 100331e:	08f41423          	sh	a5,136(s0)
 1003322:	00079463          	bnez	a5,100332a <Flash_UpdateFlashRecordInfo+0x56>
 1003326:	30046073          	csrsi	mstatus,8
 100332a:	5bf0006f          	j	10040e8 <__riscv_restore_0>

0100332e <Bt_EvtCallBack>:
Bt_EvtCallBack():
 100332e:	0005c783          	lbu	a5,0(a1)
 1003332:	0e000713          	li	a4,224
 1003336:	16f76063          	bltu	a4,a5,1003496 <Bt_EvtCallBack+0x168>
 100333a:	58b002ef          	jal	t0,10040c4 <__riscv_save_0>
 100333e:	04400713          	li	a4,68
 1003342:	0ee78363          	beq	a5,a4,1003428 <Bt_EvtCallBack+0xfa>
 1003346:	04f76b63          	bltu	a4,a5,100339c <Bt_EvtCallBack+0x6e>
 100334a:	02900713          	li	a4,41
 100334e:	0ee78b63          	beq	a5,a4,1003444 <Bt_EvtCallBack+0x116>
 1003352:	02f76263          	bltu	a4,a5,1003376 <Bt_EvtCallBack+0x48>
 1003356:	4751                	li	a4,20
 1003358:	0ae78c63          	beq	a5,a4,1003410 <Bt_EvtCallBack+0xe2>
 100335c:	4755                	li	a4,21
 100335e:	0ae78c63          	beq	a5,a4,1003416 <Bt_EvtCallBack+0xe8>
 1003362:	100107b7          	lui	a5,0x10010
 1003366:	07c7c703          	lbu	a4,124(a5) # 1001007c <gBLEState>
 100336a:	100057b7          	lui	a5,0x10005
 100336e:	e4e785a3          	sb	a4,-437(a5) # 10004e4b <_sidata+0xf000687>
 1003372:	5770006f          	j	10040e8 <__riscv_restore_0>
 1003376:	04000713          	li	a4,64
 100337a:	0ae78a63          	beq	a5,a4,100342e <Bt_EvtCallBack+0x100>
 100337e:	04100713          	li	a4,65
 1003382:	10e78763          	beq	a5,a4,1003490 <Bt_EvtCallBack+0x162>
 1003386:	03000713          	li	a4,48
 100338a:	fce79ce3          	bne	a5,a4,1003362 <Bt_EvtCallBack+0x34>
 100338e:	100007b7          	lui	a5,0x10000
 1003392:	5197c503          	lbu	a0,1305(a5) # 10000519 <_sidata+0xeffbd55>
 1003396:	ca7ff0ef          	jal	ra,100303c <PAIR_FAIL>
 100339a:	b7e1                	j	1003362 <Bt_EvtCallBack+0x34>
 100339c:	09500713          	li	a4,149
 10033a0:	0ce78063          	beq	a5,a4,1003460 <Bt_EvtCallBack+0x132>
 10033a4:	02f76163          	bltu	a4,a5,10033c6 <Bt_EvtCallBack+0x98>
 10033a8:	06a00713          	li	a4,106
 10033ac:	08e78663          	beq	a5,a4,1003438 <Bt_EvtCallBack+0x10a>
 10033b0:	09400713          	li	a4,148
 10033b4:	0ce78263          	beq	a5,a4,1003478 <Bt_EvtCallBack+0x14a>
 10033b8:	06500713          	li	a4,101
 10033bc:	fae793e3          	bne	a5,a4,1003362 <Bt_EvtCallBack+0x34>
 10033c0:	c6bff0ef          	jal	ra,100302a <Dev_PowerOn>
 10033c4:	bf79                	j	1003362 <Bt_EvtCallBack+0x34>
 10033c6:	09b00713          	li	a4,155
 10033ca:	06e78a63          	beq	a5,a4,100343e <Bt_EvtCallBack+0x110>
 10033ce:	0a200713          	li	a4,162
 10033d2:	00e78663          	beq	a5,a4,10033de <Bt_EvtCallBack+0xb0>
 10033d6:	09900713          	li	a4,153
 10033da:	f8e794e3          	bne	a5,a4,1003362 <Bt_EvtCallBack+0x34>
 10033de:	010045b7          	lui	a1,0x1004
 10033e2:	01004537          	lui	a0,0x1004
 10033e6:	5d058593          	addi	a1,a1,1488 # 10045d0 <AAP_StopAnc4+0x70>
 10033ea:	6e450513          	addi	a0,a0,1764 # 10046e4 <AAP_StopAnc4+0x184>
 10033ee:	b6afe0ef          	jal	ra,1001758 <print_string_log>
 10033f2:	100107b7          	lui	a5,0x10010
 10033f6:	0347a783          	lw	a5,52(a5) # 10010034 <gpRecinfo>
 10033fa:	03600713          	li	a4,54
 10033fe:	4511                	li	a0,4
 1003400:	02e78e23          	sb	a4,60(a5)
 1003404:	d27ff0ef          	jal	ra,100312a <Bt_SaveBleDeviceInfoToFlash>
 1003408:	2849                	jal	100349a <Bt_UpdateDeviceNvdataInfo>
 100340a:	c31ff0ef          	jal	ra,100303a <PAIR_DONE>
 100340e:	bf91                	j	1003362 <Bt_EvtCallBack+0x34>
 1003410:	c27ff0ef          	jal	ra,1003036 <LE_CONNECTED>
 1003414:	b7b9                	j	1003362 <Bt_EvtCallBack+0x34>
 1003416:	100057b7          	lui	a5,0x10005
 100341a:	e437c503          	lbu	a0,-445(a5) # 10004e43 <_sidata+0xf00067f>
 100341e:	07f57513          	andi	a0,a0,127
 1003422:	c17ff0ef          	jal	ra,1003038 <LE_DISCONNECTED>
 1003426:	bf35                	j	1003362 <Bt_EvtCallBack+0x34>
 1003428:	c19ff0ef          	jal	ra,1003040 <CONN_PARAM_ACCEPTED>
 100342c:	bf1d                	j	1003362 <Bt_EvtCallBack+0x34>
 100342e:	1001d7b7          	lui	a5,0x1001d
 1003432:	9c37c783          	lbu	a5,-1597(a5) # 1001c9c3 <_ebss+0x9763>
 1003436:	b735                	j	1003362 <Bt_EvtCallBack+0x34>
 1003438:	bf5ff0ef          	jal	ra,100302c <Dev_WakeUp>
 100343c:	b71d                	j	1003362 <Bt_EvtCallBack+0x34>
 100343e:	c01ff0ef          	jal	ra,100303e <ENCRYPT_DONE>
 1003442:	b705                	j	1003362 <Bt_EvtCallBack+0x34>
 1003444:	010045b7          	lui	a1,0x1004
 1003448:	01004537          	lui	a0,0x1004
 100344c:	68850513          	addi	a0,a0,1672 # 1004688 <AAP_StopAnc4+0x128>
 1003450:	5d058593          	addi	a1,a1,1488 # 10045d0 <AAP_StopAnc4+0x70>
 1003454:	b04fe0ef          	jal	ra,1001758 <print_string_log>
 1003458:	4505                	li	a0,1
 100345a:	cd1ff0ef          	jal	ra,100312a <Bt_SaveBleDeviceInfoToFlash>
 100345e:	b711                	j	1003362 <Bt_EvtCallBack+0x34>
 1003460:	010045b7          	lui	a1,0x1004
 1003464:	01004537          	lui	a0,0x1004
 1003468:	6a450513          	addi	a0,a0,1700 # 10046a4 <AAP_StopAnc4+0x144>
 100346c:	5d058593          	addi	a1,a1,1488 # 10045d0 <AAP_StopAnc4+0x70>
 1003470:	ae8fe0ef          	jal	ra,1001758 <print_string_log>
 1003474:	4509                	li	a0,2
 1003476:	b7d5                	j	100345a <Bt_EvtCallBack+0x12c>
 1003478:	010045b7          	lui	a1,0x1004
 100347c:	01004537          	lui	a0,0x1004
 1003480:	6c450513          	addi	a0,a0,1732 # 10046c4 <AAP_StopAnc4+0x164>
 1003484:	5d058593          	addi	a1,a1,1488 # 10045d0 <AAP_StopAnc4+0x70>
 1003488:	ad0fe0ef          	jal	ra,1001758 <print_string_log>
 100348c:	450d                	li	a0,3
 100348e:	b7f1                	j	100345a <Bt_EvtCallBack+0x12c>
 1003490:	bb3ff0ef          	jal	ra,1003042 <LE_LTK_LOST>
 1003494:	b5f9                	j	1003362 <Bt_EvtCallBack+0x34>
 1003496:	8082                	ret

01003498 <Bt_BleCallBack>:
Bt_BleCallBack():
 1003498:	8082                	ret

0100349a <Bt_UpdateDeviceNvdataInfo>:
Bt_UpdateDeviceNvdataInfo():
 100349a:	100047b7          	lui	a5,0x10004
 100349e:	3f07c783          	lbu	a5,1008(a5) # 100043f0 <_sidata+0xefffc2c>
 10034a2:	470d                	li	a4,3
 10034a4:	17fd                	addi	a5,a5,-1
 10034a6:	0ff7f793          	andi	a5,a5,255
 10034aa:	00f77c63          	bgeu	a4,a5,10034c2 <Bt_UpdateDeviceNvdataInfo+0x28>
 10034ae:	417002ef          	jal	t0,10040c4 <__riscv_save_0>
 10034b2:	01004537          	lui	a0,0x1004
 10034b6:	70850513          	addi	a0,a0,1800 # 1004708 <AAP_StopAnc4+0x1a8>
 10034ba:	a9efe0ef          	jal	ra,1001758 <print_string_log>
 10034be:	42b0006f          	j	10040e8 <__riscv_restore_0>
 10034c2:	10005737          	lui	a4,0x10005
 10034c6:	95074683          	lbu	a3,-1712(a4) # 10004950 <_sidata+0xf00018c>
 10034ca:	100107b7          	lui	a5,0x10010
 10034ce:	0ff6f693          	andi	a3,a3,255
 10034d2:	02069e63          	bnez	a3,100350e <Bt_UpdateDeviceNvdataInfo+0x74>
 10034d6:	03500693          	li	a3,53
 10034da:	6595                	lui	a1,0x5
 10034dc:	ced70823          	sb	a3,-784(a4)
 10034e0:	cf158593          	addi	a1,a1,-783 # 4cf1 <__EN_MIE-0xffb38d>
 10034e4:	4701                	li	a4,0
 10034e6:	10000837          	lui	a6,0x10000
 10034ea:	4519                	li	a0,6
 10034ec:	0347a603          	lw	a2,52(a5) # 10010034 <gpRecinfo>
 10034f0:	00b706b3          	add	a3,a4,a1
 10034f4:	0106e6b3          	or	a3,a3,a6
 10034f8:	963a                	add	a2,a2,a4
 10034fa:	00564603          	lbu	a2,5(a2)
 10034fe:	0705                	addi	a4,a4,1
 1003500:	0ff67613          	andi	a2,a2,255
 1003504:	00c68023          	sb	a2,0(a3)
 1003508:	fea712e3          	bne	a4,a0,10034ec <Bt_UpdateDeviceNvdataInfo+0x52>
 100350c:	8082                	ret
 100350e:	0347a683          	lw	a3,52(a5)
 1003512:	0c000593          	li	a1,192
 1003516:	00a6c603          	lbu	a2,10(a3)
 100351a:	0c067613          	andi	a2,a2,192
 100351e:	02b61e63          	bne	a2,a1,100355a <Bt_UpdateDeviceNvdataInfo+0xc0>
 1003522:	03500693          	li	a3,53
 1003526:	6595                	lui	a1,0x5
 1003528:	ced70823          	sb	a3,-784(a4)
 100352c:	cf158593          	addi	a1,a1,-783 # 4cf1 <__EN_MIE-0xffb38d>
 1003530:	4701                	li	a4,0
 1003532:	10000837          	lui	a6,0x10000
 1003536:	4519                	li	a0,6
 1003538:	0347a603          	lw	a2,52(a5)
 100353c:	00b706b3          	add	a3,a4,a1
 1003540:	0106e6b3          	or	a3,a3,a6
 1003544:	963a                	add	a2,a2,a4
 1003546:	00564603          	lbu	a2,5(a2)
 100354a:	0705                	addi	a4,a4,1
 100354c:	0ff67613          	andi	a2,a2,255
 1003550:	00c68023          	sb	a2,0(a3)
 1003554:	fea712e3          	bne	a4,a0,1003538 <Bt_UpdateDeviceNvdataInfo+0x9e>
 1003558:	8082                	ret
 100355a:	00a6c603          	lbu	a2,10(a3)
 100355e:	04000593          	li	a1,64
 1003562:	0c067613          	andi	a2,a2,192
 1003566:	06b61563          	bne	a2,a1,10035d0 <Bt_UpdateDeviceNvdataInfo+0x136>
 100356a:	03600693          	li	a3,54
 100356e:	6595                	lui	a1,0x5
 1003570:	ced70823          	sb	a3,-784(a4)
 1003574:	cf158593          	addi	a1,a1,-783 # 4cf1 <__EN_MIE-0xffb38d>
 1003578:	4701                	li	a4,0
 100357a:	10000837          	lui	a6,0x10000
 100357e:	4519                	li	a0,6
 1003580:	0347a603          	lw	a2,52(a5)
 1003584:	00b706b3          	add	a3,a4,a1
 1003588:	0106e6b3          	or	a3,a3,a6
 100358c:	963a                	add	a2,a2,a4
 100358e:	00564603          	lbu	a2,5(a2)
 1003592:	0705                	addi	a4,a4,1
 1003594:	0ff67613          	andi	a2,a2,255
 1003598:	00c68023          	sb	a2,0(a3)
 100359c:	fea712e3          	bne	a4,a0,1003580 <Bt_UpdateDeviceNvdataInfo+0xe6>
 10035a0:	6595                	lui	a1,0x5
 10035a2:	4701                	li	a4,0
 10035a4:	cf758593          	addi	a1,a1,-777 # 4cf7 <__EN_MIE-0xffb387>
 10035a8:	10000837          	lui	a6,0x10000
 10035ac:	4541                	li	a0,16
 10035ae:	0347a603          	lw	a2,52(a5)
 10035b2:	00b706b3          	add	a3,a4,a1
 10035b6:	0106e6b3          	or	a3,a3,a6
 10035ba:	963a                	add	a2,a2,a4
 10035bc:	02264603          	lbu	a2,34(a2)
 10035c0:	0705                	addi	a4,a4,1
 10035c2:	0ff67613          	andi	a2,a2,255
 10035c6:	00c68023          	sb	a2,0(a3)
 10035ca:	fea712e3          	bne	a4,a0,10035ae <Bt_UpdateDeviceNvdataInfo+0x114>
 10035ce:	8082                	ret
 10035d0:	00a6c683          	lbu	a3,10(a3)
 10035d4:	0c06f693          	andi	a3,a3,192
 10035d8:	08069763          	bnez	a3,1003666 <Bt_UpdateDeviceNvdataInfo+0x1cc>
 10035dc:	03700693          	li	a3,55
 10035e0:	6595                	lui	a1,0x5
 10035e2:	ced70823          	sb	a3,-784(a4)
 10035e6:	cf158593          	addi	a1,a1,-783 # 4cf1 <__EN_MIE-0xffb38d>
 10035ea:	4701                	li	a4,0
 10035ec:	10000837          	lui	a6,0x10000
 10035f0:	4519                	li	a0,6
 10035f2:	0347a603          	lw	a2,52(a5)
 10035f6:	00b706b3          	add	a3,a4,a1
 10035fa:	0106e6b3          	or	a3,a3,a6
 10035fe:	963a                	add	a2,a2,a4
 1003600:	00564603          	lbu	a2,5(a2)
 1003604:	0705                	addi	a4,a4,1
 1003606:	0ff67613          	andi	a2,a2,255
 100360a:	00c68023          	sb	a2,0(a3)
 100360e:	fea712e3          	bne	a4,a0,10035f2 <Bt_UpdateDeviceNvdataInfo+0x158>
 1003612:	0347a703          	lw	a4,52(a5)
 1003616:	100056b7          	lui	a3,0x10005
 100361a:	6595                	lui	a1,0x5
 100361c:	03274703          	lbu	a4,50(a4)
 1003620:	cf958593          	addi	a1,a1,-775 # 4cf9 <__EN_MIE-0xffb385>
 1003624:	10000837          	lui	a6,0x10000
 1003628:	0ff77713          	andi	a4,a4,255
 100362c:	cee68ba3          	sb	a4,-777(a3) # 10004cf7 <_sidata+0xf000533>
 1003630:	0347a703          	lw	a4,52(a5)
 1003634:	4521                	li	a0,8
 1003636:	03374703          	lbu	a4,51(a4)
 100363a:	0ff77713          	andi	a4,a4,255
 100363e:	cee68c23          	sb	a4,-776(a3)
 1003642:	4701                	li	a4,0
 1003644:	0347a603          	lw	a2,52(a5)
 1003648:	00b706b3          	add	a3,a4,a1
 100364c:	0106e6b3          	or	a3,a3,a6
 1003650:	963a                	add	a2,a2,a4
 1003652:	03464603          	lbu	a2,52(a2)
 1003656:	0705                	addi	a4,a4,1
 1003658:	0ff67613          	andi	a2,a2,255
 100365c:	00c68023          	sb	a2,0(a3)
 1003660:	fea712e3          	bne	a4,a0,1003644 <Bt_UpdateDeviceNvdataInfo+0x1aa>
 1003664:	8082                	ret
 1003666:	8082                	ret

01003668 <hci_freq_tx_test>:
hci_freq_tx_test():
 1003668:	100057b7          	lui	a5,0x10005
 100366c:	02600713          	li	a4,38
 1003670:	eae78523          	sb	a4,-342(a5) # 10004eaa <_sidata+0xf0006e6>
 1003674:	4705                	li	a4,1
 1003676:	e8e78123          	sb	a4,-382(a5)
 100367a:	fc200693          	li	a3,-62
 100367e:	e8d78223          	sb	a3,-380(a5)
 1003682:	e8e781a3          	sb	a4,-381(a5)
 1003686:	e8e783a3          	sb	a4,-377(a5)
 100368a:	8082                	ret

0100368c <Write_DataParse>:
Write_DataParse():
 100368c:	8082                	ret

0100368e <Read_Parse>:
Read_Parse():
 100368e:	8082                	ret

01003690 <Read_Blob_Parse>:
Read_Blob_Parse():
 1003690:	8082                	ret

01003692 <ATT_SendErrorRsp>:
ATT_SendErrorRsp():
 1003692:	233002ef          	jal	t0,10040c4 <__riscv_save_0>
 1003696:	1141                	addi	sp,sp,-16
 1003698:	4785                	li	a5,1
 100369a:	00a104a3          	sb	a0,9(sp)
 100369e:	00b11523          	sh	a1,10(sp)
 10036a2:	0028                	addi	a0,sp,8
 10036a4:	4595                	li	a1,5
 10036a6:	00f10423          	sb	a5,8(sp)
 10036aa:	00c10623          	sb	a2,12(sp)
 10036ae:	7c6000ef          	jal	ra,1003e74 <ATT_Send>
 10036b2:	0141                	addi	sp,sp,16
 10036b4:	2350006f          	j	10040e8 <__riscv_restore_0>

010036b8 <ATT_WriteCmd>:
ATT_WriteCmd():
 10036b8:	20d002ef          	jal	t0,10040c4 <__riscv_save_0>
 10036bc:	1141                	addi	sp,sp,-16
 10036be:	c62e                	sw	a1,12(sp)
 10036c0:	c432                	sw	a2,8(sp)
 10036c2:	133000ef          	jal	ra,1003ff4 <Find_AttTable_ByHandle>
 10036c6:	00050563          	beqz	a0,10036d0 <ATT_WriteCmd+0x18>
 10036ca:	4622                	lw	a2,8(sp)
 10036cc:	45b2                	lw	a1,12(sp)
 10036ce:	3f7d                	jal	100368c <Write_DataParse>
 10036d0:	0141                	addi	sp,sp,16
 10036d2:	2170006f          	j	10040e8 <__riscv_restore_0>

010036d6 <ATT_ExecuteWriteReq>:
ATT_ExecuteWriteReq():
 10036d6:	1ef002ef          	jal	t0,10040c4 <__riscv_save_0>
 10036da:	100107b7          	lui	a5,0x10010
 10036de:	0ee7c503          	lbu	a0,238(a5) # 100100ee <prepareHandle>
 10036e2:	1141                	addi	sp,sp,-16
 10036e4:	111000ef          	jal	ra,1003ff4 <Find_AttTable_ByHandle>
 10036e8:	02050663          	beqz	a0,1003714 <ATT_ExecuteWriteReq+0x3e>
 10036ec:	47e5                	li	a5,25
 10036ee:	84aa                	mv	s1,a0
 10036f0:	4585                	li	a1,1
 10036f2:	0068                	addi	a0,sp,12
 10036f4:	00f10623          	sb	a5,12(sp)
 10036f8:	10010437          	lui	s0,0x10010
 10036fc:	778000ef          	jal	ra,1003e74 <ATT_Send>
 1003700:	0ed44603          	lbu	a2,237(s0) # 100100ed <prepareLen>
 1003704:	100135b7          	lui	a1,0x10013
 1003708:	16058593          	addi	a1,a1,352 # 10013160 <prepareRcv>
 100370c:	8526                	mv	a0,s1
 100370e:	3fbd                	jal	100368c <Write_DataParse>
 1003710:	0e0406a3          	sb	zero,237(s0)
 1003714:	0141                	addi	sp,sp,16
 1003716:	1d30006f          	j	10040e8 <__riscv_restore_0>

0100371a <ATT_PrepareWriteReq>:
ATT_PrepareWriteReq():
 100371a:	191002ef          	jal	t0,10040aa <__riscv_save_4>
 100371e:	7111                	addi	sp,sp,-256
 1003720:	84ae                	mv	s1,a1
 1003722:	842a                	mv	s0,a0
 1003724:	10000613          	li	a2,256
 1003728:	4581                	li	a1,0
 100372a:	850a                	mv	a0,sp
 100372c:	2a9000ef          	jal	ra,10041d4 <memset>
 1003730:	0034c783          	lbu	a5,3(s1)
 1003734:	0024c703          	lbu	a4,2(s1)
 1003738:	10010937          	lui	s2,0x10010
 100373c:	07a2                	slli	a5,a5,0x8
 100373e:	97ba                	add	a5,a5,a4
 1003740:	0ed94503          	lbu	a0,237(s2) # 100100ed <prepareLen>
 1003744:	07c2                	slli	a5,a5,0x10
 1003746:	83c1                	srli	a5,a5,0x10
 1003748:	00f51563          	bne	a0,a5,1003752 <ATT_PrepareWriteReq+0x38>
 100374c:	478d                	li	a5,3
 100374e:	0087e363          	bltu	a5,s0,1003754 <ATT_PrepareWriteReq+0x3a>
 1003752:	a001                	j	1003752 <ATT_PrepareWriteReq+0x38>
 1003754:	100137b7          	lui	a5,0x10013
 1003758:	16078793          	addi	a5,a5,352 # 10013160 <prepareRcv>
 100375c:	ffc40613          	addi	a2,s0,-4
 1003760:	00448593          	addi	a1,s1,4
 1003764:	953e                	add	a0,a0,a5
 1003766:	0004c983          	lbu	s3,0(s1)
 100376a:	1b1000ef          	jal	ra,100411a <memcpy>
 100376e:	47dd                	li	a5,23
 1003770:	8622                	mv	a2,s0
 1003772:	85a6                	mv	a1,s1
 1003774:	00110513          	addi	a0,sp,1
 1003778:	00f10023          	sb	a5,0(sp)
 100377c:	19f000ef          	jal	ra,100411a <memcpy>
 1003780:	00140593          	addi	a1,s0,1
 1003784:	0ff5f593          	andi	a1,a1,255
 1003788:	850a                	mv	a0,sp
 100378a:	6ea000ef          	jal	ra,1003e74 <ATT_Send>
 100378e:	100107b7          	lui	a5,0x10010
 1003792:	0f378723          	sb	s3,238(a5) # 100100ee <prepareHandle>
 1003796:	0ed94783          	lbu	a5,237(s2)
 100379a:	17f1                	addi	a5,a5,-4
 100379c:	943e                	add	s0,s0,a5
 100379e:	0ff47413          	andi	s0,s0,255
 10037a2:	0e8906a3          	sb	s0,237(s2)
 10037a6:	0ff00793          	li	a5,255
 10037aa:	00f41363          	bne	s0,a5,10037b0 <ATT_PrepareWriteReq+0x96>
 10037ae:	a001                	j	10037ae <ATT_PrepareWriteReq+0x94>
 10037b0:	6111                	addi	sp,sp,256
 10037b2:	12d0006f          	j	10040de <__riscv_restore_4>

010037b6 <ATT_WriteReq>:
ATT_WriteReq():
 10037b6:	10f002ef          	jal	t0,10040c4 <__riscv_save_0>
 10037ba:	84aa                	mv	s1,a0
 10037bc:	0015c503          	lbu	a0,1(a1)
 10037c0:	0005c783          	lbu	a5,0(a1)
 10037c4:	1141                	addi	sp,sp,-16
 10037c6:	0522                	slli	a0,a0,0x8
 10037c8:	953e                	add	a0,a0,a5
 10037ca:	0542                	slli	a0,a0,0x10
 10037cc:	8141                	srli	a0,a0,0x10
 10037ce:	842e                	mv	s0,a1
 10037d0:	025000ef          	jal	ra,1003ff4 <Find_AttTable_ByHandle>
 10037d4:	02050163          	beqz	a0,10037f6 <ATT_WriteReq+0x40>
 10037d8:	892a                	mv	s2,a0
 10037da:	47cd                	li	a5,19
 10037dc:	4585                	li	a1,1
 10037de:	0068                	addi	a0,sp,12
 10037e0:	00f10623          	sb	a5,12(sp)
 10037e4:	2d41                	jal	1003e74 <ATT_Send>
 10037e6:	ffe48613          	addi	a2,s1,-2
 10037ea:	0ff67613          	andi	a2,a2,255
 10037ee:	00240593          	addi	a1,s0,2
 10037f2:	854a                	mv	a0,s2
 10037f4:	3d61                	jal	100368c <Write_DataParse>
 10037f6:	0141                	addi	sp,sp,16
 10037f8:	0f10006f          	j	10040e8 <__riscv_restore_0>

010037fc <ATT_ReadReq_ByGroupType>:
ATT_ReadReq_ByGroupType():
 10037fc:	099002ef          	jal	t0,1004094 <__riscv_save_12>
 1003800:	0015c403          	lbu	s0,1(a1)
 1003804:	0005c783          	lbu	a5,0(a1)
 1003808:	0035c483          	lbu	s1,3(a1)
 100380c:	0422                	slli	s0,s0,0x8
 100380e:	943e                	add	s0,s0,a5
 1003810:	0025c783          	lbu	a5,2(a1)
 1003814:	7129                	addi	sp,sp,-320
 1003816:	ffc50613          	addi	a2,a0,-4
 100381a:	0ff67613          	andi	a2,a2,255
 100381e:	0591                	addi	a1,a1,4
 1003820:	04a2                	slli	s1,s1,0x8
 1003822:	01510513          	addi	a0,sp,21
 1003826:	94be                	add	s1,s1,a5
 1003828:	00c10a23          	sb	a2,20(sp)
 100382c:	0ef000ef          	jal	ra,100411a <memcpy>
 1003830:	100057b7          	lui	a5,0x10005
 1003834:	e417c703          	lbu	a4,-447(a5) # 10004e41 <_sidata+0xf00067d>
 1003838:	e427c983          	lbu	s3,-446(a5)
 100383c:	10000613          	li	a2,256
 1003840:	4581                	li	a1,0
 1003842:	0442                	slli	s0,s0,0x10
 1003844:	04c2                	slli	s1,s1,0x10
 1003846:	09a2                	slli	s3,s3,0x8
 1003848:	0088                	addi	a0,sp,64
 100384a:	8041                	srli	s0,s0,0x10
 100384c:	80c1                	srli	s1,s1,0x10
 100384e:	00e9e9b3          	or	s3,s3,a4
 1003852:	183000ef          	jal	ra,10041d4 <memset>
 1003856:	0850                	addi	a2,sp,20
 1003858:	85a6                	mv	a1,s1
 100385a:	8522                	mv	a0,s0
 100385c:	7ac000ef          	jal	ra,1004008 <Find_AttTable_ByHandleRange_Type>
 1003860:	00051963          	bnez	a0,1003872 <ATT_ReadReq_ByGroupType+0x76>
 1003864:	4629                	li	a2,10
 1003866:	85a2                	mv	a1,s0
 1003868:	4541                	li	a0,16
 100386a:	3525                	jal	1003692 <ATT_SendErrorRsp>
 100386c:	6131                	addi	sp,sp,320
 100386e:	0630006f          	j	10040d0 <__riscv_restore_12>
 1003872:	00855783          	lhu	a5,8(a0)
 1003876:	4709                	li	a4,2
 1003878:	8daa                	mv	s11,a0
 100387a:	0ee78a63          	beq	a5,a4,100396e <ATT_ReadReq_ByGroupType+0x172>
 100387e:	ff078a93          	addi	s5,a5,-16
 1003882:	001aba93          	seqz	s5,s5
 1003886:	4b01                	li	s6,0
 1003888:	4745                	li	a4,17
 100388a:	0791                	addi	a5,a5,4
 100388c:	04e10023          	sb	a4,64(sp)
 1003890:	04f100a3          	sb	a5,65(sp)
 1003894:	4409                	li	s0,2
 1003896:	4c09                	li	s8,2
 1003898:	4cc1                	li	s9,16
 100389a:	0d347563          	bgeu	s0,s3,1003964 <ATT_ReadReq_ByGroupType+0x168>
 100389e:	008ddd03          	lhu	s10,8(s11)
 10038a2:	000dda03          	lhu	s4,0(s11)
 10038a6:	00cda583          	lw	a1,12(s11)
 10038aa:	0ffd7b93          	andi	s7,s10,255
 10038ae:	866a                	mv	a2,s10
 10038b0:	02d10513          	addi	a0,sp,45
 10038b4:	03411423          	sh	s4,40(sp)
 10038b8:	03710623          	sb	s7,44(sp)
 10038bc:	00440913          	addi	s2,s0,4
 10038c0:	05b000ef          	jal	ra,100411a <memcpy>
 10038c4:	017907b3          	add	a5,s2,s7
 10038c8:	08f9ce63          	blt	s3,a5,1003964 <ATT_ReadReq_ByGroupType+0x168>
 10038cc:	001a0513          	addi	a0,s4,1
 10038d0:	0542                	slli	a0,a0,0x10
 10038d2:	0850                	addi	a2,sp,20
 10038d4:	85a6                	mv	a1,s1
 10038d6:	8141                	srli	a0,a0,0x10
 10038d8:	730000ef          	jal	ra,1004008 <Find_AttTable_ByHandleRange_Type>
 10038dc:	8daa                	mv	s11,a0
 10038de:	4785                	li	a5,1
 10038e0:	00050463          	beqz	a0,10038e8 <ATT_ReadReq_ByGroupType+0xec>
 10038e4:	ff055783          	lhu	a5,-16(a0)
 10038e8:	0298                	addi	a4,sp,320
 10038ea:	9722                	add	a4,a4,s0
 10038ec:	f1470023          	sb	s4,-256(a4)
 10038f0:	00140713          	addi	a4,s0,1
 10038f4:	0742                	slli	a4,a4,0x10
 10038f6:	0294                	addi	a3,sp,320
 10038f8:	8341                	srli	a4,a4,0x10
 10038fa:	9736                	add	a4,a4,a3
 10038fc:	008a5a13          	srli	s4,s4,0x8
 1003900:	f1470023          	sb	s4,-256(a4)
 1003904:	00240713          	addi	a4,s0,2
 1003908:	0742                	slli	a4,a4,0x10
 100390a:	8341                	srli	a4,a4,0x10
 100390c:	040d                	addi	s0,s0,3
 100390e:	9736                	add	a4,a4,a3
 1003910:	0942                	slli	s2,s2,0x10
 1003912:	0442                	slli	s0,s0,0x10
 1003914:	f0f70023          	sb	a5,-256(a4)
 1003918:	02f11523          	sh	a5,42(sp)
 100391c:	0087d713          	srli	a4,a5,0x8
 1003920:	01095913          	srli	s2,s2,0x10
 1003924:	c63e                	sw	a5,12(sp)
 1003926:	8041                	srli	s0,s0,0x10
 1003928:	009c                	addi	a5,sp,64
 100392a:	9436                	add	s0,s0,a3
 100392c:	01278533          	add	a0,a5,s2
 1003930:	865e                	mv	a2,s7
 1003932:	02d10593          	addi	a1,sp,45
 1003936:	f0e40023          	sb	a4,-256(s0)
 100393a:	7e0000ef          	jal	ra,100411a <memcpy>
 100393e:	0ffd7413          	andi	s0,s10,255
 1003942:	008dd703          	lhu	a4,8(s11)
 1003946:	9922                	add	s2,s2,s0
 1003948:	01091413          	slli	s0,s2,0x10
 100394c:	8041                	srli	s0,s0,0x10
 100394e:	47b2                	lw	a5,12(sp)
 1003950:	03870263          	beq	a4,s8,1003974 <ATT_ReadReq_ByGroupType+0x178>
 1003954:	01971363          	bne	a4,s9,100395a <ATT_ReadReq_ByGroupType+0x15e>
 1003958:	4a85                	li	s5,1
 100395a:	4705                	li	a4,1
 100395c:	00e78463          	beq	a5,a4,1003964 <ATT_ReadReq_ByGroupType+0x168>
 1003960:	f35b1de3          	bne	s6,s5,100389a <ATT_ReadReq_ByGroupType+0x9e>
 1003964:	0ff47593          	andi	a1,s0,255
 1003968:	0088                	addi	a0,sp,64
 100396a:	2329                	jal	1003e74 <ATT_Send>
 100396c:	b701                	j	100386c <ATT_ReadReq_ByGroupType+0x70>
 100396e:	4a81                	li	s5,0
 1003970:	4b05                	li	s6,1
 1003972:	bf19                	j	1003888 <ATT_ReadReq_ByGroupType+0x8c>
 1003974:	4b05                	li	s6,1
 1003976:	b7d5                	j	100395a <ATT_ReadReq_ByGroupType+0x15e>

01003978 <ATT_ReadBlobReq>:
ATT_ReadBlobReq():
 1003978:	74c002ef          	jal	t0,10040c4 <__riscv_save_0>
 100397c:	00154403          	lbu	s0,1(a0)
 1003980:	00054583          	lbu	a1,0(a0)
 1003984:	00254783          	lbu	a5,2(a0)
 1003988:	0422                	slli	s0,s0,0x8
 100398a:	942e                	add	s0,s0,a1
 100398c:	00354583          	lbu	a1,3(a0)
 1003990:	0442                	slli	s0,s0,0x10
 1003992:	8041                	srli	s0,s0,0x10
 1003994:	05a2                	slli	a1,a1,0x8
 1003996:	95be                	add	a1,a1,a5
 1003998:	05c2                	slli	a1,a1,0x10
 100399a:	1141                	addi	sp,sp,-16
 100399c:	81c1                	srli	a1,a1,0x10
 100399e:	8522                	mv	a0,s0
 10039a0:	c62e                	sw	a1,12(sp)
 10039a2:	2d89                	jal	1003ff4 <Find_AttTable_ByHandle>
 10039a4:	02050263          	beqz	a0,10039c8 <ATT_ReadBlobReq+0x50>
 10039a8:	00855783          	lhu	a5,8(a0)
 10039ac:	45b2                	lw	a1,12(sp)
 10039ae:	00b7e763          	bltu	a5,a1,10039bc <ATT_ReadBlobReq+0x44>
 10039b2:	cdfff0ef          	jal	ra,1003690 <Read_Blob_Parse>
 10039b6:	0141                	addi	sp,sp,16
 10039b8:	7300006f          	j	10040e8 <__riscv_restore_0>
 10039bc:	462d                	li	a2,11
 10039be:	85a2                	mv	a1,s0
 10039c0:	4531                	li	a0,12
 10039c2:	cd1ff0ef          	jal	ra,1003692 <ATT_SendErrorRsp>
 10039c6:	bfc5                	j	10039b6 <ATT_ReadBlobReq+0x3e>
 10039c8:	4629                	li	a2,10
 10039ca:	bfd5                	j	10039be <ATT_ReadBlobReq+0x46>

010039cc <ATT_ReadReq>:
ATT_ReadReq():
 10039cc:	6f8002ef          	jal	t0,10040c4 <__riscv_save_0>
 10039d0:	00154583          	lbu	a1,1(a0)
 10039d4:	00054783          	lbu	a5,0(a0)
 10039d8:	1141                	addi	sp,sp,-16
 10039da:	05a2                	slli	a1,a1,0x8
 10039dc:	95be                	add	a1,a1,a5
 10039de:	05c2                	slli	a1,a1,0x10
 10039e0:	81c1                	srli	a1,a1,0x10
 10039e2:	852e                	mv	a0,a1
 10039e4:	c62e                	sw	a1,12(sp)
 10039e6:	2539                	jal	1003ff4 <Find_AttTable_ByHandle>
 10039e8:	45b2                	lw	a1,12(sp)
 10039ea:	00050763          	beqz	a0,10039f8 <ATT_ReadReq+0x2c>
 10039ee:	ca1ff0ef          	jal	ra,100368e <Read_Parse>
 10039f2:	0141                	addi	sp,sp,16
 10039f4:	6f40006f          	j	10040e8 <__riscv_restore_0>
 10039f8:	4629                	li	a2,10
 10039fa:	4529                	li	a0,10
 10039fc:	c97ff0ef          	jal	ra,1003692 <ATT_SendErrorRsp>
 1003a00:	bfcd                	j	10039f2 <ATT_ReadReq+0x26>

01003a02 <ATT_ReadReq_ByType>:
ATT_ReadReq_ByType():
 1003a02:	6a8002ef          	jal	t0,10040aa <__riscv_save_4>
 1003a06:	0015c483          	lbu	s1,1(a1)
 1003a0a:	0005c783          	lbu	a5,0(a1)
 1003a0e:	0035ca03          	lbu	s4,3(a1)
 1003a12:	04a2                	slli	s1,s1,0x8
 1003a14:	94be                	add	s1,s1,a5
 1003a16:	0025c783          	lbu	a5,2(a1)
 1003a1a:	712d                	addi	sp,sp,-288
 1003a1c:	ffc50613          	addi	a2,a0,-4
 1003a20:	0ff67613          	andi	a2,a2,255
 1003a24:	0591                	addi	a1,a1,4
 1003a26:	0a22                	slli	s4,s4,0x8
 1003a28:	00d10513          	addi	a0,sp,13
 1003a2c:	9a3e                	add	s4,s4,a5
 1003a2e:	00c10623          	sb	a2,12(sp)
 1003a32:	6e8000ef          	jal	ra,100411a <memcpy>
 1003a36:	100057b7          	lui	a5,0x10005
 1003a3a:	e417c903          	lbu	s2,-447(a5) # 10004e41 <_sidata+0xf00067d>
 1003a3e:	10000613          	li	a2,256
 1003a42:	4581                	li	a1,0
 1003a44:	04c2                	slli	s1,s1,0x10
 1003a46:	0a42                	slli	s4,s4,0x10
 1003a48:	1008                	addi	a0,sp,32
 1003a4a:	80c1                	srli	s1,s1,0x10
 1003a4c:	010a5a13          	srli	s4,s4,0x10
 1003a50:	0ff97993          	andi	s3,s2,255
 1003a54:	e427c903          	lbu	s2,-446(a5)
 1003a58:	77c000ef          	jal	ra,10041d4 <memset>
 1003a5c:	0070                	addi	a2,sp,12
 1003a5e:	85d2                	mv	a1,s4
 1003a60:	8526                	mv	a0,s1
 1003a62:	235d                	jal	1004008 <Find_AttTable_ByHandleRange_Type>
 1003a64:	00051963          	bnez	a0,1003a76 <ATT_ReadReq_ByType+0x74>
 1003a68:	4629                	li	a2,10
 1003a6a:	85a6                	mv	a1,s1
 1003a6c:	4521                	li	a0,8
 1003a6e:	c25ff0ef          	jal	ra,1003692 <ATT_SendErrorRsp>
 1003a72:	6115                	addi	sp,sp,288
 1003a74:	a5ad                	j	10040de <__riscv_restore_4>
 1003a76:	010045b7          	lui	a1,0x1004
 1003a7a:	842a                	mv	s0,a0
 1003a7c:	4609                	li	a2,2
 1003a7e:	7b058593          	addi	a1,a1,1968 # 10047b0 <GATT_CHARACTERISTIC>
 1003a82:	00d10513          	addi	a0,sp,13
 1003a86:	25bd                	jal	10040f4 <memcmp>
 1003a88:	0c051c63          	bnez	a0,1003b60 <ATT_ReadReq_ByType+0x15e>
 1003a8c:	47a5                	li	a5,9
 1003a8e:	02f10023          	sb	a5,32(sp)
 1003a92:	01244783          	lbu	a5,18(s0)
 1003a96:	0ff97913          	andi	s2,s2,255
 1003a9a:	0922                	slli	s2,s2,0x8
 1003a9c:	0795                	addi	a5,a5,5
 1003a9e:	01396933          	or	s2,s2,s3
 1003aa2:	02f100a3          	sb	a5,33(sp)
 1003aa6:	4489                	li	s1,2
 1003aa8:	0b24f763          	bgeu	s1,s2,1003b56 <ATT_ReadReq_ByType+0x154>
 1003aac:	01244783          	lbu	a5,18(s0)
 1003ab0:	00548993          	addi	s3,s1,5
 1003ab4:	97ce                	add	a5,a5,s3
 1003ab6:	0af94063          	blt	s2,a5,1003b56 <ATT_ReadReq_ByType+0x154>
 1003aba:	00045703          	lhu	a4,0(s0)
 1003abe:	121c                	addi	a5,sp,288
 1003ac0:	97a6                	add	a5,a5,s1
 1003ac2:	f0e78023          	sb	a4,-256(a5)
 1003ac6:	00148793          	addi	a5,s1,1
 1003aca:	07c2                	slli	a5,a5,0x10
 1003acc:	1218                	addi	a4,sp,288
 1003ace:	83c1                	srli	a5,a5,0x10
 1003ad0:	97ba                	add	a5,a5,a4
 1003ad2:	00045703          	lhu	a4,0(s0)
 1003ad6:	1214                	addi	a3,sp,288
 1003ad8:	09c2                	slli	s3,s3,0x10
 1003ada:	8321                	srli	a4,a4,0x8
 1003adc:	f0e78023          	sb	a4,-256(a5)
 1003ae0:	445c                	lw	a5,12(s0)
 1003ae2:	0109d993          	srli	s3,s3,0x10
 1003ae6:	0007c703          	lbu	a4,0(a5)
 1003aea:	00248793          	addi	a5,s1,2
 1003aee:	07c2                	slli	a5,a5,0x10
 1003af0:	83c1                	srli	a5,a5,0x10
 1003af2:	97b6                	add	a5,a5,a3
 1003af4:	f0e78023          	sb	a4,-256(a5)
 1003af8:	00044703          	lbu	a4,0(s0)
 1003afc:	00348793          	addi	a5,s1,3
 1003b00:	07c2                	slli	a5,a5,0x10
 1003b02:	83c1                	srli	a5,a5,0x10
 1003b04:	97b6                	add	a5,a5,a3
 1003b06:	0705                	addi	a4,a4,1
 1003b08:	f0e78023          	sb	a4,-256(a5)
 1003b0c:	00045783          	lhu	a5,0(s0)
 1003b10:	0491                	addi	s1,s1,4
 1003b12:	04c2                	slli	s1,s1,0x10
 1003b14:	80c1                	srli	s1,s1,0x10
 1003b16:	0785                	addi	a5,a5,1
 1003b18:	94b6                	add	s1,s1,a3
 1003b1a:	87a1                	srai	a5,a5,0x8
 1003b1c:	f0f48023          	sb	a5,-256(s1)
 1003b20:	01244603          	lbu	a2,18(s0)
 1003b24:	484c                	lw	a1,20(s0)
 1003b26:	101c                	addi	a5,sp,32
 1003b28:	01378533          	add	a0,a5,s3
 1003b2c:	23fd                	jal	100411a <memcpy>
 1003b2e:	00045503          	lhu	a0,0(s0)
 1003b32:	01244483          	lbu	s1,18(s0)
 1003b36:	0070                	addi	a2,sp,12
 1003b38:	0509                	addi	a0,a0,2
 1003b3a:	0542                	slli	a0,a0,0x10
 1003b3c:	94ce                	add	s1,s1,s3
 1003b3e:	85d2                	mv	a1,s4
 1003b40:	8141                	srli	a0,a0,0x10
 1003b42:	04c2                	slli	s1,s1,0x10
 1003b44:	21d1                	jal	1004008 <Find_AttTable_ByHandleRange_Type>
 1003b46:	80c1                	srli	s1,s1,0x10
 1003b48:	842a                	mv	s0,a0
 1003b4a:	00050663          	beqz	a0,1003b56 <ATT_ReadReq_ByType+0x154>
 1003b4e:	00055783          	lhu	a5,0(a0)
 1003b52:	f5479be3          	bne	a5,s4,1003aa8 <ATT_ReadReq_ByType+0xa6>
 1003b56:	0ff4f593          	andi	a1,s1,255
 1003b5a:	1008                	addi	a0,sp,32
 1003b5c:	2e21                	jal	1003e74 <ATT_Send>
 1003b5e:	bf11                	j	1003a72 <ATT_ReadReq_ByType+0x70>
 1003b60:	010045b7          	lui	a1,0x1004
 1003b64:	4609                	li	a2,2
 1003b66:	7ac58593          	addi	a1,a1,1964 # 10047ac <GATT_INCLUDE>
 1003b6a:	00d10513          	addi	a0,sp,13
 1003b6e:	2359                	jal	10040f4 <memcmp>
 1003b70:	00845603          	lhu	a2,8(s0)
 1003b74:	4725                	li	a4,9
 1003b76:	444c                	lw	a1,12(s0)
 1003b78:	02e10023          	sb	a4,32(sp)
 1003b7c:	0ff67793          	andi	a5,a2,255
 1003b80:	08051763          	bnez	a0,1003c0e <ATT_ReadReq_ByType+0x20c>
 1003b84:	0799                	addi	a5,a5,6
 1003b86:	02f100a3          	sb	a5,33(sp)
 1003b8a:	00045783          	lhu	a5,0(s0)
 1003b8e:	1028                	addi	a0,sp,40
 1003b90:	02f10123          	sb	a5,34(sp)
 1003b94:	00045783          	lhu	a5,0(s0)
 1003b98:	83a1                	srli	a5,a5,0x8
 1003b9a:	02f101a3          	sb	a5,35(sp)
 1003b9e:	2bb5                	jal	100411a <memcpy>
 1003ba0:	4789                	li	a5,2
 1003ba2:	00f10623          	sb	a5,12(sp)
 1003ba6:	010047b7          	lui	a5,0x1004
 1003baa:	7a878793          	addi	a5,a5,1960 # 10047a8 <PRIMARY_SERVICE>
 1003bae:	0007c683          	lbu	a3,0(a5)
 1003bb2:	00845703          	lhu	a4,8(s0)
 1003bb6:	0017c783          	lbu	a5,1(a5)
 1003bba:	00d106a3          	sb	a3,13(sp)
 1003bbe:	4454                	lw	a3,12(s0)
 1003bc0:	00870493          	addi	s1,a4,8
 1003bc4:	0070                	addi	a2,sp,12
 1003bc6:	0ff77713          	andi	a4,a4,255
 1003bca:	4585                	li	a1,1
 1003bcc:	4505                	li	a0,1
 1003bce:	00f10723          	sb	a5,14(sp)
 1003bd2:	299d                	jal	1004048 <Find_AttTable_ByHandleRange_Type_Data>
 1003bd4:	00055783          	lhu	a5,0(a0)
 1003bd8:	0070                	addi	a2,sp,12
 1003bda:	4585                	li	a1,1
 1003bdc:	02f10223          	sb	a5,36(sp)
 1003be0:	00055783          	lhu	a5,0(a0)
 1003be4:	04c2                	slli	s1,s1,0x10
 1003be6:	80c1                	srli	s1,s1,0x10
 1003be8:	83a1                	srli	a5,a5,0x8
 1003bea:	02f102a3          	sb	a5,37(sp)
 1003bee:	00055503          	lhu	a0,0(a0)
 1003bf2:	0505                	addi	a0,a0,1
 1003bf4:	0542                	slli	a0,a0,0x10
 1003bf6:	8141                	srli	a0,a0,0x10
 1003bf8:	2901                	jal	1004008 <Find_AttTable_ByHandleRange_Type>
 1003bfa:	ff055783          	lhu	a5,-16(a0)
 1003bfe:	02f10323          	sb	a5,38(sp)
 1003c02:	ff055783          	lhu	a5,-16(a0)
 1003c06:	83a1                	srli	a5,a5,0x8
 1003c08:	02f103a3          	sb	a5,39(sp)
 1003c0c:	b7a9                	j	1003b56 <ATT_ReadReq_ByType+0x154>
 1003c0e:	0789                	addi	a5,a5,2
 1003c10:	02f100a3          	sb	a5,33(sp)
 1003c14:	00045783          	lhu	a5,0(s0)
 1003c18:	1048                	addi	a0,sp,36
 1003c1a:	02f10123          	sb	a5,34(sp)
 1003c1e:	00045783          	lhu	a5,0(s0)
 1003c22:	83a1                	srli	a5,a5,0x8
 1003c24:	02f101a3          	sb	a5,35(sp)
 1003c28:	29cd                	jal	100411a <memcpy>
 1003c2a:	00845483          	lhu	s1,8(s0)
 1003c2e:	0491                	addi	s1,s1,4
 1003c30:	04c2                	slli	s1,s1,0x10
 1003c32:	80c1                	srli	s1,s1,0x10
 1003c34:	b70d                	j	1003b56 <ATT_ReadReq_ByType+0x154>

01003c36 <ATT_Find_ByType_Value>:
ATT_Find_ByType_Value():
 1003c36:	48e002ef          	jal	t0,10040c4 <__riscv_save_0>
 1003c3a:	0015c483          	lbu	s1,1(a1)
 1003c3e:	0005c783          	lbu	a5,0(a1)
 1003c42:	0035c403          	lbu	s0,3(a1)
 1003c46:	04a2                	slli	s1,s1,0x8
 1003c48:	94be                	add	s1,s1,a5
 1003c4a:	0025c783          	lbu	a5,2(a1)
 1003c4e:	0422                	slli	s0,s0,0x8
 1003c50:	1101                	addi	sp,sp,-32
 1003c52:	943e                	add	s0,s0,a5
 1003c54:	4789                	li	a5,2
 1003c56:	00f10623          	sb	a5,12(sp)
 1003c5a:	0045c783          	lbu	a5,4(a1)
 1003c5e:	04c2                	slli	s1,s1,0x10
 1003c60:	0442                	slli	s0,s0,0x10
 1003c62:	00f106a3          	sb	a5,13(sp)
 1003c66:	0055c783          	lbu	a5,5(a1)
 1003c6a:	ffa50713          	addi	a4,a0,-6
 1003c6e:	80c1                	srli	s1,s1,0x10
 1003c70:	8041                	srli	s0,s0,0x10
 1003c72:	00658693          	addi	a3,a1,6
 1003c76:	0ff77713          	andi	a4,a4,255
 1003c7a:	0070                	addi	a2,sp,12
 1003c7c:	85a2                	mv	a1,s0
 1003c7e:	8526                	mv	a0,s1
 1003c80:	00f10723          	sb	a5,14(sp)
 1003c84:	c202                	sw	zero,4(sp)
 1003c86:	00010423          	sb	zero,8(sp)
 1003c8a:	2e7d                	jal	1004048 <Find_AttTable_ByHandleRange_Type_Data>
 1003c8c:	00051963          	bnez	a0,1003c9e <ATT_Find_ByType_Value+0x68>
 1003c90:	4629                	li	a2,10
 1003c92:	85a6                	mv	a1,s1
 1003c94:	4511                	li	a0,4
 1003c96:	9fdff0ef          	jal	ra,1003692 <ATT_SendErrorRsp>
 1003c9a:	6105                	addi	sp,sp,32
 1003c9c:	a1b1                	j	10040e8 <__riscv_restore_0>
 1003c9e:	479d                	li	a5,7
 1003ca0:	00f10223          	sb	a5,4(sp)
 1003ca4:	00055503          	lhu	a0,0(a0)
 1003ca8:	0070                	addi	a2,sp,12
 1003caa:	85a2                	mv	a1,s0
 1003cac:	00855793          	srli	a5,a0,0x8
 1003cb0:	00a102a3          	sb	a0,5(sp)
 1003cb4:	0505                	addi	a0,a0,1
 1003cb6:	0542                	slli	a0,a0,0x10
 1003cb8:	8141                	srli	a0,a0,0x10
 1003cba:	00f10323          	sb	a5,6(sp)
 1003cbe:	26a9                	jal	1004008 <Find_AttTable_ByHandleRange_Type>
 1003cc0:	00051b63          	bnez	a0,1003cd6 <ATT_Find_ByType_Value+0xa0>
 1003cc4:	4785                	li	a5,1
 1003cc6:	00f103a3          	sb	a5,7(sp)
 1003cca:	00010423          	sb	zero,8(sp)
 1003cce:	4595                	li	a1,5
 1003cd0:	0048                	addi	a0,sp,4
 1003cd2:	224d                	jal	1003e74 <ATT_Send>
 1003cd4:	b7d9                	j	1003c9a <ATT_Find_ByType_Value+0x64>
 1003cd6:	ff055783          	lhu	a5,-16(a0)
 1003cda:	00f103a3          	sb	a5,7(sp)
 1003cde:	83a1                	srli	a5,a5,0x8
 1003ce0:	00f10423          	sb	a5,8(sp)
 1003ce4:	b7ed                	j	1003cce <ATT_Find_ByType_Value+0x98>

01003ce6 <ATT_FindInformationReq>:
ATT_FindInformationReq():
 1003ce6:	3c4002ef          	jal	t0,10040aa <__riscv_save_4>
 1003cea:	00154403          	lbu	s0,1(a0)
 1003cee:	00054783          	lbu	a5,0(a0)
 1003cf2:	00254703          	lbu	a4,2(a0)
 1003cf6:	0422                	slli	s0,s0,0x8
 1003cf8:	943e                	add	s0,s0,a5
 1003cfa:	00354783          	lbu	a5,3(a0)
 1003cfe:	7111                	addi	sp,sp,-256
 1003d00:	0442                	slli	s0,s0,0x10
 1003d02:	07a2                	slli	a5,a5,0x8
 1003d04:	97ba                	add	a5,a5,a4
 1003d06:	01079993          	slli	s3,a5,0x10
 1003d0a:	100057b7          	lui	a5,0x10005
 1003d0e:	e417c703          	lbu	a4,-447(a5) # 10004e41 <_sidata+0xf00067d>
 1003d12:	e427ca03          	lbu	s4,-446(a5)
 1003d16:	10000613          	li	a2,256
 1003d1a:	4581                	li	a1,0
 1003d1c:	0a22                	slli	s4,s4,0x8
 1003d1e:	850a                	mv	a0,sp
 1003d20:	8041                	srli	s0,s0,0x10
 1003d22:	00ea6a33          	or	s4,s4,a4
 1003d26:	217d                	jal	10041d4 <memset>
 1003d28:	8522                	mv	a0,s0
 1003d2a:	24e9                	jal	1003ff4 <Find_AttTable_ByHandle>
 1003d2c:	00051963          	bnez	a0,1003d3e <ATT_FindInformationReq+0x58>
 1003d30:	4629                	li	a2,10
 1003d32:	85a2                	mv	a1,s0
 1003d34:	4511                	li	a0,4
 1003d36:	95dff0ef          	jal	ra,1003692 <ATT_SendErrorRsp>
 1003d3a:	6111                	addi	sp,sp,256
 1003d3c:	a64d                	j	10040de <__riscv_restore_4>
 1003d3e:	4795                	li	a5,5
 1003d40:	00f10023          	sb	a5,0(sp)
 1003d44:	00254683          	lbu	a3,2(a0)
 1003d48:	4741                	li	a4,16
 1003d4a:	0109d993          	srli	s3,s3,0x10
 1003d4e:	84aa                	mv	s1,a0
 1003d50:	4789                	li	a5,2
 1003d52:	00e68363          	beq	a3,a4,1003d58 <ATT_FindInformationReq+0x72>
 1003d56:	4785                	li	a5,1
 1003d58:	00f100a3          	sb	a5,1(sp)
 1003d5c:	4409                	li	s0,2
 1003d5e:	07447363          	bgeu	s0,s4,1003dc4 <ATT_FindInformationReq+0xde>
 1003d62:	0024c783          	lbu	a5,2(s1)
 1003d66:	00240913          	addi	s2,s0,2
 1003d6a:	97ca                	add	a5,a5,s2
 1003d6c:	04fa4c63          	blt	s4,a5,1003dc4 <ATT_FindInformationReq+0xde>
 1003d70:	0004d703          	lhu	a4,0(s1)
 1003d74:	00140593          	addi	a1,s0,1
 1003d78:	021c                	addi	a5,sp,256
 1003d7a:	97a2                	add	a5,a5,s0
 1003d7c:	05c2                	slli	a1,a1,0x10
 1003d7e:	f0e78023          	sb	a4,-256(a5)
 1003d82:	81c1                	srli	a1,a1,0x10
 1003d84:	021c                	addi	a5,sp,256
 1003d86:	95be                	add	a1,a1,a5
 1003d88:	0004d783          	lhu	a5,0(s1)
 1003d8c:	0942                	slli	s2,s2,0x10
 1003d8e:	01095913          	srli	s2,s2,0x10
 1003d92:	83a1                	srli	a5,a5,0x8
 1003d94:	f0f58023          	sb	a5,-256(a1)
 1003d98:	0024c603          	lbu	a2,2(s1)
 1003d9c:	40cc                	lw	a1,4(s1)
 1003d9e:	01210533          	add	a0,sp,s2
 1003da2:	2ea5                	jal	100411a <memcpy>
 1003da4:	0024c403          	lbu	s0,2(s1)
 1003da8:	0004d503          	lhu	a0,0(s1)
 1003dac:	944a                	add	s0,s0,s2
 1003dae:	0442                	slli	s0,s0,0x10
 1003db0:	8041                	srli	s0,s0,0x10
 1003db2:	01357963          	bgeu	a0,s3,1003dc4 <ATT_FindInformationReq+0xde>
 1003db6:	0505                	addi	a0,a0,1
 1003db8:	0542                	slli	a0,a0,0x10
 1003dba:	8141                	srli	a0,a0,0x10
 1003dbc:	2c25                	jal	1003ff4 <Find_AttTable_ByHandle>
 1003dbe:	84aa                	mv	s1,a0
 1003dc0:	f8051fe3          	bnez	a0,1003d5e <ATT_FindInformationReq+0x78>
 1003dc4:	0ff47593          	andi	a1,s0,255
 1003dc8:	850a                	mv	a0,sp
 1003dca:	206d                	jal	1003e74 <ATT_Send>
 1003dcc:	b7bd                	j	1003d3a <ATT_FindInformationReq+0x54>

01003dce <ATT_UpdateMtu>:
ATT_UpdateMtu():
 1003dce:	2f6002ef          	jal	t0,10040c4 <__riscv_save_0>
 1003dd2:	842e                	mv	s0,a1
 1003dd4:	86ae                	mv	a3,a1
 1003dd6:	862a                	mv	a2,a0
 1003dd8:	84aa                	mv	s1,a0
 1003dda:	010045b7          	lui	a1,0x1004
 1003dde:	01004537          	lui	a0,0x1004
 1003de2:	72458593          	addi	a1,a1,1828 # 1004724 <AAP_StopAnc4+0x1c4>
 1003de6:	72c50513          	addi	a0,a0,1836 # 100472c <AAP_StopAnc4+0x1cc>
 1003dea:	96ffd0ef          	jal	ra,1001758 <print_string_log>
 1003dee:	0ff47793          	andi	a5,s0,255
 1003df2:	00946463          	bltu	s0,s1,1003dfa <ATT_UpdateMtu+0x2c>
 1003df6:	0ff4f793          	andi	a5,s1,255
 1003dfa:	10005737          	lui	a4,0x10005
 1003dfe:	e4f700a3          	sb	a5,-447(a4) # 10004e41 <_sidata+0xf00067d>
 1003e02:	87a6                	mv	a5,s1
 1003e04:	00947363          	bgeu	s0,s1,1003e0a <ATT_UpdateMtu+0x3c>
 1003e08:	87a2                	mv	a5,s0
 1003e0a:	07c2                	slli	a5,a5,0x10
 1003e0c:	83c1                	srli	a5,a5,0x10
 1003e0e:	83a1                	srli	a5,a5,0x8
 1003e10:	10005737          	lui	a4,0x10005
 1003e14:	e4f70123          	sb	a5,-446(a4) # 10004e42 <_sidata+0xf00067e>
 1003e18:	acc1                	j	10040e8 <__riscv_restore_0>

01003e1a <ATT_ExchangeMtuReq>:
ATT_ExchangeMtuReq():
 1003e1a:	2aa002ef          	jal	t0,10040c4 <__riscv_save_0>
 1003e1e:	1141                	addi	sp,sp,-16
 1003e20:	00011623          	sh	zero,12(sp)
 1003e24:	478d                	li	a5,3
 1003e26:	10005437          	lui	s0,0x10005
 1003e2a:	00010723          	sb	zero,14(sp)
 1003e2e:	00f10623          	sb	a5,12(sp)
 1003e32:	96644783          	lbu	a5,-1690(s0) # 10004966 <_sidata+0xf0001a2>
 1003e36:	96744703          	lbu	a4,-1689(s0)
 1003e3a:	84aa                	mv	s1,a0
 1003e3c:	00f106a3          	sb	a5,13(sp)
 1003e40:	96644783          	lbu	a5,-1690(s0)
 1003e44:	96744783          	lbu	a5,-1689(s0)
 1003e48:	0068                	addi	a0,sp,12
 1003e4a:	458d                	li	a1,3
 1003e4c:	00f10723          	sb	a5,14(sp)
 1003e50:	2015                	jal	1003e74 <ATT_Send>
 1003e52:	0014c503          	lbu	a0,1(s1)
 1003e56:	0004c703          	lbu	a4,0(s1)
 1003e5a:	96644583          	lbu	a1,-1690(s0)
 1003e5e:	96744783          	lbu	a5,-1689(s0)
 1003e62:	0522                	slli	a0,a0,0x8
 1003e64:	953a                	add	a0,a0,a4
 1003e66:	07a2                	slli	a5,a5,0x8
 1003e68:	0542                	slli	a0,a0,0x10
 1003e6a:	8ddd                	or	a1,a1,a5
 1003e6c:	8141                	srli	a0,a0,0x10
 1003e6e:	3785                	jal	1003dce <ATT_UpdateMtu>
 1003e70:	0141                	addi	sp,sp,16
 1003e72:	ac9d                	j	10040e8 <__riscv_restore_0>

01003e74 <ATT_Send>:
ATT_Send():
 1003e74:	250002ef          	jal	t0,10040c4 <__riscv_save_0>
 1003e78:	1141                	addi	sp,sp,-16
 1003e7a:	842a                	mv	s0,a0
 1003e7c:	c62e                	sw	a1,12(sp)
 1003e7e:	a78ff0ef          	jal	ra,10030f6 <bt_check_le_connected>
 1003e82:	00050663          	beqz	a0,1003e8e <ATT_Send+0x1a>
 1003e86:	45b2                	lw	a1,12(sp)
 1003e88:	8522                	mv	a0,s0
 1003e8a:	e15fe0ef          	jal	ra,1002c9e <Bt_BleSendData>
 1003e8e:	0141                	addi	sp,sp,16
 1003e90:	aca1                	j	10040e8 <__riscv_restore_0>

01003e92 <ATT_Parse>:
ATT_Parse():
 1003e92:	232002ef          	jal	t0,10040c4 <__riscv_save_0>
 1003e96:	0005c603          	lbu	a2,0(a1)
 1003e9a:	47a9                	li	a5,10
 1003e9c:	0cf60f63          	beq	a2,a5,1003f7a <ATT_Parse+0xe8>
 1003ea0:	04c7e563          	bltu	a5,a2,1003eea <ATT_Parse+0x58>
 1003ea4:	4791                	li	a5,4
 1003ea6:	0af60e63          	beq	a2,a5,1003f62 <ATT_Parse+0xd0>
 1003eaa:	02c7e363          	bltu	a5,a2,1003ed0 <ATT_Parse+0x3e>
 1003eae:	4789                	li	a5,2
 1003eb0:	08f60063          	beq	a2,a5,1003f30 <ATT_Parse+0x9e>
 1003eb4:	478d                	li	a5,3
 1003eb6:	08f60263          	beq	a2,a5,1003f3a <ATT_Parse+0xa8>
 1003eba:	010045b7          	lui	a1,0x1004
 1003ebe:	01004537          	lui	a0,0x1004
 1003ec2:	72458593          	addi	a1,a1,1828 # 1004724 <AAP_StopAnc4+0x1c4>
 1003ec6:	76450513          	addi	a0,a0,1892 # 1004764 <AAP_StopAnc4+0x204>
 1003eca:	88ffd0ef          	jal	ra,1001758 <print_string_log>
 1003ece:	a0ad                	j	1003f38 <ATT_Parse+0xa6>
 1003ed0:	4799                	li	a5,6
 1003ed2:	08f60d63          	beq	a2,a5,1003f6c <ATT_Parse+0xda>
 1003ed6:	47a1                	li	a5,8
 1003ed8:	fef611e3          	bne	a2,a5,1003eba <ATT_Parse+0x28>
 1003edc:	157d                	addi	a0,a0,-1
 1003ede:	0585                	addi	a1,a1,1
 1003ee0:	0ff57513          	andi	a0,a0,255
 1003ee4:	b1fff0ef          	jal	ra,1003a02 <ATT_ReadReq_ByType>
 1003ee8:	a881                	j	1003f38 <ATT_Parse+0xa6>
 1003eea:	47c9                	li	a5,18
 1003eec:	0af60163          	beq	a2,a5,1003f8e <ATT_Parse+0xfc>
 1003ef0:	00c7ef63          	bltu	a5,a2,1003f0e <ATT_Parse+0x7c>
 1003ef4:	47b1                	li	a5,12
 1003ef6:	08f60763          	beq	a2,a5,1003f84 <ATT_Parse+0xf2>
 1003efa:	47c1                	li	a5,16
 1003efc:	faf61fe3          	bne	a2,a5,1003eba <ATT_Parse+0x28>
 1003f00:	157d                	addi	a0,a0,-1
 1003f02:	0585                	addi	a1,a1,1
 1003f04:	0ff57513          	andi	a0,a0,255
 1003f08:	8f5ff0ef          	jal	ra,10037fc <ATT_ReadReq_ByGroupType>
 1003f0c:	a035                	j	1003f38 <ATT_Parse+0xa6>
 1003f0e:	47e1                	li	a5,24
 1003f10:	08f60663          	beq	a2,a5,1003f9c <ATT_Parse+0x10a>
 1003f14:	05200793          	li	a5,82
 1003f18:	08f60563          	beq	a2,a5,1003fa2 <ATT_Parse+0x110>
 1003f1c:	47d9                	li	a5,22
 1003f1e:	f8f61ee3          	bne	a2,a5,1003eba <ATT_Parse+0x28>
 1003f22:	157d                	addi	a0,a0,-1
 1003f24:	0585                	addi	a1,a1,1
 1003f26:	0ff57513          	andi	a0,a0,255
 1003f2a:	ff0ff0ef          	jal	ra,100371a <ATT_PrepareWriteReq>
 1003f2e:	a029                	j	1003f38 <ATT_Parse+0xa6>
 1003f30:	00158513          	addi	a0,a1,1
 1003f34:	ee7ff0ef          	jal	ra,1003e1a <ATT_ExchangeMtuReq>
 1003f38:	aa45                	j	10040e8 <__riscv_restore_0>
 1003f3a:	0025c503          	lbu	a0,2(a1)
 1003f3e:	0015c683          	lbu	a3,1(a1)
 1003f42:	100057b7          	lui	a5,0x10005
 1003f46:	9667c703          	lbu	a4,-1690(a5) # 10004966 <_sidata+0xf0001a2>
 1003f4a:	9677c783          	lbu	a5,-1689(a5)
 1003f4e:	0522                	slli	a0,a0,0x8
 1003f50:	9536                	add	a0,a0,a3
 1003f52:	07a2                	slli	a5,a5,0x8
 1003f54:	0542                	slli	a0,a0,0x10
 1003f56:	00e7e5b3          	or	a1,a5,a4
 1003f5a:	8141                	srli	a0,a0,0x10
 1003f5c:	e73ff0ef          	jal	ra,1003dce <ATT_UpdateMtu>
 1003f60:	bfe1                	j	1003f38 <ATT_Parse+0xa6>
 1003f62:	00158513          	addi	a0,a1,1
 1003f66:	d81ff0ef          	jal	ra,1003ce6 <ATT_FindInformationReq>
 1003f6a:	b7f9                	j	1003f38 <ATT_Parse+0xa6>
 1003f6c:	157d                	addi	a0,a0,-1
 1003f6e:	0585                	addi	a1,a1,1
 1003f70:	0ff57513          	andi	a0,a0,255
 1003f74:	cc3ff0ef          	jal	ra,1003c36 <ATT_Find_ByType_Value>
 1003f78:	b7c1                	j	1003f38 <ATT_Parse+0xa6>
 1003f7a:	00158513          	addi	a0,a1,1
 1003f7e:	a4fff0ef          	jal	ra,10039cc <ATT_ReadReq>
 1003f82:	bf5d                	j	1003f38 <ATT_Parse+0xa6>
 1003f84:	00158513          	addi	a0,a1,1
 1003f88:	9f1ff0ef          	jal	ra,1003978 <ATT_ReadBlobReq>
 1003f8c:	b775                	j	1003f38 <ATT_Parse+0xa6>
 1003f8e:	157d                	addi	a0,a0,-1
 1003f90:	0585                	addi	a1,a1,1
 1003f92:	0ff57513          	andi	a0,a0,255
 1003f96:	821ff0ef          	jal	ra,10037b6 <ATT_WriteReq>
 1003f9a:	bf79                	j	1003f38 <ATT_Parse+0xa6>
 1003f9c:	f3aff0ef          	jal	ra,10036d6 <ATT_ExecuteWriteReq>
 1003fa0:	bf61                	j	1003f38 <ATT_Parse+0xa6>
 1003fa2:	ffd50613          	addi	a2,a0,-3
 1003fa6:	0025c503          	lbu	a0,2(a1)
 1003faa:	0015c783          	lbu	a5,1(a1)
 1003fae:	0ff67613          	andi	a2,a2,255
 1003fb2:	0522                	slli	a0,a0,0x8
 1003fb4:	953e                	add	a0,a0,a5
 1003fb6:	0542                	slli	a0,a0,0x10
 1003fb8:	058d                	addi	a1,a1,3
 1003fba:	8141                	srli	a0,a0,0x10
 1003fbc:	efcff0ef          	jal	ra,10036b8 <ATT_WriteCmd>
 1003fc0:	bfa5                	j	1003f38 <ATT_Parse+0xa6>

01003fc2 <app_task_run>:
app_task_run():
 1003fc2:	8082                	ret

01003fc4 <app_init>:
app_init():
 1003fc4:	100002ef          	jal	t0,10040c4 <__riscv_save_0>
 1003fc8:	01004537          	lui	a0,0x1004
 1003fcc:	78050513          	addi	a0,a0,1920 # 1004780 <AAP_StopAnc4+0x220>
 1003fd0:	f88fd0ef          	jal	ra,1001758 <print_string_log>
 1003fd4:	4501                	li	a0,0
 1003fd6:	8ddfe0ef          	jal	ra,10028b2 <Lpm_EnableSet>
 1003fda:	6541                	lui	a0,0x10
 1003fdc:	157d                	addi	a0,a0,-1
 1003fde:	8abfe0ef          	jal	ra,1002888 <Lpm_LockLpm>
 1003fe2:	e86ff0ef          	jal	ra,1003668 <hci_freq_tx_test>
 1003fe6:	01004537          	lui	a0,0x1004
 1003fea:	79050513          	addi	a0,a0,1936 # 1004790 <AAP_StopAnc4+0x230>
 1003fee:	f6afd0ef          	jal	ra,1001758 <print_string_log>
 1003ff2:	a8dd                	j	10040e8 <__riscv_restore_0>

01003ff4 <Find_AttTable_ByHandle>:
Find_AttTable_ByHandle():
 1003ff4:	4785                	li	a5,1
 1003ff6:	00f50463          	beq	a0,a5,1003ffe <Find_AttTable_ByHandle+0xa>
 1003ffa:	4501                	li	a0,0
 1003ffc:	8082                	ret
 1003ffe:	01004537          	lui	a0,0x1004
 1004002:	7b450513          	addi	a0,a0,1972 # 10047b4 <Att_List>
 1004006:	8082                	ret

01004008 <Find_AttTable_ByHandleRange_Type>:
Find_AttTable_ByHandleRange_Type():
 1004008:	0bc002ef          	jal	t0,10040c4 <__riscv_save_0>
 100400c:	4401                	li	s0,0
 100400e:	02a5eb63          	bltu	a1,a0,1004044 <Find_AttTable_ByHandleRange_Type+0x3c>
 1004012:	4785                	li	a5,1
 1004014:	4401                	li	s0,0
 1004016:	02a7e763          	bltu	a5,a0,1004044 <Find_AttTable_ByHandleRange_Type+0x3c>
 100401a:	02058563          	beqz	a1,1004044 <Find_AttTable_ByHandleRange_Type+0x3c>
 100401e:	00064703          	lbu	a4,0(a2)
 1004022:	4789                	li	a5,2
 1004024:	02f71063          	bne	a4,a5,1004044 <Find_AttTable_ByHandleRange_Type+0x3c>
 1004028:	85b2                	mv	a1,a2
 100402a:	01004537          	lui	a0,0x1004
 100402e:	4609                	li	a2,2
 1004030:	0585                	addi	a1,a1,1
 1004032:	7a850513          	addi	a0,a0,1960 # 10047a8 <PRIMARY_SERVICE>
 1004036:	287d                	jal	10040f4 <memcmp>
 1004038:	00051663          	bnez	a0,1004044 <Find_AttTable_ByHandleRange_Type+0x3c>
 100403c:	01004437          	lui	s0,0x1004
 1004040:	7b440413          	addi	s0,s0,1972 # 10047b4 <Att_List>
 1004044:	8522                	mv	a0,s0
 1004046:	a04d                	j	10040e8 <__riscv_restore_0>

01004048 <Find_AttTable_ByHandleRange_Type_Data>:
Find_AttTable_ByHandleRange_Type_Data():
 1004048:	07c002ef          	jal	t0,10040c4 <__riscv_save_0>
 100404c:	04a5e263          	bltu	a1,a0,1004090 <Find_AttTable_ByHandleRange_Type_Data+0x48>
 1004050:	4785                	li	a5,1
 1004052:	4401                	li	s0,0
 1004054:	02a7fc63          	bgeu	a5,a0,100408c <Find_AttTable_ByHandleRange_Type_Data+0x44>
 1004058:	8522                	mv	a0,s0
 100405a:	a079                	j	10040e8 <__riscv_restore_0>
 100405c:	00064683          	lbu	a3,0(a2)
 1004060:	4789                	li	a5,2
 1004062:	4401                	li	s0,0
 1004064:	fef69ae3          	bne	a3,a5,1004058 <Find_AttTable_ByHandleRange_Type_Data+0x10>
 1004068:	85b2                	mv	a1,a2
 100406a:	01004537          	lui	a0,0x1004
 100406e:	4609                	li	a2,2
 1004070:	0585                	addi	a1,a1,1
 1004072:	7a850513          	addi	a0,a0,1960 # 10047a8 <PRIMARY_SERVICE>
 1004076:	84ba                	mv	s1,a4
 1004078:	28b5                	jal	10040f4 <memcmp>
 100407a:	fc051fe3          	bnez	a0,1004058 <Find_AttTable_ByHandleRange_Type_Data+0x10>
 100407e:	fc049de3          	bnez	s1,1004058 <Find_AttTable_ByHandleRange_Type_Data+0x10>
 1004082:	01004437          	lui	s0,0x1004
 1004086:	7b440413          	addi	s0,s0,1972 # 10047b4 <Att_List>
 100408a:	b7f9                	j	1004058 <Find_AttTable_ByHandleRange_Type_Data+0x10>
 100408c:	fc0598e3          	bnez	a1,100405c <Find_AttTable_ByHandleRange_Type_Data+0x14>
 1004090:	4401                	li	s0,0
 1004092:	b7d9                	j	1004058 <Find_AttTable_ByHandleRange_Type_Data+0x10>

01004094 <__riscv_save_12>:
__riscv_save_12():
 1004094:	7139                	addi	sp,sp,-64
 1004096:	4301                	li	t1,0
 1004098:	c66e                	sw	s11,12(sp)
 100409a:	a019                	j	10040a0 <__riscv_save_10+0x4>

0100409c <__riscv_save_10>:
 100409c:	7139                	addi	sp,sp,-64
 100409e:	5341                	li	t1,-16
 10040a0:	c86a                	sw	s10,16(sp)
 10040a2:	ca66                	sw	s9,20(sp)
 10040a4:	cc62                	sw	s8,24(sp)
 10040a6:	ce5e                	sw	s7,28(sp)
 10040a8:	a019                	j	10040ae <__riscv_save_4+0x4>

010040aa <__riscv_save_4>:
 10040aa:	7139                	addi	sp,sp,-64
 10040ac:	5301                	li	t1,-32
 10040ae:	d05a                	sw	s6,32(sp)
 10040b0:	d256                	sw	s5,36(sp)
 10040b2:	d452                	sw	s4,40(sp)
 10040b4:	d64e                	sw	s3,44(sp)
 10040b6:	d84a                	sw	s2,48(sp)
 10040b8:	da26                	sw	s1,52(sp)
 10040ba:	dc22                	sw	s0,56(sp)
 10040bc:	de06                	sw	ra,60(sp)
 10040be:	40610133          	sub	sp,sp,t1
 10040c2:	8282                	jr	t0

010040c4 <__riscv_save_0>:
__riscv_save_1():
 10040c4:	1141                	addi	sp,sp,-16
 10040c6:	c04a                	sw	s2,0(sp)
 10040c8:	c226                	sw	s1,4(sp)
 10040ca:	c422                	sw	s0,8(sp)
 10040cc:	c606                	sw	ra,12(sp)
 10040ce:	8282                	jr	t0

010040d0 <__riscv_restore_12>:
__riscv_restore_12():
 10040d0:	4db2                	lw	s11,12(sp)
 10040d2:	0141                	addi	sp,sp,16

010040d4 <__riscv_restore_10>:
 10040d4:	4d02                	lw	s10,0(sp)
 10040d6:	4c92                	lw	s9,4(sp)
 10040d8:	4c22                	lw	s8,8(sp)
 10040da:	4bb2                	lw	s7,12(sp)
 10040dc:	0141                	addi	sp,sp,16

010040de <__riscv_restore_4>:
 10040de:	4b02                	lw	s6,0(sp)
 10040e0:	4a92                	lw	s5,4(sp)
 10040e2:	4a22                	lw	s4,8(sp)
 10040e4:	49b2                	lw	s3,12(sp)
 10040e6:	0141                	addi	sp,sp,16

010040e8 <__riscv_restore_0>:
 10040e8:	4902                	lw	s2,0(sp)
 10040ea:	4492                	lw	s1,4(sp)
 10040ec:	4422                	lw	s0,8(sp)
 10040ee:	40b2                	lw	ra,12(sp)
 10040f0:	0141                	addi	sp,sp,16
 10040f2:	8082                	ret

010040f4 <memcmp>:
memcmp():
 10040f4:	4701                	li	a4,0
 10040f6:	00e61463          	bne	a2,a4,10040fe <memcmp+0xa>
 10040fa:	4501                	li	a0,0
 10040fc:	8082                	ret
 10040fe:	00e507b3          	add	a5,a0,a4
 1004102:	0705                	addi	a4,a4,1
 1004104:	00e586b3          	add	a3,a1,a4
 1004108:	0007c783          	lbu	a5,0(a5)
 100410c:	fff6c683          	lbu	a3,-1(a3)
 1004110:	fed783e3          	beq	a5,a3,10040f6 <memcmp+0x2>
 1004114:	40d78533          	sub	a0,a5,a3
 1004118:	8082                	ret

0100411a <memcpy>:
memcpy():
 100411a:	00a5c7b3          	xor	a5,a1,a0
 100411e:	8b8d                	andi	a5,a5,3
 1004120:	00c50733          	add	a4,a0,a2
 1004124:	00079563          	bnez	a5,100412e <memcpy+0x14>
 1004128:	478d                	li	a5,3
 100412a:	00c7ee63          	bltu	a5,a2,1004146 <memcpy+0x2c>
 100412e:	87aa                	mv	a5,a0
 1004130:	0ae57163          	bgeu	a0,a4,10041d2 <memcpy+0xb8>
 1004134:	0005c683          	lbu	a3,0(a1)
 1004138:	0785                	addi	a5,a5,1
 100413a:	0585                	addi	a1,a1,1
 100413c:	fed78fa3          	sb	a3,-1(a5)
 1004140:	fee7eae3          	bltu	a5,a4,1004134 <memcpy+0x1a>
 1004144:	8082                	ret
 1004146:	00357693          	andi	a3,a0,3
 100414a:	87aa                	mv	a5,a0
 100414c:	00068b63          	beqz	a3,1004162 <memcpy+0x48>
 1004150:	0005c683          	lbu	a3,0(a1)
 1004154:	0785                	addi	a5,a5,1
 1004156:	0585                	addi	a1,a1,1
 1004158:	fed78fa3          	sb	a3,-1(a5)
 100415c:	0037f693          	andi	a3,a5,3
 1004160:	b7f5                	j	100414c <memcpy+0x32>
 1004162:	ffc77693          	andi	a3,a4,-4
 1004166:	fe068613          	addi	a2,a3,-32
 100416a:	06c7f063          	bgeu	a5,a2,10041ca <memcpy+0xb0>
 100416e:	0005a383          	lw	t2,0(a1)
 1004172:	0045a283          	lw	t0,4(a1)
 1004176:	0085af83          	lw	t6,8(a1)
 100417a:	00c5af03          	lw	t5,12(a1)
 100417e:	0105ae83          	lw	t4,16(a1)
 1004182:	0145ae03          	lw	t3,20(a1)
 1004186:	0185a303          	lw	t1,24(a1)
 100418a:	01c5a883          	lw	a7,28(a1)
 100418e:	02458593          	addi	a1,a1,36
 1004192:	0077a023          	sw	t2,0(a5)
 1004196:	ffc5a803          	lw	a6,-4(a1)
 100419a:	0057a223          	sw	t0,4(a5)
 100419e:	01f7a423          	sw	t6,8(a5)
 10041a2:	01e7a623          	sw	t5,12(a5)
 10041a6:	01d7a823          	sw	t4,16(a5)
 10041aa:	01c7aa23          	sw	t3,20(a5)
 10041ae:	0067ac23          	sw	t1,24(a5)
 10041b2:	0117ae23          	sw	a7,28(a5)
 10041b6:	02478793          	addi	a5,a5,36
 10041ba:	ff07ae23          	sw	a6,-4(a5)
 10041be:	b775                	j	100416a <memcpy+0x50>
 10041c0:	4190                	lw	a2,0(a1)
 10041c2:	0791                	addi	a5,a5,4
 10041c4:	0591                	addi	a1,a1,4
 10041c6:	fec7ae23          	sw	a2,-4(a5)
 10041ca:	fed7ebe3          	bltu	a5,a3,10041c0 <memcpy+0xa6>
 10041ce:	f6e7e3e3          	bltu	a5,a4,1004134 <memcpy+0x1a>
 10041d2:	8082                	ret

010041d4 <memset>:
memset():
 10041d4:	433d                	li	t1,15
 10041d6:	872a                	mv	a4,a0
 10041d8:	02c37363          	bgeu	t1,a2,10041fe <memset+0x2a>
 10041dc:	00f77793          	andi	a5,a4,15
 10041e0:	efbd                	bnez	a5,100425e <memset+0x8a>
 10041e2:	e5ad                	bnez	a1,100424c <memset+0x78>
 10041e4:	ff067693          	andi	a3,a2,-16
 10041e8:	8a3d                	andi	a2,a2,15
 10041ea:	96ba                	add	a3,a3,a4
 10041ec:	c30c                	sw	a1,0(a4)
 10041ee:	c34c                	sw	a1,4(a4)
 10041f0:	c70c                	sw	a1,8(a4)
 10041f2:	c74c                	sw	a1,12(a4)
 10041f4:	0741                	addi	a4,a4,16
 10041f6:	fed76be3          	bltu	a4,a3,10041ec <memset+0x18>
 10041fa:	e211                	bnez	a2,10041fe <memset+0x2a>
 10041fc:	8082                	ret
 10041fe:	40c306b3          	sub	a3,t1,a2
 1004202:	068a                	slli	a3,a3,0x2
 1004204:	00000297          	auipc	t0,0x0
 1004208:	9696                	add	a3,a3,t0
 100420a:	00a68067          	jr	10(a3)
 100420e:	00b70723          	sb	a1,14(a4)
 1004212:	00b706a3          	sb	a1,13(a4)
 1004216:	00b70623          	sb	a1,12(a4)
 100421a:	00b705a3          	sb	a1,11(a4)
 100421e:	00b70523          	sb	a1,10(a4)
 1004222:	00b704a3          	sb	a1,9(a4)
 1004226:	00b70423          	sb	a1,8(a4)
 100422a:	00b703a3          	sb	a1,7(a4)
 100422e:	00b70323          	sb	a1,6(a4)
 1004232:	00b702a3          	sb	a1,5(a4)
 1004236:	00b70223          	sb	a1,4(a4)
 100423a:	00b701a3          	sb	a1,3(a4)
 100423e:	00b70123          	sb	a1,2(a4)
 1004242:	00b700a3          	sb	a1,1(a4)
 1004246:	00b70023          	sb	a1,0(a4)
 100424a:	8082                	ret
 100424c:	0ff5f593          	andi	a1,a1,255
 1004250:	00859693          	slli	a3,a1,0x8
 1004254:	8dd5                	or	a1,a1,a3
 1004256:	01059693          	slli	a3,a1,0x10
 100425a:	8dd5                	or	a1,a1,a3
 100425c:	b761                	j	10041e4 <memset+0x10>
 100425e:	00279693          	slli	a3,a5,0x2
 1004262:	00000297          	auipc	t0,0x0
 1004266:	9696                	add	a3,a3,t0
 1004268:	8286                	mv	t0,ra
 100426a:	fa8680e7          	jalr	-88(a3)
 100426e:	8096                	mv	ra,t0
 1004270:	17c1                	addi	a5,a5,-16
 1004272:	8f1d                	sub	a4,a4,a5
 1004274:	963e                	add	a2,a2,a5
 1004276:	f8c374e3          	bgeu	t1,a2,10041fe <memset+0x2a>
 100427a:	b7a5                	j	10041e2 <memset+0xe>
 100427c:	4141                	li	sp,16
 100427e:	3636                	fld	fa2,360(sp)
 1004280:	4241                	li	tp,16
 1004282:	46454443          	fmadd.q	fs0,fa0,ft4,fs0,rmm
 1004286:	4646                	lw	a2,80(sp)
 1004288:	0000                	unimp
 100428a:	0000                	unimp
 100428c:	0020                	addi	s0,sp,8
 100428e:	0000                	unimp
 1004290:	3130                	fld	fa2,96(a0)
 1004292:	3332                	fld	ft6,296(sp)
 1004294:	3534                	fld	fa3,104(a0)
 1004296:	3736                	fld	fa4,360(sp)
 1004298:	3938                	fld	fa4,112(a0)
 100429a:	6261                	lui	tp,0x18
 100429c:	66656463          	bltu	a0,t1,1004904 <_sidata+0x140>
 10042a0:	0000                	unimp
 10042a2:	0000                	unimp
 10042a4:	3130                	fld	fa2,96(a0)
 10042a6:	3332                	fld	ft6,296(sp)
 10042a8:	3534                	fld	fa3,104(a0)
 10042aa:	3736                	fld	fa4,360(sp)
 10042ac:	3938                	fld	fa4,112(a0)
 10042ae:	4241                	li	tp,16
 10042b0:	46454443          	fmadd.q	fs0,fa0,ft4,fs0,rmm
 10042b4:	0000                	unimp
 10042b6:	0000                	unimp
 10042b8:	5245                	li	tp,-15
 10042ba:	4f52                	lw	t5,20(sp)
 10042bc:	0052                	c.slli	zero,0x14
 10042be:	0000                	unimp
 10042c0:	2f2e                	fld	ft10,200(sp)
 10042c2:	2e2e                	fld	ft8,200(sp)
 10042c4:	2f2e2e2f          	0x2f2e2e2f
 10042c8:	2e2e                	fld	ft8,200(sp)
 10042ca:	5050412f          	0x5050412f
 10042ce:	6c616d2f          	0x6c616d2f
 10042d2:	6f6c                	flw	fa1,92(a4)
 10042d4:	616d2f63          	0x616d2f63
 10042d8:	6c6c                	flw	fa1,92(s0)
 10042da:	632e636f          	jal	t1,10ea90c <_sidata+0xe6148>
	...

010042e0 <__FUNCTION__.2818>:
 10042e0:	6f6d654d 4d5f7972 6f6c6c61 00000063     Memory_Malloc...
 10042f0:	2e2e2f2e 2f2e2e2f 502f2e2e 6674616c     ./../../../Platf
 1004300:	2f6d726f 2f6b6473 792f7462 78313163     orm/sdk/bt/yc11x
 1004310:	70695f78 00632e63 44637049 75616665     x_ipc.c.IpcDefau
 1004320:	6143746c 61426c6c 0d206b63 0000000a     ltCallBack .....

01004330 <__FUNCTION__.2884>:
 1004330:	5f435049 6f437854 6e6f6d6d 00000000     IPC_TxCommon....

01004340 <__FUNCTION__.2899>:
 1004340:	5f435049 646e6148 7852656c 6b636150     IPC_HandleRxPack
 1004350:	00007465 2e2e2f2e 2f2e2e2f 502f2e2e     et.../../../../P
 1004360:	6674616c 2f6d726f 2f6b6473 31316379     latform/sdk/yc11
 1004370:	695f7878 2e676477 00000063              xx_iwdg.c...

0100437c <__FUNCTION__.2182>:
 100437c:	47445749 7369445f 656c6261 00000000     IWDG_Disable....

0100438c <aap_rsp>:
 100438c:	00040001 00010000 00070002 000784e1     ................
 100439c:	0000863d                                =...

010043a0 <AAP_manufac1>:
 10043a0:	00040004 8d01001d 41000400 6f507269     ...........AirPo
 10043b0:	50207364 41006f72 34383032 70704100     ds Pro.A2084.App
 10043c0:	4920656c 002e636e 5a585747 39345647     le Inc..GWXZGV49
 10043d0:	544b4b4c 2e303100 32323033 34313030     LKKT.10.30220014
 10043e0:	30303036 2e303030 31003335 30332e30     6000000.53.10.30
 10043f0:	30303232 30363431 30303030 33352e30     2200146000000.53
 1004400:	302e3100 6300302e 612e6d6f 656c7070     .1.0.0.com.apple
 1004410:	6363612e 6f737365 752e7972 74616470     .accessory.updat
 1004420:	612e7265 362e7070 00300031 30310030     er.app.61.0.0.10
 1004430:	34333935 00000034                       59344...

01004438 <AAP_manufac2>:
 1004438:	00040004 00000006                       ........

01004440 <AAP_manufac3>:
 1004440:	00040004 01020031 1e001000 da3a87a3     ....1.........:.
 1004450:	6e87a6c8 9f4c58ee 04bf5dd3 15001000     ...n.XL..]......
 1004460:	64660bb7 1fb55183 c9ab17b4 00fe2222     ..fd.Q......""..

01004470 <AAP_manufac4>:
 1004470:	00040004 02030004 01025e01 025e0104     .........^....^.
 1004480:	7f010801 00000104                       ........

01004488 <AAP_AcpAnc1>:
 1004488:	00040004 02010021 00000002              ....!.......

01004494 <AAP_StartAnc2>:
 1004494:	00040004 fa25000e 005b9411 00000002     ......%...[.....

010044a4 <AAP_AncRst3>:
 10044a4:	00040004 03010021 000000b2 40bd2d93     ....!........-.@
 10044b4:	3dde3545 3d9ef443 3db35442 3d918207     E5.=C..=BT.=...=
 10044c4:	3e8371c8 3e802726 3eb14e3e 3eb00c14     .q.>&'.>>N.>...>
 10044d4:	3f043e9e 3f676d81 3f595ae4 3fc900fc     .>.?.mg?.ZY?...?
 10044e4:	3f7b8216 3fb77e21 3f80ad6b 3f8114de     ..{?!~.?k..?...?
 10044f4:	3f34c7dc 3eec80a2 3eda88b2 3f11658f     ..4?...>...>.e.?
 1004504:	3f5843bc 419cdc8b 3e170bd6 3b385900     .CX?...A...>.Y8;
 1004514:	3e1b3970 3e0b065c 3f1cfb26 3e114f90     p9.>\..>&..?.O.>
 1004524:	3e891bc4 3eb4e8bc 3eab5514 3f01b2a1     ...>...>.U.>...?
 1004534:	3ee8a640 3f1972be 3eb9d450 3f524da4     @..>.r.?P..>.MR?
 1004544:	3ec7c6e1 3f2505fb 3f60fcbd 3f089e2e     ...>..%?..`?...?
 1004554:	3f7d6ed0 3f6cc129 3f2e3283              .n}?).l?.2.?

01004560 <AAP_StopAnc4>:
 1004560:	00040004 fa25000e 005b9411 00000000     ......%...[.....
 1004570:	20494348 55455551 53492045 4c554620     HCI QUEUE IS FUL
 1004580:	0a0d204c 00000000 01002c2c 01002b92     L ......,,...+..
 1004590:	01002bb4 01002bd2 01002bf0 01002c0e     .+...+...+...,..
 10045a0:	425f7442 6553656c 6144646e 45206174     Bt_BleSendData E
 10045b0:	524f5252 000a0d20 01002ede 01002df6     RROR ........-..
 10045c0:	01002e34 01002e60 01002e90 01002eba     4...`...........
 10045d0:	4c5f5442 0000474f 203a7325 6c5f6461     BT_LOG..%s: ad_l
 10045e0:	20206e65 7265766f 657a6973 72726520     en  oversize err
 10045f0:	2020726f 00000a0d 203a7325 5f564441     or  ....%s: ADV_
 1004600:	45505954 4d4f4e5f 20204c41 2d2d2020     TYPE_NOMAL    --
 1004610:	2d2d2d2d 2d2d2d2d 2d2d2d2d 00000a0d     ------------....
 1004620:	203a7325 5f564441 45505954 5249445f     %s: ADV_TYPE_DIR
 1004630:	20544345 2d202020 2d2d2d2d 2d2d2d2d     ECT    ---------
 1004640:	2d2d2d2d 000a0d2d 203a7325 5f564441     -----...%s: ADV_
 1004650:	45505954 434f4e5f 454e4e4f 20205443     TYPE_NOCONNECT  
 1004660:	2d2d2020 2d2d2d2d 2d2d2d2d 2d2d2d2d       --------------
 1004670:	00000a0d 010031f0 0100324e 0100327c     .....1..N2..|2..
 1004680:	0100319e 01003154 203a7325 455f5442     .1..T1..%s: BT_E
 1004690:	4c5f5456 4e455f45 4e495f43 0d204f46     VT_LE_ENC_INFO .
 10046a0:	0000000a 203a7325 455f5442 4c5f5456     ....%s: BT_EVT_L
 10046b0:	4e495f45 544e4544 49595449 204f464e     E_INDENTITYINFO 
 10046c0:	00000a0d 203a7325 455f5442 495f5456     ....%s: BT_EVT_I
 10046d0:	4e45444e 59544954 52444441 20535345     NDENTITYADDRESS 
 10046e0:	00000a0d 203a7325 455f5442 4d5f5456     ....%s: BT_EVT_M
 10046f0:	45545341 44495f52 49544e45 41434946     ASTER_IDENTIFICA
 1004700:	4e4f4954 000a0d20 695f766e 5f6d6574     TION ...nv_item_
 1004710:	206d756e 65207369 726f7272 20202021     num is error!   
 1004720:	00000a0d 5f545441 00474f4c 203a7325     ....ATT_LOG.%s: 
 1004730:	20545441 41445055 4d204154 202c5455     ATT UPDATA MUT, 
 1004740:	68637865 65676e61 3a75746d 20642520     exchangemtu: %d 
 1004750:	636f6c20 746d6c61 25203a75 0a0d2064      localmtu: %d ..
 1004760:	00000000 203a7325 4f545441 4f4e2050     ....%s: ATTOP NO
 1004770:	444d4320 7830203a 0d207825 0000000a      CMD: 0x%x .....
 1004780:	44204448 4d204d54 2045444f 00000a0d     HD DTM MODE ....
 1004790:	52415453 52462054 54205145 45542058     START FREQ TX TE
 10047a0:	0d205453 0000000a                       ST .....

010047a8 <PRIMARY_SERVICE>:
 10047a8:	00002800                                .(..

010047ac <GATT_INCLUDE>:
 10047ac:	00002802                                .(..

010047b0 <GATT_CHARACTERISTIC>:
 10047b0:	00002803                                .(..

010047b4 <Att_List>:
 10047b4:	00020001 010047a8 00000000 00000000     .....G..........
